 LightningUI

 Timestamp is 5971f218 (Fri Jul 21 20:22:48 2017)

 Preferred load address is 00010000

 Start         Length     Name                   Class
 0001:00000000 0014dc60H .text                   CODE
 0001:0014dc60 00000c68H .text$yc                CODE
 0001:0014e8c8 00000304H .text$yd                CODE
 0002:00000000 00000004H .CRT$XCA                DATA
 0002:00000004 00000024H .CRT$XCC                DATA
 0002:00000028 0000000cH .CRT$XCL                DATA
 0002:00000034 000000d8H .CRT$XCU                DATA
 0002:0000010c 00000004H .CRT$XCZ                DATA
 0002:00000110 00000004H .CRT$XIA                DATA
 0002:00000114 00000004H .CRT$XIZ                DATA
 0002:00000118 00000004H .CRT$XPA                DATA
 0002:0000011c 00000004H .CRT$XPZ                DATA
 0002:00000120 00000004H .CRT$XTA                DATA
 0002:00000124 00000004H .CRT$XTZ                DATA
 0002:00000130 00061014H .rdata                  DATA
 0002:00061144 00000066H .rdata$debug            DATA
 0002:000611ac 00000e54H .rdata$r                DATA
 0002:00062000 000000a0H .xdata                  DATA
 0002:000620a0 0000033cH .xdata$x                DATA
 0002:000623dc 00000000H ATL$__a                 DATA
 0002:000623dc 00000000H ATL$__z                 DATA
 0002:000623dc 000000c8H .idata$2                DATA
 0002:000624a4 00000014H .idata$3                DATA
 0002:000624b8 00000810H .idata$4                DATA
 0002:00062cc8 00000d2cH .idata$6                DATA
 0002:000639f4 00000000H .edata                  DATA
 0003:00000000 00000810H .idata$5                DATA
 0003:00000810 00013321H .data                   DATA
 0003:00013b38 00093f98H .bss                    DATA
 0004:00000000 00010850H .pdata                  DATA
 0005:00000000 0000309cH .rsrc$01                DATA
 0005:000030a0 00085e98H .rsrc$02                DATA

  Address         Publics by Value              Rva+Base       Lib:Object

 0000:00000000       ___safe_se_handler_table   00000000     <absolute>
 0000:00000000       ___safe_se_handler_count   00000000     <absolute>
 0001:00000000       ?AtlThrowImpl@ATL@@YAXJ@Z  00011000 f i DIB:Dib.obj
 0001:0000001c       ??3CObject@@SAXPAX@Z       0001101c f i DIB:Dib.obj
 0001:00000020       ??_ECPalette@@UAAPAXI@Z    00011020 f i  CIL library: CIL module
 0001:00000020       ??_GCPalette@@UAAPAXI@Z    00011020 f i DIB:Dib.obj
 0001:00000020       ??_GCGdiObject@@UAAPAXI@Z  00011020 f i DIB:Dib.obj
 0001:00000020       ??_ECGdiObject@@UAAPAXI@Z  00011020 f i  CIL library: CIL module
 0001:00000050       ??1CPalette@@UAA@XZ        00011050 f i DIB:Dib.obj
 0001:0000006c       ??0CDib@@QAA@XZ            0001106c f   DIB:Dib.obj
 0001:000000d4       ??1CDib@@QAA@XZ            000110d4 f   DIB:Dib.obj
 0001:00000124       ?GetWidth@CDib@@QAAJXZ     00011124 f   DIB:Dib.obj
 0001:0000013c       ?GetHeight@CDib@@QAAJXZ    0001113c f   DIB:Dib.obj
 0001:00000154       ?GetImgDataSize@CDib@@QAAKXZ 00011154 f   DIB:Dib.obj
 0001:00000168       ?GetNewImgDataSize@CDib@@QAAKXZ 00011168 f   DIB:Dib.obj
 0001:0000017c       ?GetBitCount@CDib@@QAAGXZ  0001117c f   DIB:Dib.obj
 0001:00000188       ?Empty@CDib@@QAAXXZ        00011188 f   DIB:Dib.obj
 0001:000001f4       ?Read@CDib@@QAAHPAVCFile@@@Z 000111f4 f   DIB:Dib.obj
 0001:000003f8       ?Load@CDib@@QAAHPB_W@Z     000113f8 f   DIB:Dib.obj
 0001:00000480       ?Save_RawFile@CDib@@QAAHPB_WPAEK@Z 00011480 f   DIB:Dib.obj
 0001:00000574       ?Convert24InverseTo32@CDib@@QAAHXZ 00011574 f   DIB:Dib.obj
 0001:0000079c       ?Convert24To32@CDib@@QAAHXZ 0001179c f   DIB:Dib.obj
 0001:00000994       ?ConvertDirection32@CDib@@QAAHXZ 00011994 f   DIB:Dib.obj
 0001:00000b84       ??0?$CStringT@_WV?$StrTraitMFC@_WV?$ChTraitsOS@_W@ATL@@@@@ATL@@QAA@XZ 00011b84 f i DIB:Dib.obj
 0001:00000bc0       ??1?$CStringT@_WV?$StrTraitATL@_WV?$ChTraitsOS@_W@ATL@@@ATL@@@ATL@@QAA@XZ 00011bc0 f i PanelSettingConnectTest.obj
 0001:00000bc0       ??1?$CStringT@_WV?$StrTraitMFC@_WV?$ChTraitsOS@_W@ATL@@@@@ATL@@QAA@XZ 00011bc0 f i DIB:Dib.obj
 0001:00000bc0       ??1?$CSimpleStringT@_W$0A@@ATL@@QAA@XZ 00011bc0 f i DIB:Dib.obj
 0001:00000bf0       ??0?$CSimpleStringT@_W$0A@@ATL@@QAA@PAUIAtlStringMgr@1@@Z 00011bf0 f i DIB:Dib.obj
 0001:00000e98       ?MainWndProc@@YAJPAUHWND__@@IIJ@Z 00011e98 f   LightningUI.obj
 0001:000010a0       ?UIWndProc@@YAJPAUHWND__@@IIJ@Z 000120a0 f   LightningUI.obj
 0001:000021bc       ?RegisterUIWndClass@@YAGPAUHINSTANCE__@@PA_W@Z 000131bc f   LightningUI.obj
 0001:00002248       ?RegisterMainWndClass@@YAGPAUHINSTANCE__@@PA_W@Z 00013248 f   LightningUI.obj
 0001:000022e8       ?InitInstance@@YAHPAUHINSTANCE__@@H@Z 000132e8 f   LightningUI.obj
 0001:00002520       WinMain                    00013520 f   LightningUI.obj
 0001:000028d4       ?DialStateToString@@YAPB_WW4DIAL_STATE@@@Z 000138d4 f   BluetoothCommon.obj
 0001:00002934       ??4CM_String@UTIL@@QAAAAV01@PB_W@Z 00013934 f i PanelBluetoothA2dp.obj
 0001:000029b8       ??0CPanelBluetoothA2dp@@QAA@XZ 000139b8 f   PanelBluetoothA2dp.obj
 0001:00002e20       ??1CPanelBluetoothA2dp@@UAA@XZ 00013e20 f   PanelBluetoothA2dp.obj
 0001:0000323c       ?IsReady@CPanelBluetoothA2dp@@UAAHXZ 0001423c f   PanelBluetoothA2dp.obj
 0001:00003278       ?OnGesture@CPanelBluetoothA2dp@@UAAXPAUtagGESTUREINFO@@@Z 00014278 f   PanelBluetoothA2dp.obj
 0001:000032f8       ?OnGestureMsg@CPanelBluetoothA2dp@@UAAXI@Z 000142f8 f   PanelBluetoothA2dp.obj
 0001:00003368       ?OnQuitPanel@CPanelBluetoothA2dp@@UAAXIIPAX@Z 00014368 f   PanelBluetoothA2dp.obj
 0001:000033cc       ?OnEnterPanel@CPanelBluetoothA2dp@@UAAXIIPAX@Z 000143cc f   PanelBluetoothA2dp.obj
 0001:00003688       ?HandleControlMSG@CPanelBluetoothA2dp@@MAAXKKKPAX@Z 00014688 f   PanelBluetoothA2dp.obj
 0001:00003780       ?OnA2dpConnected@CPanelBluetoothA2dp@@QAAXH@Z 00014780 f   PanelBluetoothA2dp.obj
 0001:00003a30       ?OnAvrcpConnected@CPanelBluetoothA2dp@@QAAXH@Z 00014a30 f   PanelBluetoothA2dp.obj
 0001:00003b44       ?PlayInfoFlyOut@CPanelBluetoothA2dp@@QAAXI@Z 00014b44 f   PanelBluetoothA2dp.obj
 0001:00003d3c       ?PlayInfoFlyIn@CPanelBluetoothA2dp@@QAAXXZ 00014d3c f   PanelBluetoothA2dp.obj
 0001:000040d0       ?SetRemainTime@CPanelBluetoothA2dp@@QAAXH@Z 000150d0 f   PanelBluetoothA2dp.obj
 0001:00004164       ?SetElapsedTime@CPanelBluetoothA2dp@@QAAXH@Z 00015164 f   PanelBluetoothA2dp.obj
 0001:000041f0       ?OnNotifyID3@CPanelBluetoothA2dp@@QAAXPAUstrMusicID3@@@Z 000151f0 f   PanelBluetoothA2dp.obj
 0001:000043e4       ?SetPlayState@CPanelBluetoothA2dp@@QAAXW4PLAYER_STATE@@@Z 000153e4 f   PanelBluetoothA2dp.obj
 0001:00004570       ??_ECPanelBluetoothA2dp@@UAAPAXI@Z 00015570 f i PanelBluetoothA2dp.obj
 0001:00004570       ??_GCPanelBluetoothA2dp@@UAAPAXI@Z 00015570 f i PanelBluetoothA2dp.obj
 0001:0000459c       ?Render@CPanelBluetoothA2dp@@UAAXXZ 0001559c f   PanelBluetoothA2dp.obj
 0001:00004e10       ?Initialize@CPanelBluetoothA2dp@@UAAHIPAVCPanelGL@@PAVCSkinManagerGL@@PAVCTextGL@@PAUHWND__@@U_TMODULEENTRY@@@Z 00015e10 f   PanelBluetoothA2dp.obj
 0001:000061c0       ??4CM_String@UTIL@@QAAAAV01@ABV01@@Z 000171c0 f i PanelBluetoothMain.obj
 0001:00006234       ??ZCM_String@UTIL@@QAAXH@Z 00017234 f i PanelBluetoothMain.obj
 0001:000062f4       ??YCM_String@UTIL@@QAAXPB_W@Z 000172f4 f i PanelBluetoothMain.obj
 0001:000063d4       ??1bad_alloc@std@@UAA@XZ   000173d4 f i PanelBluetoothMain.obj
 0001:000063e8       ??_Gbad_alloc@std@@UAAPAXI@Z 000173e8 f i PanelBluetoothMain.obj
 0001:000063e8       ??_Ebad_alloc@std@@UAAPAXI@Z 000173e8 f i PanelBluetoothMain.obj
 0001:00006420       ??0CPanelBluetoothMain@@QAA@XZ 00017420 f   PanelBluetoothMain.obj
 0001:0000706c       ??1CPanelBluetoothMain@@UAA@XZ 0001806c f   PanelBluetoothMain.obj
 0001:00007c70       ?IsReady@CPanelBluetoothMain@@UAAHXZ 00018c70 f   PanelBluetoothMain.obj
 0001:00007d78       ?Render@CPanelBluetoothMain@@UAAXXZ 00018d78 f   PanelBluetoothMain.obj
 0001:00008ecc       ?OnNotify@CPanelBluetoothMain@@KAXKKKPAX0@Z 00019ecc f   PanelBluetoothMain.obj
 0001:00008f40       ?DeleteStoredInfo@CPanelBluetoothMain@@AAAXPAUstrDeviceInfo@@@Z 00019f40 f   PanelBluetoothMain.obj
 0001:0000902c       ?SetDialString@CPanelBluetoothMain@@AAAXPB_W@Z 0001a02c f   PanelBluetoothMain.obj
 0001:000090ac       ?Input@CPanelBluetoothMain@@AAAX_W@Z 0001a0ac f   PanelBluetoothMain.obj
 0001:0000914c       ?ClearInput@CPanelBluetoothMain@@AAAXH@Z 0001a14c f   PanelBluetoothMain.obj
 0001:00009204       ?ClearDeviceList@CPanelBluetoothMain@@QAAXXZ 0001a204 f   PanelBluetoothMain.obj
 0001:00009230       ?AddInquiredDevice@CPanelBluetoothMain@@QAAXPAUstrDeviceInfo@@@Z 0001a230 f   PanelBluetoothMain.obj
 0001:00009380       ?OnUpdatePBFinish@CPanelBluetoothMain@@QAAXH@Z 0001a380 f   PanelBluetoothMain.obj
 0001:000093c4       ?OnUpdateCallHistoryFinish@CPanelBluetoothMain@@QAAXH@Z 0001a3c4 f   PanelBluetoothMain.obj
 0001:00009410       ?ClearContactList@CPanelBluetoothMain@@QAAXXZ 0001a410 f   PanelBluetoothMain.obj
 0001:00009428       ?AddContact@CPanelBluetoothMain@@QAAXPAUContactInfo@@@Z 0001a428 f   PanelBluetoothMain.obj
 0001:000096b0       ?GetContactStatus@CPanelBluetoothMain@@QAA?AW4CONTACT_STATUS@@XZ 0001a6b0 f   PanelBluetoothMain.obj
 0001:000096b8       ?ClearHistoryList@CPanelBluetoothMain@@QAAXXZ 0001a6b8 f   PanelBluetoothMain.obj
 0001:000096d0       ?AddCallLog@CPanelBluetoothMain@@QAAXPAUstrCallLog@@H@Z 0001a6d0 f   PanelBluetoothMain.obj
 0001:000099d0       ?OnNotifyStartSyncContact@CPanelBluetoothMain@@QAAXXZ 0001a9d0 f   PanelBluetoothMain.obj
 0001:00009a10       ?OnNotifyDeviceInquiryFinish@CPanelBluetoothMain@@QAAXXZ 0001aa10 f   PanelBluetoothMain.obj
 0001:00009a7c       ?OnIniStatus@CPanelBluetoothMain@@QAAXH@Z 0001aa7c f   PanelBluetoothMain.obj
 0001:00009acc       ?OnNotifyPairResult@CPanelBluetoothMain@@QAAXW4PAIR_RESULT@@@Z 0001aacc f   PanelBluetoothMain.obj
 0001:00009b10       ?OnNotifyA2dpConnected@CPanelBluetoothMain@@QAAXH@Z 0001ab10 f   PanelBluetoothMain.obj
 0001:00009b4c       ?SetStoredContactStatus@CPanelBluetoothMain@@QAAXH@Z 0001ab4c f   PanelBluetoothMain.obj
 0001:00009b58       ??Y?$_Vector_const_iterator@UstrPhoneNum@@V?$allocator@UstrPhoneNum@@@std@@@std@@QAAAAV01@H@Z 0001ab58 f i PanelBluetoothMain.obj
 0001:00009bb0       ?_Inside@?$basic_string@DU?$char_traits@D@std@@V?$allocator@D@2@@std@@IAA_NPBD@Z 0001abb0 f i PanelBluetoothMain.obj
 0001:00009bf0       ??0bad_alloc@std@@QAA@ABV01@@Z 0001abf0 f i PanelBluetoothMain.obj
 0001:00009c10       ??_GCPanelBluetoothMain@@UAAPAXI@Z 0001ac10 f i PanelBluetoothMain.obj
 0001:00009c10       ??_ECPanelBluetoothMain@@UAAPAXI@Z 0001ac10 f i PanelBluetoothMain.obj
 0001:00009c3c       ?AddPairedDevice@CPanelBluetoothMain@@QAAXPAUstrDeviceInfo@@@Z 0001ac3c f   PanelBluetoothMain.obj
 0001:00009f28       ?CreateSearchResultList@CPanelBluetoothMain@@QAAHPB_W@Z 0001af28 f   PanelBluetoothMain.obj
 0001:0000a270       ?_Tidy@?$basic_string@DU?$char_traits@D@std@@V?$allocator@D@2@@std@@IAAX_NI@Z 0001b270 f i PanelBluetoothMain.obj
 0001:0000a2d0       ??H?$_Vector_iterator@UstrPhoneNum@@V?$allocator@UstrPhoneNum@@@std@@@std@@QBA?AV01@H@Z 0001b2d0 f i PanelBluetoothMain.obj
 0001:0000a314       ?erase@?$basic_string@DU?$char_traits@D@std@@V?$allocator@D@2@@std@@QAAAAV12@II@Z 0001b314 f i PanelBluetoothMain.obj
 0001:0000a3b0       ?_Copy@?$basic_string@DU?$char_traits@D@std@@V?$allocator@D@2@@std@@IAAXII@Z 0001b3b0 f i PanelBluetoothMain.obj
 0001:0000a4f8       ??1?$basic_string@DU?$char_traits@D@std@@V?$allocator@D@2@@std@@QAA@XZ 0001b4f8 f i PanelBluetoothMain.obj
 0001:0000a504       ?_Grow@?$basic_string@DU?$char_traits@D@std@@V?$allocator@D@2@@std@@IAA_NI_N@Z 0001b504 f i PanelBluetoothMain.obj
 0001:0000a5a8       ?assign@?$basic_string@DU?$char_traits@D@std@@V?$allocator@D@2@@std@@QAAAAV12@ABV12@II@Z 0001b5a8 f i PanelBluetoothMain.obj
 0001:0000a66c       ?assign@?$basic_string@DU?$char_traits@D@std@@V?$allocator@D@2@@std@@QAAAAV12@PBDI@Z 0001b66c f i PanelBluetoothMain.obj
 0001:0000a714       ??0logic_error@std@@QAA@ABV?$basic_string@DU?$char_traits@D@std@@V?$allocator@D@2@@1@@Z 0001b714 f i PanelBluetoothMain.obj
 0001:0000a78c       ??_Eout_of_range@std@@UAAPAXI@Z 0001b78c f i PanelBluetoothMain.obj
 0001:0000a78c       ??_Gout_of_range@std@@UAAPAXI@Z 0001b78c f i PanelBluetoothMain.obj
 0001:0000a78c       ??_Glogic_error@std@@UAAPAXI@Z 0001b78c f i PanelBluetoothMain.obj
 0001:0000a78c       ??_Elength_error@std@@UAAPAXI@Z 0001b78c f i PanelBluetoothWrapper.obj
 0001:0000a78c       ??_Glength_error@std@@UAAPAXI@Z 0001b78c f i PanelBluetoothWrapper.obj
 0001:0000a78c       ??_Elogic_error@std@@UAAPAXI@Z 0001b78c f i PanelBluetoothMain.obj
 0001:0000a7cc       ??0?$basic_string@DU?$char_traits@D@std@@V?$allocator@D@2@@std@@QAA@PBD@Z 0001b7cc f i PanelBluetoothMain.obj
 0001:0000a80c       ??0logic_error@std@@QAA@ABV01@@Z 0001b80c f i PanelBluetoothMain.obj
 0001:0000a884       ??0out_of_range@std@@QAA@ABV01@@Z 0001b884 f i PanelBluetoothMain.obj
 0001:0000a8a4       ?at@?$vector@UstrPhoneNum@@V?$allocator@UstrPhoneNum@@@std@@@std@@QAAAAUstrPhoneNum@@I@Z 0001b8a4 f i PanelBluetoothMain.obj
 0001:0000a938       ?ShowContactDetail@CPanelBluetoothMain@@AAAXHPAUContactInfo@@@Z 0001b938 f   PanelBluetoothMain.obj
 0001:0000ab58       ?SetShowType@CPanelBluetoothMain@@AAAXW4BT_HOMEPAGE_TYPE@@@Z 0001bb58 f   PanelBluetoothMain.obj
 0001:0000b054       ?OnNotifyHfpConnected@CPanelBluetoothMain@@QAAXH@Z 0001c054 f   PanelBluetoothMain.obj
 0001:0000b690       ?OnEnterPanel@CPanelBluetoothMain@@UAAXIIPAX@Z 0001c690 f   PanelBluetoothMain.obj
 0001:0000bbcc       ?OnQuitPanel@CPanelBluetoothMain@@UAAXIIPAX@Z 0001cbcc f   PanelBluetoothMain.obj
 0001:0000bc94       ?Initialize@CPanelBluetoothMain@@UAAHIPAVCPanelGL@@PAVCSkinManagerGL@@PAVCTextGL@@PAUHWND__@@U_TMODULEENTRY@@@Z 0001cc94 f   PanelBluetoothMain.obj
 0001:0000f3b0       ?HandleControlMSG@CPanelBluetoothMain@@MAAXKKKPAX@Z 000203b0 f   PanelBluetoothMain.obj
 0001:00010708       ??0CPanelBluetoothTalking@@QAA@XZ 00021708 f   PanelBluetoothTalking.obj
 0001:00010fd8       ??1CPanelBluetoothTalking@@UAA@XZ 00021fd8 f   PanelBluetoothTalking.obj
 0001:00011850       ?OnEnterPanel@CPanelBluetoothTalking@@UAAXIIPAX@Z 00022850 f   PanelBluetoothTalking.obj
 0001:00011944       ?Render@CPanelBluetoothTalking@@UAAXXZ 00022944 f   PanelBluetoothTalking.obj
 0001:000124ac       ?SetAudioDir@CPanelBluetoothTalking@@QAAXI@Z 000234ac f   PanelBluetoothTalking.obj
 0001:00012550       ?SetMicMute@CPanelBluetoothTalking@@QAAXH@Z 00023550 f   PanelBluetoothTalking.obj
 0001:0001256c       ?OnNotify@CPanelBluetoothTalking@@KAXKKKPAX0@Z 0002356c f   PanelBluetoothTalking.obj
 0001:000125e0       ?Input@CPanelBluetoothTalking@@AAAX_W@Z 000235e0 f   PanelBluetoothTalking.obj
 0001:000126b8       ?SetDTMFMode@CPanelBluetoothTalking@@AAAXH@Z 000236b8 f   PanelBluetoothTalking.obj
 0001:000128cc       ?OnNotifyCallCount@CPanelBluetoothTalking@@QAAXK@Z 000238cc f   PanelBluetoothTalking.obj
 0001:00012b44       ?SelectCallIndex@CPanelBluetoothTalking@@QAAXK@Z 00023b44 f   PanelBluetoothTalking.obj
 0001:00012d20       ??_GCPanelBluetoothTalking@@UAAPAXI@Z 00023d20 f i PanelBluetoothTalking.obj
 0001:00012d20       ??_ECPanelBluetoothTalking@@UAAPAXI@Z 00023d20 f i PanelBluetoothTalking.obj
 0001:00012d44       ?OnQuitPanel@CPanelBluetoothTalking@@UAAXIIPAX@Z 00023d44 f   PanelBluetoothTalking.obj
 0001:00012dfc       ?Initialize@CPanelBluetoothTalking@@UAAHIPAVCPanelGL@@PAVCSkinManagerGL@@PAVCTextGL@@PAUHWND__@@U_TMODULEENTRY@@@Z 00023dfc f   PanelBluetoothTalking.obj
 0001:00014ac4       ?HandleControlMSG@CPanelBluetoothTalking@@MAAXKKKPAX@Z 00025ac4 f   PanelBluetoothTalking.obj
 0001:00014cac       ?OnNotifyCallStatus@CPanelBluetoothTalking@@QAAXPAUstrCallStatus@@@Z 00025cac f   PanelBluetoothTalking.obj
 0001:00014fb8       ??1CReg@@QAA@XZ            00025fb8 f i PanelBluetoothWrapper.obj
 0001:00014fe4       ?ValueSZ@CReg@@QAAHPB_WPA_WK@Z 00025fe4 f i PanelBluetoothWrapper.obj
 0001:00015040       ?ValueSZ@CReg@@QAAPB_WPB_W@Z 00026040 f i PanelBluetoothWrapper.obj
 0001:00015124       ?SetSZ@CReg@@QAAHPB_W0@Z   00026124 f i PanelBluetoothWrapper.obj
 0001:0001517c       ?HandleControlMSG@CPanelBluetoothWrapper@@MAAXKKKPAX@Z 0002617c f   PanelBluetoothWrapper.obj
 0001:000151b4       ?LinkSmartBarMedia@CPanelBluetoothWrapper@@QAAXPAVCSmartBarMedia@@@Z 000261b4 f   PanelBluetoothWrapper.obj
 0001:000151c4       ?OnSpeechStart@CPanelBluetoothWrapper@@UAAXXZ 000261c4 f   PanelBluetoothWrapper.obj
 0001:000151e4       ?OnSpeechTerminate@CPanelBluetoothWrapper@@UAAXXZ 000261e4 f   PanelBluetoothWrapper.obj
 0001:00015204       ?LinkPages@CPanelBluetoothWrapper@@QAAXPAVCPanelBluetoothMain@@PAVCPanelBluetoothTalking@@PAVCPanelBluetoothA2dp@@@Z 00026204 f   PanelBluetoothWrapper.obj
 0001:00015210       ?IsBTModuleIni@CPanelBluetoothWrapper@@QAAHXZ 00026210 f   PanelBluetoothWrapper.obj
 0001:00015218       ?IsPlaying@CPanelBluetoothWrapper@@QAAHXZ 00026218 f   PanelBluetoothWrapper.obj
 0001:00015230       ?EnableA2DP@CPanelBluetoothWrapper@@AAAX_NPBD@Z 00026230 f   PanelBluetoothWrapper.obj
 0001:00015268       ?OnSignalChange@CPanelBluetoothWrapper@@QAAXK@Z 00026268 f   PanelBluetoothWrapper.obj
 0001:000152ac       ?OnBatteryChange@CPanelBluetoothWrapper@@QAAXK@Z 000262ac f   PanelBluetoothWrapper.obj
 0001:000152f0       ?OnNotifyCallCount@CPanelBluetoothWrapper@@QAAXK@Z 000262f0 f   PanelBluetoothWrapper.obj
 0001:000154a4       ?OnNotifyMicState@CPanelBluetoothWrapper@@QAAXW4MICPHONE_MUTE_STATE@@@Z 000264a4 f   PanelBluetoothWrapper.obj
 0001:000154d8       ?OnNotifyPBSyncState@CPanelBluetoothWrapper@@QAAXW4PB_SYNC_STATE@@@Z 000264d8 f   PanelBluetoothWrapper.obj
 0001:00015538       ?OnNotifyAvPlayTime@CPanelBluetoothWrapper@@QAAXPAUstrAvPlayStatus@@@Z 00026538 f   PanelBluetoothWrapper.obj
 0001:00015634       ?OnNotifySetupInI@CPanelBluetoothWrapper@@QAAXPAUstrSetupInI@@@Z 00026634 f   PanelBluetoothWrapper.obj
 0001:000156f8       ?OnNotifyPowerStatus@CPanelBluetoothWrapper@@QAAXH@Z 000266f8 f   PanelBluetoothWrapper.obj
 0001:0001578c       ?RegisterPairRequestCallback@CPanelBluetoothWrapper@@QAAXP6AXPB_W0PAX@Z1@Z 0002678c f   PanelBluetoothWrapper.obj
 0001:00015798       ?AutoChangeAudioDirThreadPro@CPanelBluetoothWrapper@@CAKPAX@Z 00026798 f   PanelBluetoothWrapper.obj
 0001:00015804       ?OnSystemPowerStatePrepare@CPanelBluetoothWrapper@@UAAXI@Z 00026804 f   PanelBluetoothWrapper.obj
 0001:000158a0       ?OnPairRequestFromAndroidAuto@CPanelBluetoothWrapper@@QAAXPA_W@Z 000268a0 f   PanelBluetoothWrapper.obj
 0001:00015954       ?CoCallBack@CPanelBluetoothWrapper@@CAXIIPA_WI@Z 00026954 f   PanelBluetoothWrapper.obj
 0001:00015aa8       ??G?$_Vector_const_iterator@UstrPhoneNum@@V?$allocator@UstrPhoneNum@@@std@@@std@@QBAHABV01@@Z 00026aa8 f i PanelBluetoothWrapper.obj
 0001:00015af4       ??Y?$_Vector_const_iterator@UContactInfo@@V?$allocator@UContactInfo@@@std@@@std@@QAAAAV01@H@Z 00026af4 f i PanelBluetoothWrapper.obj
 0001:00015b4c       ??Y?$_Vector_const_iterator@UstrCallLog@@V?$allocator@UstrCallLog@@@std@@@std@@QAAAAV01@H@Z 00026b4c f i PanelBluetoothWrapper.obj
 0001:00015ba4       ??Y?$_Vector_const_iterator@UstrDeviceInfo@@V?$allocator@UstrDeviceInfo@@@std@@@std@@QAAAAV01@H@Z 00026ba4 f i PanelBluetoothWrapper.obj
 0001:00015bfc       ??$_Allocate@UstrPhoneNum@@@std@@YAPAUstrPhoneNum@@IPAU1@@Z 00026bfc f i PanelBluetoothWrapper.obj
 0001:00015c6c       ?Open@CReg@@QAAHPAUHKEY__@@PB_WK@Z 00026c6c f i PanelBluetoothWrapper.obj
 0001:00015cd4       ?Play@CPanelBluetoothWrapper@@AAAXXZ 00026cd4 f   PanelBluetoothWrapper.obj
 0001:00015d04       ?IniBTModule@CPanelBluetoothWrapper@@QAAHXZ 00026d04 f   PanelBluetoothWrapper.obj
 0001:00015ddc       ?SetBTPower@CPanelBluetoothWrapper@@QAAHH@Z 00026ddc f   PanelBluetoothWrapper.obj
 0001:00015ee8       ?OnSRCChanged@CPanelBluetoothWrapper@@UAAXI@Z 00026ee8 f   PanelBluetoothWrapper.obj
 0001:00015fb0       ?OnNotifyA2dpConnected@CPanelBluetoothWrapper@@QAAXH@Z 00026fb0 f   PanelBluetoothWrapper.obj
 0001:00016114       ?OnNotifyAudioTransferMode@CPanelBluetoothWrapper@@QAAXW4AUDIO_TRANSFER_MODE@@@Z 00027114 f   PanelBluetoothWrapper.obj
 0001:000161dc       ?BTTimerProc@CPanelBluetoothWrapper@@SAXPAUHWND__@@IIK@Z 000271dc f   PanelBluetoothWrapper.obj
 0001:00016894       ?OnCarPlayMsg@CPanelBluetoothWrapper@@QAAXIJ@Z 00027894 f   PanelBluetoothWrapper.obj
 0001:00016a9c       ?OnAndriodAutoConnectStatus@CPanelBluetoothWrapper@@QAAXH@Z 00027a9c f   PanelBluetoothWrapper.obj
 0001:00016ad0       ??$_Copy_backward_opt@PAUstrPhoneNum@@PAU1@@std@@YAPAUstrPhoneNum@@PAU1@00Urandom_access_iterator_tag@0@U_Nonscalar_ptr_iterator_tag@0@U_Range_checked_iterator_tag@0@@Z 00027ad0 f i PanelBluetoothWrapper.obj
 0001:00016b30       ??$_Uninit_copy@PAUstrPhoneNum@@PAU1@V?$allocator@UstrPhoneNum@@@std@@@std@@YAPAUstrPhoneNum@@PAU1@00AAV?$allocator@UstrPhoneNum@@@0@U_Nonscalar_ptr_iterator_tag@0@U_Range_checked_iterator_tag@0@@Z 00027b30 f i PanelBluetoothWrapper.obj
 0001:00016b70       ?PreparePlay@CPanelBluetoothWrapper@@AAAXXZ 00027b70 f   PanelBluetoothWrapper.obj
 0001:00016bd8       ?PreparePause@CPanelBluetoothWrapper@@AAAXXZ 00027bd8 f   PanelBluetoothWrapper.obj
 0001:00016c0c       ?Initialize@CPanelBluetoothWrapper@@UAAHIPAVCPanelGL@@PAVCSkinManagerGL@@PAVCTextGL@@PAUHWND__@@U_TMODULEENTRY@@@Z 00027c0c f   PanelBluetoothWrapper.obj
 0001:00016d1c       ?OnKey@CPanelBluetoothWrapper@@UAAHII@Z 00027d1c f   PanelBluetoothWrapper.obj
 0001:00016fa8       ?OnIniStatus@CPanelBluetoothWrapper@@QAAXH@Z 00027fa8 f   PanelBluetoothWrapper.obj
 0001:000170e4       ?OnNotifyHfpConnected@CPanelBluetoothWrapper@@QAAXH@Z 000280e4 f   PanelBluetoothWrapper.obj
 0001:000171f0       ?OnNotifyAudioSourceState@CPanelBluetoothWrapper@@QAAXW4AUDIO_SOURCE@@W4AUDIO_STATE@@@Z 000281f0 f   PanelBluetoothWrapper.obj
 0001:0001743c       ?OnNotifyA2dpPlayState@CPanelBluetoothWrapper@@QAAXW4PLAYER_STATE@@@Z 0002843c f   PanelBluetoothWrapper.obj
 0001:00017534       ??H?$_Vector_iterator@UContactInfo@@V?$allocator@UContactInfo@@@std@@@std@@QBA?AV01@H@Z 00028534 f i PanelBluetoothWrapper.obj
 0001:00017578       ??H?$_Vector_iterator@UstrCallLog@@V?$allocator@UstrCallLog@@@std@@@std@@QBA?AV01@H@Z 00028578 f i PanelBluetoothWrapper.obj
 0001:000175bc       ??H?$_Vector_iterator@UstrDeviceInfo@@V?$allocator@UstrDeviceInfo@@@std@@@std@@QBA?AV01@H@Z 000285bc f i PanelBluetoothWrapper.obj
 0001:00017600       ??$_Uninit_fill_n@PAUstrPhoneNum@@IU1@V?$allocator@UstrPhoneNum@@@std@@@std@@YAXPAUstrPhoneNum@@IABU1@AAV?$allocator@UstrPhoneNum@@@0@U_Nonscalar_ptr_iterator_tag@0@U_Range_checked_iterator_tag@0@@Z 00028600 f i PanelBluetoothWrapper.obj
 0001:00017640       ??0CPanelBluetoothWrapper@@QAA@XZ 00028640 f   PanelBluetoothWrapper.obj
 0001:0001783c       ??1CPanelBluetoothWrapper@@UAA@XZ 0002883c f   PanelBluetoothWrapper.obj
 0001:000178b8       ??_GCPanelBluetoothWrapper@@UAAPAXI@Z 000288b8 f i PanelBluetoothWrapper.obj
 0001:000178b8       ??_ECPanelBluetoothWrapper@@UAAPAXI@Z 000288b8 f i PanelBluetoothWrapper.obj
 0001:000178dc       ?_Ufill@?$vector@UstrPhoneNum@@V?$allocator@UstrPhoneNum@@@std@@@std@@IAAPAUstrPhoneNum@@PAU3@IABU3@@Z 000288dc f i PanelBluetoothWrapper.obj
 0001:0001792c       ??$_Umove@PAUstrPhoneNum@@@?$vector@UstrPhoneNum@@V?$allocator@UstrPhoneNum@@@std@@@std@@IAAPAUstrPhoneNum@@PAU2@00@Z 0002892c f i PanelBluetoothWrapper.obj
 0001:00017974       ??1length_error@std@@UAA@XZ 00028974 f i PanelBluetoothWrapper.obj
 0001:00017974       ??1out_of_range@std@@UAA@XZ 00028974 f i PanelBluetoothMain.obj
 0001:000179a8       ?_Xran@?$vector@UContactInfo@@V?$allocator@UContactInfo@@@std@@@std@@KAXXZ 000289a8 f i PanelBluetoothWrapper.obj
 0001:000179a8       ?_Xran@?$vector@UstrCallLog@@V?$allocator@UstrCallLog@@@std@@@std@@KAXXZ 000289a8 f i PanelBluetoothWrapper.obj
 0001:000179a8       ?_Xran@?$vector@UMsgData@@V?$allocator@UMsgData@@@std@@@std@@KAXXZ 000289a8 f i GUI_Fantasy.obj
 0001:000179a8       ?_Xran@?$vector@UstrDeviceInfo@@V?$allocator@UstrDeviceInfo@@@std@@@std@@KAXXZ 000289a8 f i PanelBluetoothWrapper.obj
 0001:000179a8       ?_Xran@?$vector@UstrPhoneNum@@V?$allocator@UstrPhoneNum@@@std@@@std@@KAXXZ 000289a8 f i PanelBluetoothMain.obj
 0001:00017a14       ??0length_error@std@@QAA@ABV01@@Z 00028a14 f i PanelBluetoothWrapper.obj
 0001:00017a34       ?at@?$vector@UContactInfo@@V?$allocator@UContactInfo@@@std@@@std@@QAAAAUContactInfo@@I@Z 00028a34 f i PanelBluetoothWrapper.obj
 0001:00017ac4       ?at@?$vector@UstrCallLog@@V?$allocator@UstrCallLog@@@std@@@std@@QAAAAUstrCallLog@@I@Z 00028ac4 f i PanelBluetoothWrapper.obj
 0001:00017b50       ?at@?$vector@UstrDeviceInfo@@V?$allocator@UstrDeviceInfo@@@std@@@std@@QAAAAUstrDeviceInfo@@I@Z 00028b50 f i PanelBluetoothWrapper.obj
 0001:00017be8       ?_Insert_n@?$vector@UstrPhoneNum@@V?$allocator@UstrPhoneNum@@@std@@@std@@IAAXV?$_Vector_iterator@UstrPhoneNum@@V?$allocator@UstrPhoneNum@@@std@@@2@IABUstrPhoneNum@@@Z 00028be8 f i PanelBluetoothWrapper.obj
 0001:00017f18       ?OnBluetoothCommand@CPanelBluetoothWrapper@@QAAXIJ@Z 00028f18 f   PanelBluetoothWrapper.obj
 0001:00018548       ?OnNotifyCallStatus@CPanelBluetoothWrapper@@QAAXPAUstrCallStatus@@@Z 00029548 f   PanelBluetoothWrapper.obj
 0001:00018860       ?SaveContactToFile@CPanelBluetoothWrapper@@AAAXPAUContactInfo@@PAX@Z 00029860 f   PanelBluetoothWrapper.obj
 0001:0001890c       ?OnNotifyCallLogChanged@CPanelBluetoothWrapper@@QAAXXZ 0002990c f   PanelBluetoothWrapper.obj
 0001:00018a0c       ?IsDevicePaired@CPanelBluetoothWrapper@@QAAHPA_W@Z 00029a0c f   PanelBluetoothWrapper.obj
 0001:00018a90       ?insert@?$vector@UstrPhoneNum@@V?$allocator@UstrPhoneNum@@@std@@@std@@QAA?AV?$_Vector_iterator@UstrPhoneNum@@V?$allocator@UstrPhoneNum@@@std@@@2@V32@ABUstrPhoneNum@@@Z 00029a90 f i PanelBluetoothWrapper.obj
 0001:00018b58       ?OnNotifyPhoneBookChanged@CPanelBluetoothWrapper@@QAAXXZ 00029b58 f   PanelBluetoothWrapper.obj
 0001:00018e20       ?push_back@?$vector@UstrPhoneNum@@V?$allocator@UstrPhoneNum@@@std@@@std@@QAAXABUstrPhoneNum@@@Z 00029e20 f i PanelBluetoothWrapper.obj
 0001:00018ed4       ?LoadStoredPhonebook@CPanelBluetoothWrapper@@AAAHPB_W@Z 00029ed4 f   PanelBluetoothWrapper.obj
 0001:000191e0       ?OnNotifyDeviceListChanged@CPanelBluetoothWrapper@@QAAXXZ 0002a1e0 f   PanelBluetoothWrapper.obj
 0001:000194a0       ?OnNotifyPairResult@CPanelBluetoothWrapper@@QAAXW4PAIR_RESULT@@@Z 0002a4a0 f   PanelBluetoothWrapper.obj
 0001:000194dc       ?OnBluetoothMsg@CPanelBluetoothWrapper@@QAAXIJ@Z 0002a4dc f   PanelBluetoothWrapper.obj
 0001:00019a74       ?SwitchPage@@YAHIIW4PAGE_ANI_ID@@IPAXH@Z 0002aa74 f   ui_common.obj
 0001:00019af8       ?IsPanelHasValidAudioSrc@@YAHI@Z 0002aaf8 f   ui_common.obj
 0001:00019b54       ?GetPanelAudioSrc@@YAII@Z  0002ab54 f   ui_common.obj
 0001:00019bbc       ?SetNativeNaviSpeechVolume@@YAHK@Z 0002abbc f   ui_common.obj
 0001:00019ce4       ?DuckNativeNaviSpeech@@YAHW4DUCK_STATUS@@@Z 0002ace4 f   ui_common.obj
 0001:00019d30       ?EnableNaviSpeech@@YAHH@Z  0002ad30 f   ui_common.obj
 0001:00019d9c       ?GetResourceString@@YAPB_WII@Z 0002ad9c f   ui_common.obj
 0001:00019ddc       ?ShowKeyboard@@YAXIP6AXKKKPAX0@Z0IPB_W2IH@Z 0002addc f   ui_common.obj
 0001:00019e54       ?ShowExplorer@@YAXIP6AXKKKPAX0@Z0PB_W22@Z 0002ae54 f   ui_common.obj
 0001:00019ebc       ?ShowPasswordBox@@YAXPAUHWND__@@IP6AXKKKPAX1@Z1IPB_W3IHK@Z 0002aebc f   ui_common.obj
 0001:00019f3c       ?ShowNotificationBox@@YAXPAUHWND__@@IP6AXKKKPAX1@Z1IPB_W3IHK@Z 0002af3c f   ui_common.obj
 0001:00019fbc       ?HideNotificationBox@@YAXPAUHWND__@@@Z 0002afbc f   ui_common.obj
 0001:00019fe8       ?SendMediaCommand@@YAXIJ@Z 0002afe8 f   ui_common.obj
 0001:0001a01c       ?SendBluetoothCommand@@YAXIJ@Z 0002b01c f   ui_common.obj
 0001:0001a050       ?SendRadioCommand@@YAXIJ@Z 0002b050 f   ui_common.obj
 0001:0001a084       ?SendiPodCommand@@YAXIJ@Z  0002b084 f   ui_common.obj
 0001:0001a0b8       ?SendFactoryCommand@@YAXIJ@Z 0002b0b8 f   ui_common.obj
 0001:0001a0ec       ?GetAudioSRC@@YAIXZ        0002b0ec f   ui_common.obj
 0001:0001a120       ?SwitchAudioSRC@@YAHIHIH@Z 0002b120 f   ui_common.obj
 0001:0001a15c       ?MuteAudio@@YAXHHIHI@Z     0002b15c f   ui_common.obj
 0001:0001a19c       ?SwitchMediaClassSRC@@YAHII@Z 0002b19c f   ui_common.obj
 0001:0001a204       ?GetCurrentSrcPlayingStatus@@YAHXZ 0002b204 f   ui_common.obj
 0001:0001a254       ?GetCurrentMuteStatus@@YAHXZ 0002b254 f   ui_common.obj
 0001:0001a2a4       ?PlaySoundEffect@@YAHI@Z   0002b2a4 f   ui_common.obj
 0001:0001a328       ?GetBuildDateTime@@YAXPAUBuildDateTime@@@Z 0002b328 f   ui_common.obj
 0001:0001a400       ?IsUseDST@@YAHAAU_TIME_ZONE_INFORMATION@@AAU_SYSTEMTIME@@@Z 0002b400 f   ui_common.obj
 0001:0001a560       ?CRC32@@YAIIPBXI@Z         0002b560 f   ui_common.obj
 0001:0001a5a8       ?IsValidMcuUpdateFile@@YAHPB_W0@Z 0002b5a8 f   ui_common.obj
 0001:0001a7bc       ?GetLanguageCodePage@@YA?AW4MYCODEPAGE@UTIL@@I@Z 0002b7bc f   ui_common.obj
 0001:0001a7cc       ?IsPanelAutoSwitchMediaSRC@@YAHI@Z 0002b7cc f   ui_common.obj
 0001:0001a804       ?IsPanelAutoUnMute@@YAHI@Z 0002b804 f   ui_common.obj
 0001:0001a844       ??0CGridGL@@QAA@XZ         0002b844 f   GridGL.obj
 0001:0001aa8c       ??1CGridGL@@UAA@XZ         0002ba8c f   GridGL.obj
 0001:0001ac94       ?Initialize@CGridGL@@QAAHIPAVCControlGL@@PAVCSkinManagerGL@@PAVCTextGL@@@Z 0002bc94 f   GridGL.obj
 0001:0001afcc       ?Render@CGridGL@@UAAXXZ    0002bfcc f   GridGL.obj
 0001:0001b144       ?Enable@CGridGL@@UAAXH@Z   0002c144 f   GridGL.obj
 0001:0001b150       ?IsPtnOnObject@CGridGL@@UAAHPAUtagPOINT@@@Z 0002c150 f   GridGL.obj
 0001:0001b1f4       ?OnTouchDown@CGridGL@@UAAXPAUtagPOINT@@@Z 0002c1f4 f   GridGL.obj
 0001:0001b31c       ?SetPos@CGridGL@@UAAXMMMH@Z 0002c31c f   GridGL.obj
 0001:0001b554       ?IsReady@CGridGL@@UAAHXZ   0002c554 f   GridGL.obj
 0001:0001b5e4       ?SetMargin@CGridGL@@QAAXH@Z 0002c5e4 f   GridGL.obj
 0001:0001b5f0       ?SetValue@CGridGL@@IAAXHHH@Z 0002c5f0 f   GridGL.obj
 0001:0001b900       ??_GCGridGL@@UAAPAXI@Z     0002c900 f i GridGL.obj
 0001:0001b900       ??_ECGridGL@@UAAPAXI@Z     0002c900 f i GridGL.obj
 0001:0001b924       ?OnTouchUp@CGridGL@@UAAXPAUtagPOINT@@@Z 0002c924 f   GridGL.obj
 0001:0001bab8       ?OnTouchMove@CGridGL@@UAAXPAUtagPOINT@@@Z 0002cab8 f   GridGL.obj
 0001:0001bca4       ?SetValueX@CGridGL@@QAAXH@Z 0002cca4 f   GridGL.obj
 0001:0001bcb4       ?SetValueY@CGridGL@@QAAXH@Z 0002ccb4 f   GridGL.obj
 0001:0001bcd0       ??0CRadarBar@@QAA@XZ       0002ccd0 f   RadarBar.obj
 0001:0001be08       ??1CRadarBar@@UAA@XZ       0002ce08 f   RadarBar.obj
 0001:0001beec       ?IsReady@CRadarBar@@UAAHXZ 0002ceec f   RadarBar.obj
 0001:0001beec       ?IsReady@CPanelVehicleInfoRadar@@UAAHXZ 0002ceec f   PanelVehicleInfoRadar.obj
 0001:0001beec       ?IsReady@CQRBarGL@@UAAHXZ  0002ceec f   FantasyLib:QRBarGL.obj
 0001:0001beec       ?IsReady@CMediaPlayingFlagBar@@UAAHXZ 0002ceec f   MediaPlayingFlagBar.obj
 0001:0001bef0       ?SetRadarSingal@CRadarBar@@QAAXHH@Z 0002cef0 f   RadarBar.obj
 0001:0001c348       ?Render@CRadarBar@@UAAXXZ  0002d348 f   RadarBar.obj
 0001:0001c400       ?Initialize@CRadarBar@@QAAHIPAVCPanelGL@@PAVCSkinManagerGL@@PAVCTextGL@@PAUHWND__@@U_TMODULEENTRY@@@Z 0002d400 f   RadarBar.obj
 0001:0001c62c       ??_GCRadarBar@@UAAPAXI@Z   0002d62c f i RadarBar.obj
 0001:0001c62c       ??_ECRadarBar@@UAAPAXI@Z   0002d62c f i RadarBar.obj
 0001:0001c650       ??0CSmartBar@@QAA@XZ       0002d650 f   SmartBar.obj
 0001:0001c6dc       ?OnTimeOut@CSmartBar@@IAAHXZ 0002d6dc f   SmartBar.obj
 0001:0001c724       ?OnUpdateFrame@CSmartBar@@IAAHXZ 0002d724 f   SmartBar.obj
 0001:0001c76c       ?EnableShow@CSmartBar@@QAAXH@Z 0002d76c f   SmartBar.obj
 0001:0001c7a0       ?DrawStringGDI@CSmartBar@@IAAXPAUIDirectDrawSurface@@PB_WPAUtagRECT@@IHK@Z 0002d7a0 f   SmartBar.obj
 0001:0001c9ec       ?ReleaseSurface@CSmartBar@@IAAXPAUIDirectDrawSurface@@@Z 0002d9ec f   SmartBar.obj
 0001:0001ca08       ?ReleaseDDraw@CSmartBar@@IAAXXZ 0002da08 f   SmartBar.obj
 0001:0001ca6c       ?ReleaseOverlay@CSmartBar@@IAAHXZ 0002da6c f   SmartBar.obj
 0001:0001caec       ??1CSmartBar@@UAA@XZ       0002daec f   SmartBar.obj
 0001:0001cb30       ?InitializeDDraw@CSmartBar@@IAAHXZ 0002db30 f   SmartBar.obj
 0001:0001cc64       ?InitializeOverlay@CSmartBar@@IAAHXZ 0002dc64 f   SmartBar.obj
 0001:0001cec0       ?FillSurface@CSmartBar@@IAAHPAPAUIDirectDrawSurface@@PBEHHH@Z 0002dec0 f   SmartBar.obj
 0001:0001d090       ??_ECSmartBar@@UAAPAXI@Z   0002e090 f i SmartBar.obj
 0001:0001d090       ??_GCSmartBar@@UAAPAXI@Z   0002e090 f i SmartBar.obj
 0001:0001d0b4       ?Show@CSmartBar@@UAAHHI@Z  0002e0b4 f   SmartBar.obj
 0001:0001d22c       ?SmartBarWndProc@CSmartBar@@KAJPAUHWND__@@IIJ@Z 0002e22c f   SmartBar.obj
 0001:0001d4e4       ?Initialize@CSmartBar@@UAAHPAVCSkinManagerGL@@IPAUHWND__@@PAUHINSTANCE__@@HHHHHPB_WHHHH@Z 0002e4e4 f   SmartBar.obj
 0001:0001d640       ??0CSmartBarDrop@@QAA@XZ   0002e640 f   SmartBarDrop.obj
 0001:0001d674       ?Initialize@CSmartBarDrop@@QAAHPAVCSkinManagerGL@@IPAUHWND__@@PAUHINSTANCE__@@@Z 0002e674 f   SmartBarDrop.obj
 0001:0001d710       ?LoadRes@CSmartBarDrop@@MAAHPB_W@Z 0002e710 f   SmartBarDrop.obj
 0001:0001d8d0       ?OnTouchDown@CSmartBarDrop@@UAAXPAUtagPOINT@@@Z 0002e8d0 f   SmartBarDrop.obj
 0001:0001d964       ?OnTouchUp@CSmartBarDrop@@UAAXPAUtagPOINT@@@Z 0002e964 f   SmartBarDrop.obj
 0001:0001d9bc       ?Render@CSmartBarDrop@@MAAXXZ 0002e9bc f   SmartBarDrop.obj
 0001:0001dab8       ??_GCSmartBarDrop@@UAAPAXI@Z 0002eab8 f i SmartBarDrop.obj
 0001:0001dab8       ??_ECSmartBarDrop@@UAAPAXI@Z 0002eab8 f i SmartBarDrop.obj
 0001:0001daf0       ??0CSmartBarMedia@@QAA@XZ  0002eaf0 f   SmartBarMedia.obj
 0001:0001dbd0       ??1CSmartBarMedia@@UAA@XZ  0002ebd0 f   SmartBarMedia.obj
 0001:0001dc44       ?Initialize@CSmartBarMedia@@QAAHPAVCSkinManagerGL@@IPAUHWND__@@PAUHINSTANCE__@@@Z 0002ec44 f   SmartBarMedia.obj
 0001:0001dcfc       ?LoadRes@CSmartBarMedia@@MAAHPB_W@Z 0002ecfc f   SmartBarMedia.obj
 0001:0001e114       ?DrawChar@CSmartBarMedia@@MAAXPAUIDirectDrawSurface@@_WHHPAUtagSIZE@@@Z 0002f114 f   SmartBarMedia.obj
 0001:0001e300       ?ReleaseRes@CSmartBarMedia@@MAAXXZ 0002f300 f   SmartBarMedia.obj
 0001:0001e3d4       ?Render@CSmartBarMedia@@MAAXXZ 0002f3d4 f   SmartBarMedia.obj
 0001:0001e960       ?OnTouchDown@CSmartBarMedia@@UAAXPAUtagPOINT@@@Z 0002f960 f   SmartBarMedia.obj
 0001:0001eb3c       ?OnTouchUp@CSmartBarMedia@@UAAXPAUtagPOINT@@@Z 0002fb3c f   SmartBarMedia.obj
 0001:0001ed08       ?OnTouchMove@CSmartBarMedia@@UAAXPAUtagPOINT@@@Z 0002fd08 f   SmartBarMedia.obj
 0001:0001ed40       ??_ECSmartBarMedia@@UAAPAXI@Z 0002fd40 f i SmartBarMedia.obj
 0001:0001ed40       ??_GCSmartBarMedia@@UAAPAXI@Z 0002fd40 f i SmartBarMedia.obj
 0001:0001ed6c       ??0CSmartBarPhone@@QAA@XZ  0002fd6c f   SmartBarPhone.obj
 0001:0001ee0c       ??1CSmartBarPhone@@UAA@XZ  0002fe0c f   SmartBarPhone.obj
 0001:0001ee5c       ?SetAudioDir@CSmartBarPhone@@QAAXI@Z 0002fe5c f   SmartBarPhone.obj
 0001:0001ee6c       ?SetType@CSmartBarPhone@@QAAXW4SMARTBAR_PHONE_TYPE@@@Z 0002fe6c f   SmartBarPhone.obj
 0001:0001ee7c       ?SetPhoneNumber@CSmartBarPhone@@QAAXPB_W@Z 0002fe7c f   SmartBarPhone.obj
 0001:0001ee98       ?Initialize@CSmartBarPhone@@QAAHPAVCSkinManagerGL@@IPAUHWND__@@PAUHINSTANCE__@@@Z 0002fe98 f   SmartBarPhone.obj
 0001:0001ef34       ?LoadRes@CSmartBarPhone@@MAAHPB_W@Z 0002ff34 f   SmartBarPhone.obj
 0001:0001f22c       ?ReleaseRes@CSmartBarPhone@@MAAXXZ 0003022c f   SmartBarPhone.obj
 0001:0001f354       ?OnTouchDown@CSmartBarPhone@@UAAXPAUtagPOINT@@@Z 00030354 f   SmartBarPhone.obj
 0001:0001f520       ?OnTouchUp@CSmartBarPhone@@UAAXPAUtagPOINT@@@Z 00030520 f   SmartBarPhone.obj
 0001:0001f730       ?Render@CSmartBarPhone@@MAAXXZ 00030730 f   SmartBarPhone.obj
 0001:0001fd98       ??_ECSmartBarPhone@@UAAPAXI@Z 00030d98 f i SmartBarPhone.obj
 0001:0001fd98       ??_GCSmartBarPhone@@UAAPAXI@Z 00030d98 f i SmartBarPhone.obj
 0001:0001fdc4       ??0CSmartBarTopBanner@@QAA@XZ 00030dc4 f   SmartBarTopBanner.obj
 0001:0001fe38       ??1CSmartBarTopBanner@@UAA@XZ 00030e38 f   SmartBarTopBanner.obj
 0001:0001fe88       ?Initialize@CSmartBarTopBanner@@QAAHPAVCSkinManagerGL@@IPAUHWND__@@PAUHINSTANCE__@@@Z 00030e88 f   SmartBarTopBanner.obj
 0001:0001ff14       ?LoadRes@CSmartBarTopBanner@@MAAHPB_W@Z 00030f14 f   SmartBarTopBanner.obj
 0001:00020104       ?ReleaseRes@CSmartBarDrop@@MAAXXZ 00031104 f   SmartBarDrop.obj
 0001:00020104       ?ReleaseRes@CSmartBarTopBanner@@MAAXXZ 00031104 f   SmartBarTopBanner.obj
 0001:0002014c       ?OnTouchDown@CSmartBarTopBanner@@UAAXPAUtagPOINT@@@Z 0003114c f   SmartBarTopBanner.obj
 0001:00020198       ?OnTouchUp@CSmartBarTopBanner@@UAAXPAUtagPOINT@@@Z 00031198 f   SmartBarTopBanner.obj
 0001:00020234       ?SetTitle@CSmartBarTopBanner@@QAAXPB_W@Z 00031234 f   SmartBarTopBanner.obj
 0001:0002023c       ?SetNotificationUI@CSmartBarTopBanner@@QAAXI@Z 0003123c f   SmartBarTopBanner.obj
 0001:00020244       ?Render@CSmartBarTopBanner@@MAAXXZ 00031244 f   SmartBarTopBanner.obj
 0001:00020364       ??_ECSmartBarTopBanner@@UAAPAXI@Z 00031364 f i SmartBarTopBanner.obj
 0001:00020364       ??_GCSmartBarTopBanner@@UAAPAXI@Z 00031364 f i SmartBarTopBanner.obj
 0001:00020388       ??0CSmartBarVol@@QAA@XZ    00031388 f   SmartBarVol.obj
 0001:000203f0       ?SetMute@CSmartBarVol@@QAAXH@Z 000313f0 f   SmartBarVol.obj
 0001:00020400       ?SetVolume@CSmartBarVol@@QAAXKI@Z 00031400 f   SmartBarVol.obj
 0001:00020458       ?Initialize@CSmartBarVol@@QAAHPAVCSkinManagerGL@@IPAUHWND__@@PAUHINSTANCE__@@@Z 00031458 f   SmartBarVol.obj
 0001:00020514       ?LoadRes@CSmartBarVol@@MAAHPB_W@Z 00031514 f   SmartBarVol.obj
 0001:000207cc       ?DrawChar@CSmartBarVol@@MAAXPAUIDirectDrawSurface@@_WHHPAUtagSIZE@@@Z 000317cc f   SmartBarVol.obj
 0001:000207cc       ?DrawChar@CSmartBarPhone@@MAAXPAUIDirectDrawSurface@@_WHHPAUtagSIZE@@@Z 000317cc f   SmartBarPhone.obj
 0001:000209a8       ?ReleaseRes@CSmartBarVol@@MAAXXZ 000319a8 f   SmartBarVol.obj
 0001:00020a98       ?Show@CSmartBarVol@@UAAHHI@Z 00031a98 f   SmartBarVol.obj
 0001:00020ab4       ?Render@CSmartBarVol@@MAAXXZ 00031ab4 f   SmartBarVol.obj
 0001:00020e5c       ?SetEQType@CSmartBarVol@@QAAXI@Z 00031e5c f   SmartBarVol.obj
 0001:00020e64       ??_GCSmartBarVol@@UAAPAXI@Z 00031e64 f i SmartBarVol.obj
 0001:00020e64       ??_ECSmartBarVol@@UAAPAXI@Z 00031e64 f i SmartBarVol.obj
 0001:00020e9c       ??0CStatusBarEx@@QAA@XZ    00031e9c f   StatusBarEx.obj
 0001:00021204       ?SetTitle@CStatusBarEx@@UAAXPB_W@Z 00032204 f i StatusBarEx.obj
 0001:00021218       ?SetWiFiPowerON@CStatusBarEx@@UAAXH@Z 00032218 f i StatusBarEx.obj
 0001:00021248       ??1CStatusBarEx@@UAA@XZ    00032248 f   StatusBarEx.obj
 0001:00021558       ?Initialize@CStatusBarEx@@QAAHIPAVCPanelGL@@PAVCSkinManagerGL@@PAVCTextGL@@PAUHWND__@@U_TMODULEENTRY@@@Z 00032558 f   StatusBarEx.obj
 0001:00021b80       ?Show@CStatusBarEx@@UAAXHH@Z 00032b80 f   StatusBarEx.obj
 0001:00021b88       ?IsReady@CStatusBarEx@@UAAHXZ 00032b88 f   StatusBarEx.obj
 0001:00021bd8       ?OnTouchDown@CStatusBarEx@@UAAXPAUtagPOINT@@@Z 00032bd8 f   StatusBarEx.obj
 0001:00021c04       ?OnTouchUp@CStatusBarEx@@UAAXPAUtagPOINT@@@Z 00032c04 f   StatusBarEx.obj
 0001:00021c5c       ?SetTimeMode@CStatusBarEx@@UAAXI@Z 00032c5c f   StatusBarEx.obj
 0001:00021fa0       ?SetAFStatus@CStatusBarEx@@UAAXW4RDS_STATUS@@@Z 00032fa0 f   StatusBarEx.obj
 0001:00021fac       ?SetBTStatus@CStatusBarEx@@UAAXKKK@Z 00032fac f   StatusBarEx.obj
 0001:000221bc       ?SetTAStatus@CStatusBarEx@@UAAXW4RDS_STATUS@@@Z 000331bc f   StatusBarEx.obj
 0001:000222a0       ?SetVolume@CStatusBarEx@@QAAXK@Z 000332a0 f   StatusBarEx.obj
 0001:00022304       ?SetEQ@CStatusBarEx@@QAAXI@Z 00033304 f   StatusBarEx.obj
 0001:0002232c       ?SetWiFiStatus@CStatusBarEx@@UAAXW4WIFI_STATUS@@@Z 0003332c f   StatusBarEx.obj
 0001:0002246c       ?UpdateTime@CStatusBarEx@@AAAXXZ 0003346c f   StatusBarEx.obj
 0001:00022614       ??_GCStatusBarEx@@UAAPAXI@Z 00033614 f i StatusBarEx.obj
 0001:00022614       ??_ECStatusBarEx@@UAAPAXI@Z 00033614 f i StatusBarEx.obj
 0001:00022638       ?Render@CStatusBarEx@@UAAXXZ 00033638 f   StatusBarEx.obj
 0001:0002290c       ??0CPanelHomePage@@QAA@XZ  0003390c f   PanelHome.obj
 0001:000229a0       ??1CPanelHomePage@@UAA@XZ  000339a0 f   PanelHome.obj
 0001:00022a1c       ?Render@CPanelHomePage@@UAAXXZ 00033a1c f   PanelHome.obj
 0001:00022b5c       ?Initialize@CPanelHomePage@@UAAHIPAVCPanelGL@@PAVCSkinManagerGL@@PAVCTextGL@@PAUHWND__@@U_TMODULEENTRY@@@Z 00033b5c f   PanelHome.obj
 0001:00022ec4       ?OnAvailableSourceChanged@CPanelHomePage@@QAAXIJ@Z 00033ec4 f   PanelHome.obj
 0001:00022ecc       ?GetWidget@CPanelHomePage@@QAAPAVCWidgetGL@@I@Z 00033ecc f   PanelHome.obj
 0001:00022ed4       ?OnCanbusStatus@CPanelHomePage@@QAAXIJ@Z 00033ed4 f   PanelHome.obj
 0001:00022ee4       ?OnWidgetChanged@CPanelHomePage@@QAAXIJ@Z 00033ee4 f   PanelHome.obj
 0001:00022eec       ?OperateWidget@CPanelHomePage@@QAAXIIIPAX@Z 00033eec f   PanelHome.obj
 0001:00022f0c       ?OnTouchUp@CPanelVehicleInfoWrapper@@UAAXPAUtagPOINT@@@Z 00033f0c f   PanelVehicleInfoWrapper.obj
 0001:00022f0c       ?OnTouchUp@CPanelHomePage@@UAAXPAUtagPOINT@@@Z 00033f0c f   PanelHome.obj
 0001:00022f40       ?OnPhoneCallState@CPanelHomePage@@UAAXIJ@Z 00033f40 f   PanelHome.obj
 0001:00022f64       ?IsReady@CPanelVehicleInfoWrapper@@UAAHXZ 00033f64 f   PanelVehicleInfoWrapper.obj
 0001:00022f64       ?IsReady@CPanelHomePage@@UAAHXZ 00033f64 f   PanelHome.obj
 0001:00022fbc       ?IsAniReady@CPanelHomePage@@UAAHXZ 00033fbc f   PanelHome.obj
 0001:00023014       ?OnBack@CPanelHomePage@@UAAXXZ 00034014 f   PanelHome.obj
 0001:0002304c       ??_ECPanelHomePage@@UAAPAXI@Z 0003404c f i PanelHome.obj
 0001:0002304c       ??_GCPanelHomePage@@UAAPAXI@Z 0003404c f i PanelHome.obj
 0001:00023070       ?OnCanbusStatus@CPanelWidget@@QAAXIJ@Z 00034070 f   PanelWidget.obj
 0001:00023078       ?OnKey@CPanelHomePage@@UAAHII@Z 00034078 f   PanelHome.obj
 0001:00023078       ?OnKey@CPanelWidget@@UAAHII@Z 00034078 f   PanelWidget.obj
 0001:00023078       ?codec_SetHFStatus@CAudioCodecST7418AIC3254@@MAAHW4AspHFStatus@@@Z 00034078 f   AudioCodecST7418AIC3254.obj
 0001:00023078       ?codec_ChangeWorkMode@CAudioCodecST7418AIC3254@@MAAHW4AspMode@@@Z 00034078 f   AudioCodecST7418AIC3254.obj
 0001:00023080       ?OnGesture@CPanelHomePage@@UAAXPAUtagGESTUREINFO@@@Z 00034080 f   PanelHome.obj
 0001:00023080       ?OnGesture@CPanelWidget@@UAAXPAUtagGESTUREINFO@@@Z 00034080 f   PanelWidget.obj
 0001:00023090       ?OperateControl@CWidgetMediaCore@@UAAXIIPAX@Z 00034090 f   PanelWidget.obj
 0001:00023270       ?HandleControlMSG@CWidgetMediaCore@@IAAXKKKPAX@Z 00034270 f   PanelWidget.obj
 0001:000234a0       ?OperateControl@CWidgetRadioCore@@UAAXIIPAX@Z 000344a0 f   PanelWidget.obj
 0001:00023620       ?HandleControlMSG@CWidgetRadioCore@@IAAXKKKPAX@Z 00034620 f   PanelWidget.obj
 0001:0002379c       ?OperateControl@CWidgetPhoneCore@@UAAXIIPAX@Z 0003479c f   PanelWidget.obj
 0001:00023800       ?OperateControl@CWidgetA2DP@@UAAXIIPAX@Z 00034800 f   PanelWidget.obj
 0001:00023878       ?OperateControl@CWidgetNaviCore@@UAAXIIPAX@Z 00034878 f   PanelWidget.obj
 0001:000238a4       ?OperateControl@CWidgetTVCore@@UAAXIIPAX@Z 000348a4 f   PanelWidget.obj
 0001:000238d0       ?OperateControl@CWidgetSettingCore@@UAAXIIPAX@Z 000348d0 f   PanelWidget.obj
 0001:00023900       ?OperateControl@CWidgetAUXCore@@UAAXIIPAX@Z 00034900 f   PanelWidget.obj
 0001:00023900       ?OperateControl@CWidgetISDBCore@@UAAXIIPAX@Z 00034900 f   PanelWidget.obj
 0001:00023950       ?OperateControl@CWidgetUSB@@UAAXIIPAX@Z 00034950 f   PanelWidget.obj
 0001:00023950       ?OperateControl@CWidgetSD@@UAAXIIPAX@Z 00034950 f   PanelWidget.obj
 0001:000239c8       ?OperateControl@CWidgetiPod@@UAAXIIPAX@Z 000349c8 f   PanelWidget.obj
 0001:00023a88       ?OperateControl@CWidgetCarPlay@@UAAXIIPAX@Z 00034a88 f   PanelWidget.obj
 0001:00023b44       ?OperateControl@CWidgetPhoneLink@@UAAXIIPAX@Z 00034b44 f   PanelWidget.obj
 0001:00023ba0       ?OperateControl@CWidgetEasyConnected@@UAAXIIPAX@Z 00034ba0 f   PanelWidget.obj
 0001:00023c3c       ?OperateControl@CWidgetWeblink@@UAAXIIPAX@Z 00034c3c f   PanelWidget.obj
 0001:00023cd8       ?OperateControl@CWidgetAndroidAuto@@UAAXIIPAX@Z 00034cd8 f   PanelWidget.obj
 0001:00023dcc       ?OperateControl@CWidgetDAB@@UAAXIIPAX@Z 00034dcc f   PanelWidget.obj
 0001:00023e00       ??0CWidgetGL@@QAA@XZ       00034e00 f   PanelWidget.obj
 0001:00023e48       ??1CWidgetGL@@UAA@XZ       00034e48 f   PanelWidget.obj
 0001:00023e5c       ?Initialize@CWidgetGL@@UAAHIHHPAVCPanelGL@@PAVCSkinManagerGL@@PAVCTextGL@@PAUHWND__@@U_TMODULEENTRY@@@Z 00034e5c f   PanelWidget.obj
 0001:00023ed4       ?IsReady@CWidgetGL@@UAAHXZ 00034ed4 f   PanelWidget.obj
 0001:00023f20       ?OnTouchUp@CWidgetGL@@UAAXPAUtagPOINT@@@Z 00034f20 f   PanelWidget.obj
 0001:00024364       ?OnTouchMove@CWidgetGL@@UAAXPAUtagPOINT@@@Z 00035364 f   PanelWidget.obj
 0001:000244f4       ?OnGesture@CWidgetGL@@UAAXPAUtagGESTUREINFO@@@Z 000354f4 f   PanelWidget.obj
 0001:00024830       ?ProcessNotify@CWidgetGL@@IAAXXZ 00035830 f   PanelWidget.obj
 0001:000248f0       ?Render@CPanelWidget@@UAAXXZ 000358f0 f   PanelWidget.obj
 0001:00024b64       ?CalculatePageSize@CPanelWidget@@AAAHPAUtagSIZE@@@Z 00035b64 f   PanelWidget.obj
 0001:00024d1c       ?GetWidget@CPanelWidget@@QAAPAVCWidgetGL@@I@Z 00035d1c f   PanelWidget.obj
 0001:00024d4c       ?OnTouchDown@CPanelWidget@@UAAXPAUtagPOINT@@@Z 00035d4c f   PanelWidget.obj
 0001:00024e50       ?OperateWidget@CPanelWidget@@QAAXIIIPAX@Z 00035e50 f   PanelWidget.obj
 0001:00024eac       ?OnTouchUp@CPanelWidget@@UAAXPAUtagPOINT@@@Z 00035eac f   PanelWidget.obj
 0001:00025040       ?OnPhoneCallState@CPanelWidget@@UAAXIJ@Z 00036040 f   PanelWidget.obj
 0001:000250e4       ??0CWidgetMediaCore@@QAA@XZ 000360e4 f   PanelWidget.obj
 0001:000253b0       ??1CWidgetMediaCore@@UAA@XZ 000363b0 f   PanelWidget.obj
 0001:0002566c       ?IsReady@CWidgetMediaCore@@UAAHXZ 0003666c f   PanelWidget.obj
 0001:000256ac       ?Render@CWidgetMediaCore@@UAAXXZ 000366ac f   PanelWidget.obj
 0001:00025c4c       ?OnNotify@CWidgetMediaCore@@SAXKKKPAX0@Z 00036c4c f   PanelWidget.obj
 0001:00025c88       ??0CWidgetRadioCore@@QAA@XZ 00036c88 f   PanelWidget.obj
 0001:00025de8       ??1CWidgetRadioCore@@UAA@XZ 00036de8 f   PanelWidget.obj
 0001:00025f44       ?Render@CWidgetRadioCore@@UAAXXZ 00036f44 f   PanelWidget.obj
 0001:000260a4       ?OnNotify@CWidgetRadioCore@@SAXKKKPAX0@Z 000370a4 f   PanelWidget.obj
 0001:000260e0       ??0CWidgetPhoneCore@@QAA@XZ 000370e0 f   PanelWidget.obj
 0001:000261a0       ??1CWidgetPhoneCore@@UAA@XZ 000371a0 f   PanelWidget.obj
 0001:0002625c       ?Render@CWidgetPhoneCore@@UAAXXZ 0003725c f   PanelWidget.obj
 0001:00026458       ?Initialize@CWidgetPhoneCore@@UAAHIHHPAVCPanelGL@@PAVCSkinManagerGL@@PAVCTextGL@@PAUHWND__@@U_TMODULEENTRY@@@Z 00037458 f   PanelWidget.obj
 0001:00026740       ??0CWidgetA2DP@@QAA@XZ     00037740 f   PanelWidget.obj
 0001:00026800       ??1CWidgetA2DP@@UAA@XZ     00037800 f   PanelWidget.obj
 0001:000268bc       ?Render@CWidgetA2DP@@UAAXXZ 000378bc f   PanelWidget.obj
 0001:00026ab8       ?Initialize@CWidgetA2DP@@UAAHIHHPAVCPanelGL@@PAVCSkinManagerGL@@PAVCTextGL@@PAUHWND__@@U_TMODULEENTRY@@@Z 00037ab8 f   PanelWidget.obj
 0001:00026d84       ??0CWidgetNaviCore@@QAA@XZ 00037d84 f   PanelWidget.obj
 0001:00026e18       ??1CWidgetNaviCore@@UAA@XZ 00037e18 f   PanelWidget.obj
 0001:00026ea0       ?Render@CWidgetNaviCore@@UAAXXZ 00037ea0 f   PanelWidget.obj
 0001:00026f58       ?Initialize@CWidgetNaviCore@@UAAHIHHPAVCPanelGL@@PAVCSkinManagerGL@@PAVCTextGL@@PAUHWND__@@U_TMODULEENTRY@@@Z 00037f58 f   PanelWidget.obj
 0001:000271d8       ??0CWidgetTVCore@@QAA@XZ   000381d8 f   PanelWidget.obj
 0001:00027290       ??1CWidgetTVCore@@UAA@XZ   00038290 f   PanelWidget.obj
 0001:0002734c       ?Render@CWidgetTVCore@@UAAXXZ 0003834c f   PanelWidget.obj
 0001:00027510       ?Initialize@CWidgetTVCore@@UAAHIHHPAVCPanelGL@@PAVCSkinManagerGL@@PAVCTextGL@@PAUHWND__@@U_TMODULEENTRY@@@Z 00038510 f   PanelWidget.obj
 0001:00027768       ??0CWidgetDiskCore@@QAA@XZ 00038768 f   PanelWidget.obj
 0001:000277ec       ??1CWidgetDiskCore@@UAA@XZ 000387ec f   PanelWidget.obj
 0001:0002787c       ?Render@CWidgetDiskCore@@UAAXXZ 0003887c f   PanelWidget.obj
 0001:00027a3c       ?Initialize@CWidgetDiskCore@@UAAHIHHPAVCPanelGL@@PAVCSkinManagerGL@@PAVCTextGL@@PAUHWND__@@U_TMODULEENTRY@@@Z 00038a3c f   PanelWidget.obj
 0001:00027c9c       ??0CWidgetSettingCore@@QAA@XZ 00038c9c f   PanelWidget.obj
 0001:00027d20       ??1CWidgetSettingCore@@UAA@XZ 00038d20 f   PanelWidget.obj
 0001:00027db0       ?Render@CWidgetSettingCore@@UAAXXZ 00038db0 f   PanelWidget.obj
 0001:00027f74       ?Initialize@CWidgetSettingCore@@UAAHIHHPAVCPanelGL@@PAVCSkinManagerGL@@PAVCTextGL@@PAUHWND__@@U_TMODULEENTRY@@@Z 00038f74 f   PanelWidget.obj
 0001:00028200       ??0CWidgetDSP@@QAA@XZ      00039200 f   PanelWidget.obj
 0001:00028284       ??1CWidgetDSP@@UAA@XZ      00039284 f   PanelWidget.obj
 0001:00028314       ?Render@CWidgetDSP@@UAAXXZ 00039314 f   PanelWidget.obj
 0001:000284d8       ?Initialize@CWidgetDSP@@UAAHIHHPAVCPanelGL@@PAVCSkinManagerGL@@PAVCTextGL@@PAUHWND__@@U_TMODULEENTRY@@@Z 000394d8 f   PanelWidget.obj
 0001:00028750       ??0CWidgetAUXCore@@QAA@XZ  00039750 f   PanelWidget.obj
 0001:00028814       ??1CWidgetAUXCore@@UAA@XZ  00039814 f   PanelWidget.obj
 0001:000288d0       ?Render@CWidgetAUXCore@@UAAXXZ 000398d0 f   PanelWidget.obj
 0001:00028acc       ?Initialize@CWidgetAUXCore@@UAAHIHHPAVCPanelGL@@PAVCSkinManagerGL@@PAVCTextGL@@PAUHWND__@@U_TMODULEENTRY@@@Z 00039acc f   PanelWidget.obj
 0001:00028d88       ??0CWidgetUSB@@QAA@XZ      00039d88 f   PanelWidget.obj
 0001:00028e48       ??1CWidgetUSB@@UAA@XZ      00039e48 f   PanelWidget.obj
 0001:00028f04       ?Render@CWidgetUSB@@UAAXXZ 00039f04 f   PanelWidget.obj
 0001:00029100       ?Initialize@CWidgetUSB@@UAAHIHHPAVCPanelGL@@PAVCSkinManagerGL@@PAVCTextGL@@PAUHWND__@@U_TMODULEENTRY@@@Z 0003a100 f   PanelWidget.obj
 0001:000293d0       ??0CWidgetSD@@QAA@XZ       0003a3d0 f   PanelWidget.obj
 0001:00029488       ??1CWidgetSD@@UAA@XZ       0003a488 f   PanelWidget.obj
 0001:00029544       ?Render@CWidgetSD@@UAAXXZ  0003a544 f   PanelWidget.obj
 0001:0002973c       ?Initialize@CWidgetSD@@UAAHIHHPAVCPanelGL@@PAVCSkinManagerGL@@PAVCTextGL@@PAUHWND__@@U_TMODULEENTRY@@@Z 0003a73c f   PanelWidget.obj
 0001:00029a0c       ??0CWidgetiPod@@QAA@XZ     0003aa0c f   PanelWidget.obj
 0001:00029ac4       ??1CWidgetiPod@@UAA@XZ     0003aac4 f   PanelWidget.obj
 0001:00029b80       ?Render@CWidgetiPod@@UAAXXZ 0003ab80 f   PanelWidget.obj
 0001:00029d7c       ?Initialize@CWidgetiPod@@UAAHIHHPAVCPanelGL@@PAVCSkinManagerGL@@PAVCTextGL@@PAUHWND__@@U_TMODULEENTRY@@@Z 0003ad7c f   PanelWidget.obj
 0001:0002a134       ??0CWidgetCarPlay@@QAA@XZ  0003b134 f   PanelWidget.obj
 0001:0002a220       ??1CWidgetCarPlay@@UAA@XZ  0003b220 f   PanelWidget.obj
 0001:0002a308       ?Render@CWidgetCarPlay@@UAAXXZ 0003b308 f   PanelWidget.obj
 0001:0002a550       ?Initialize@CWidgetCarPlay@@UAAHIHHPAVCPanelGL@@PAVCSkinManagerGL@@PAVCTextGL@@PAUHWND__@@U_TMODULEENTRY@@@Z 0003b550 f   PanelWidget.obj
 0001:0002a9a0       ??0CWidgetVehicleInfo@@QAA@XZ 0003b9a0 f   PanelWidget.obj
 0001:0002aa2c       ??1CWidgetVehicleInfo@@UAA@XZ 0003ba2c f   PanelWidget.obj
 0001:0002aabc       ?Render@CWidgetVehicleInfo@@UAAXXZ 0003babc f   PanelWidget.obj
 0001:0002ac7c       ?Initialize@CWidgetVehicleInfo@@UAAHIHHPAVCPanelGL@@PAVCSkinManagerGL@@PAVCTextGL@@PAUHWND__@@U_TMODULEENTRY@@@Z 0003bc7c f   PanelWidget.obj
 0001:0002aedc       ??0CWidgetMHL@@QAA@XZ      0003bedc f   PanelWidget.obj
 0001:0002af60       ??1CWidgetMHL@@UAA@XZ      0003bf60 f   PanelWidget.obj
 0001:0002aff0       ?Render@CWidgetMHL@@UAAXXZ 0003bff0 f   PanelWidget.obj
 0001:0002b1b0       ?Initialize@CWidgetMHL@@UAAHIHHPAVCPanelGL@@PAVCSkinManagerGL@@PAVCTextGL@@PAUHWND__@@U_TMODULEENTRY@@@Z 0003c1b0 f   PanelWidget.obj
 0001:0002b414       ??0CWidgetPhoneLink@@QAA@XZ 0003c414 f   PanelWidget.obj
 0001:0002b4cc       ??1CWidgetPhoneLink@@UAA@XZ 0003c4cc f   PanelWidget.obj
 0001:0002b588       ?Render@CWidgetPhoneLink@@UAAXXZ 0003c588 f   PanelWidget.obj
 0001:0002b6f4       ?Initialize@CWidgetPhoneLink@@UAAHIHHPAVCPanelGL@@PAVCSkinManagerGL@@PAVCTextGL@@PAUHWND__@@U_TMODULEENTRY@@@Z 0003c6f4 f   PanelWidget.obj
 0001:0002ba0c       ??0CWidgetEasyConnected@@QAA@XZ 0003ca0c f   PanelWidget.obj
 0001:0002bb24       ??1CWidgetEasyConnected@@UAA@XZ 0003cb24 f   PanelWidget.obj
 0001:0002bc30       ?Render@CWidgetEasyConnected@@UAAXXZ 0003cc30 f   PanelWidget.obj
 0001:0002bd20       ?Initialize@CWidgetEasyConnected@@UAAHIHHPAVCPanelGL@@PAVCSkinManagerGL@@PAVCTextGL@@PAUHWND__@@U_TMODULEENTRY@@@Z 0003cd20 f   PanelWidget.obj
 0001:0002c03c       ??0CWidgetWeblink@@QAA@XZ  0003d03c f   PanelWidget.obj
 0001:0002c0ec       ??1CWidgetWeblink@@UAA@XZ  0003d0ec f   PanelWidget.obj
 0001:0002c1a8       ?Render@CWidgetWeblink@@UAAXXZ 0003d1a8 f   PanelWidget.obj
 0001:0002c3a4       ?Initialize@CWidgetWeblink@@UAAHIHHPAVCPanelGL@@PAVCSkinManagerGL@@PAVCTextGL@@PAUHWND__@@U_TMODULEENTRY@@@Z 0003d3a4 f   PanelWidget.obj
 0001:0002c6e8       ??0CWidgetAndroidAuto@@QAA@XZ 0003d6e8 f   PanelWidget.obj
 0001:0002c7d4       ??1CWidgetAndroidAuto@@UAA@XZ 0003d7d4 f   PanelWidget.obj
 0001:0002c8b4       ?IsReady@CWidgetNaviCore@@UAAHXZ 0003d8b4 f   PanelWidget.obj
 0001:0002c8b4       ?IsReady@CWidgetRadioCore@@UAAHXZ 0003d8b4 f   PanelWidget.obj
 0001:0002c8b4       ?IsReady@CWidgetAndroidAuto@@UAAHXZ 0003d8b4 f   PanelWidget.obj
 0001:0002c8c0       ?Render@CWidgetAndroidAuto@@UAAXXZ 0003d8c0 f   PanelWidget.obj
 0001:0002caf4       ?Initialize@CWidgetAndroidAuto@@UAAHIHHPAVCPanelGL@@PAVCSkinManagerGL@@PAVCTextGL@@PAUHWND__@@U_TMODULEENTRY@@@Z 0003daf4 f   PanelWidget.obj
 0001:0002cebc       ??0CWidgetCamera@@QAA@XZ   0003debc f   PanelWidget.obj
 0001:0002cf6c       ??1CWidgetCamera@@UAA@XZ   0003df6c f   PanelWidget.obj
 0001:0002d028       ?Render@CWidgetCamera@@UAAXXZ 0003e028 f   PanelWidget.obj
 0001:0002d1d0       ?Initialize@CWidgetCamera@@UAAHIHHPAVCPanelGL@@PAVCSkinManagerGL@@PAVCTextGL@@PAUHWND__@@U_TMODULEENTRY@@@Z 0003e1d0 f   PanelWidget.obj
 0001:0002d428       ??0CWidgetDAB@@QAA@XZ      0003e428 f   PanelWidget.obj
 0001:0002d4d8       ??1CWidgetDAB@@UAA@XZ      0003e4d8 f   PanelWidget.obj
 0001:0002d594       ?Render@CWidgetDAB@@UAAXXZ 0003e594 f   PanelWidget.obj
 0001:0002d674       ?Initialize@CWidgetDAB@@UAAHIHHPAVCPanelGL@@PAVCSkinManagerGL@@PAVCTextGL@@PAUHWND__@@U_TMODULEENTRY@@@Z 0003e674 f   PanelWidget.obj
 0001:0002d9d8       ??0CWidgetISDBCore@@QAA@XZ 0003e9d8 f   PanelWidget.obj
 0001:0002da9c       ??1CWidgetISDBCore@@UAA@XZ 0003ea9c f   PanelWidget.obj
 0001:0002db50       ?IsReady@CWidgetSettingCore@@UAAHXZ 0003eb50 f   PanelWidget.obj
 0001:0002db50       ?IsReady@CWidgetEasyConnected@@UAAHXZ 0003eb50 f   PanelWidget.obj
 0001:0002db50       ?IsReady@CWidgetAUXCore@@UAAHXZ 0003eb50 f   PanelWidget.obj
 0001:0002db50       ?IsReady@CWidgetCarPlay@@UAAHXZ 0003eb50 f   PanelWidget.obj
 0001:0002db50       ?IsReady@CWidgetMHL@@UAAHXZ 0003eb50 f   PanelWidget.obj
 0001:0002db50       ?IsReady@CWidgetDAB@@UAAHXZ 0003eb50 f   PanelWidget.obj
 0001:0002db50       ?IsReady@CWidgetPhoneCore@@UAAHXZ 0003eb50 f   PanelWidget.obj
 0001:0002db50       ?IsReady@CWidgetVehicleInfo@@UAAHXZ 0003eb50 f   PanelWidget.obj
 0001:0002db50       ?IsReady@CWidgetDSP@@UAAHXZ 0003eb50 f   PanelWidget.obj
 0001:0002db50       ?IsReady@CWidgetISDBCore@@UAAHXZ 0003eb50 f   PanelWidget.obj
 0001:0002db50       ?IsReady@CWidgetWeblink@@UAAHXZ 0003eb50 f   PanelWidget.obj
 0001:0002db50       ?IsReady@CWidgetA2DP@@UAAHXZ 0003eb50 f   PanelWidget.obj
 0001:0002db50       ?IsReady@CWidgetPhoneLink@@UAAHXZ 0003eb50 f   PanelWidget.obj
 0001:0002db50       ?IsReady@CWidgetiPod@@UAAHXZ 0003eb50 f   PanelWidget.obj
 0001:0002db50       ?IsReady@CWidgetUSB@@UAAHXZ 0003eb50 f   PanelWidget.obj
 0001:0002db50       ?IsReady@CWidgetDiskCore@@UAAHXZ 0003eb50 f   PanelWidget.obj
 0001:0002db50       ?IsReady@CWidgetSD@@UAAHXZ 0003eb50 f   PanelWidget.obj
 0001:0002db50       ?IsReady@CWidgetTVCore@@UAAHXZ 0003eb50 f   PanelWidget.obj
 0001:0002db50       ?IsReady@CWidgetCamera@@UAAHXZ 0003eb50 f   PanelWidget.obj
 0001:0002db90       ?Render@CWidgetISDBCore@@UAAXXZ 0003eb90 f   PanelWidget.obj
 0001:0002dd8c       ?Initialize@CWidgetISDBCore@@UAAHIHHPAVCPanelGL@@PAVCSkinManagerGL@@PAVCTextGL@@PAUHWND__@@U_TMODULEENTRY@@@Z 0003ed8c f   PanelWidget.obj
 0001:0002e038       ??_GCWidgetGL@@UAAPAXI@Z   0003f038 f i PanelWidget.obj
 0001:0002e038       ??_ECWidgetGL@@UAAPAXI@Z   0003f038 f i PanelWidget.obj
 0001:0002e068       ?SetPos@CWidgetGL@@UAAXMMMH@Z 0003f068 f   PanelWidget.obj
 0001:0002e168       ?OnTouchDown@CWidgetGL@@UAAXPAUtagPOINT@@@Z 0003f168 f   PanelWidget.obj
 0001:0002e454       ?HandleControlMSG@CPanelWidget@@MAAXKKKPAX@Z 0003f454 f   PanelWidget.obj
 0001:0002f180       ?CreateWidget@CPanelWidget@@AAAHIHHMMH@Z 00040180 f   PanelWidget.obj
 0001:0002f908       ?InitializeWidget@CPanelWidget@@IAAHPAVCSkinManagerGL@@PAVCTextGL@@PAUHWND__@@U_TMODULEENTRY@@PAU_HomeWidgetParam@@I@Z 00040908 f   PanelWidget.obj
 0001:0002fb54       ?OnAvailableSourceChanged@CPanelWidget@@QAAXIJ@Z 00040b54 f   PanelWidget.obj
 0001:0002fdd4       ??_GCWidgetMediaCore@@UAAPAXI@Z 00040dd4 f i PanelWidget.obj
 0001:0002fdd4       ??_ECWidgetMediaCore@@UAAPAXI@Z 00040dd4 f i PanelWidget.obj
 0001:0002fdf8       ?Initialize@CWidgetMediaCore@@UAAHIHHPAVCPanelGL@@PAVCSkinManagerGL@@PAVCTextGL@@PAUHWND__@@U_TMODULEENTRY@@@Z 00040df8 f   PanelWidget.obj
 0001:0003087c       ??_GCWidgetRadioCore@@UAAPAXI@Z 0004187c f i PanelWidget.obj
 0001:0003087c       ??_ECWidgetRadioCore@@UAAPAXI@Z 0004187c f i PanelWidget.obj
 0001:000308a0       ?Initialize@CWidgetRadioCore@@UAAHIHHPAVCPanelGL@@PAVCSkinManagerGL@@PAVCTextGL@@PAUHWND__@@U_TMODULEENTRY@@@Z 000418a0 f   PanelWidget.obj
 0001:00030e74       ??_ECWidgetPhoneCore@@UAAPAXI@Z 00041e74 f i PanelWidget.obj
 0001:00030e74       ??_GCWidgetPhoneCore@@UAAPAXI@Z 00041e74 f i PanelWidget.obj
 0001:00030e98       ??_ECWidgetA2DP@@UAAPAXI@Z 00041e98 f i PanelWidget.obj
 0001:00030e98       ??_GCWidgetA2DP@@UAAPAXI@Z 00041e98 f i PanelWidget.obj
 0001:00030ebc       ??_GCWidgetNaviCore@@UAAPAXI@Z 00041ebc f i PanelWidget.obj
 0001:00030ebc       ??_ECWidgetNaviCore@@UAAPAXI@Z 00041ebc f i PanelWidget.obj
 0001:00030ee0       ??_ECWidgetTVCore@@UAAPAXI@Z 00041ee0 f i PanelWidget.obj
 0001:00030ee0       ??_GCWidgetTVCore@@UAAPAXI@Z 00041ee0 f i PanelWidget.obj
 0001:00030f04       ??_GCWidgetDiskCore@@UAAPAXI@Z 00041f04 f i PanelWidget.obj
 0001:00030f04       ??_ECWidgetDiskCore@@UAAPAXI@Z 00041f04 f i PanelWidget.obj
 0001:00030f28       ??_ECWidgetSettingCore@@UAAPAXI@Z 00041f28 f i PanelWidget.obj
 0001:00030f28       ??_GCWidgetSettingCore@@UAAPAXI@Z 00041f28 f i PanelWidget.obj
 0001:00030f4c       ??_ECWidgetDSP@@UAAPAXI@Z  00041f4c f i PanelWidget.obj
 0001:00030f4c       ??_GCWidgetDSP@@UAAPAXI@Z  00041f4c f i PanelWidget.obj
 0001:00030f70       ??_ECWidgetAUXCore@@UAAPAXI@Z 00041f70 f i PanelWidget.obj
 0001:00030f70       ??_GCWidgetAUXCore@@UAAPAXI@Z 00041f70 f i PanelWidget.obj
 0001:00030f94       ??_GCWidgetUSB@@UAAPAXI@Z  00041f94 f i PanelWidget.obj
 0001:00030f94       ??_ECWidgetUSB@@UAAPAXI@Z  00041f94 f i PanelWidget.obj
 0001:00030fb8       ??_ECWidgetSD@@UAAPAXI@Z   00041fb8 f i PanelWidget.obj
 0001:00030fb8       ??_GCWidgetSD@@UAAPAXI@Z   00041fb8 f i PanelWidget.obj
 0001:00030fdc       ??_ECWidgetiPod@@UAAPAXI@Z 00041fdc f i PanelWidget.obj
 0001:00030fdc       ??_GCWidgetiPod@@UAAPAXI@Z 00041fdc f i PanelWidget.obj
 0001:00031000       ??_GCWidgetCarPlay@@UAAPAXI@Z 00042000 f i PanelWidget.obj
 0001:00031000       ??_ECWidgetCarPlay@@UAAPAXI@Z 00042000 f i PanelWidget.obj
 0001:00031024       ??_ECWidgetVehicleInfo@@UAAPAXI@Z 00042024 f i PanelWidget.obj
 0001:00031024       ??_GCWidgetVehicleInfo@@UAAPAXI@Z 00042024 f i PanelWidget.obj
 0001:00031048       ??_ECWidgetMHL@@UAAPAXI@Z  00042048 f i PanelWidget.obj
 0001:00031048       ??_GCWidgetMHL@@UAAPAXI@Z  00042048 f i PanelWidget.obj
 0001:0003106c       ??_GCWidgetPhoneLink@@UAAPAXI@Z 0004206c f i PanelWidget.obj
 0001:0003106c       ??_ECWidgetPhoneLink@@UAAPAXI@Z 0004206c f i PanelWidget.obj
 0001:00031090       ??_GCWidgetEasyConnected@@UAAPAXI@Z 00042090 f i PanelWidget.obj
 0001:00031090       ??_ECWidgetEasyConnected@@UAAPAXI@Z 00042090 f i PanelWidget.obj
 0001:000310b4       ??_GCWidgetWeblink@@UAAPAXI@Z 000420b4 f i PanelWidget.obj
 0001:000310b4       ??_ECWidgetWeblink@@UAAPAXI@Z 000420b4 f i PanelWidget.obj
 0001:000310d8       ??_ECWidgetAndroidAuto@@UAAPAXI@Z 000420d8 f i PanelWidget.obj
 0001:000310d8       ??_GCWidgetAndroidAuto@@UAAPAXI@Z 000420d8 f i PanelWidget.obj
 0001:000310fc       ??_GCWidgetCamera@@UAAPAXI@Z 000420fc f i PanelWidget.obj
 0001:000310fc       ??_ECWidgetCamera@@UAAPAXI@Z 000420fc f i PanelWidget.obj
 0001:00031120       ??_GCWidgetDAB@@UAAPAXI@Z  00042120 f i PanelWidget.obj
 0001:00031120       ??_ECWidgetDAB@@UAAPAXI@Z  00042120 f i PanelWidget.obj
 0001:00031144       ??_GCWidgetISDBCore@@UAAPAXI@Z 00042144 f i PanelWidget.obj
 0001:00031144       ??_ECWidgetISDBCore@@UAAPAXI@Z 00042144 f i PanelWidget.obj
 0001:00031170       ??0CPanelWidget@@QAA@XZ    00042170 f   PanelWidget.obj
 0001:00031278       ??1CPanelWidget@@UAA@XZ    00042278 f   PanelWidget.obj
 0001:000313c8       ?Initialize@CPanelWidget@@UAAHIPAVCPanelGL@@PAVCSkinManagerGL@@PAVCTextGL@@PAUHWND__@@U_TMODULEENTRY@@@Z 000423c8 f   PanelWidget.obj
 0001:0003149c       ??_ECPanelWidget@@UAAPAXI@Z 0004249c f i PanelWidget.obj
 0001:0003149c       ??_GCPanelWidget@@UAAPAXI@Z 0004249c f i PanelWidget.obj
 0001:000314c0       ?SetDW@CReg@@QAAHPB_WK@Z   000424c0 f i GUI_Fantasy.obj
 0001:00031508       ?OnUSBHUBAttached@CGUI_Fantasy@@QAAXXZ 00042508 f   GUI_Fantasy.obj
 0001:00031570       ?IsIniUIReady@CGUI_Fantasy@@UAAHXZ 00042570 f   GUI_Fantasy.obj
 0001:00031578       ?OnSystemReady@CGUI_Fantasy@@QAAXXZ 00042578 f   GUI_Fantasy.obj
 0001:00031638       ?InitializeEGLWorld@CGUI_Fantasy@@MAAHXZ 00042638 f   GUI_Fantasy.obj
 0001:00031994       ?IsReady@CGUI_Fantasy@@UAAHXZ 00042994 f   GUI_Fantasy.obj
 0001:000319c0       ?RenderLogo@CGUI_Fantasy@@IAAXXZ 000429c0 f   GUI_Fantasy.obj
 0001:00031cf0       ?RenderPanels@CGUI_Fantasy@@QAAXXZ 00042cf0 f   GUI_Fantasy.obj
 0001:00031d74       ?OnGesture@CGUI_Fantasy@@UAAXIJ@Z 00042d74 f   GUI_Fantasy.obj
 0001:00031de8       ?OnAutoStartNaviProc@CGUI_Fantasy@@QAAXXZ 00042de8 f   GUI_Fantasy.obj
 0001:00031e88       ?AutoSwitchCarPlayScreen@CGUI_Fantasy@@QAAXXZ 00042e88 f   GUI_Fantasy.obj
 0001:00031eec       ?AutoRequestCarPlayScreen@CGUI_Fantasy@@QAAXXZ 00042eec f   GUI_Fantasy.obj
 0001:00031f50       ?ReturnToPrevPanel@CGUI_Fantasy@@AAAXW4PAGE_ANI_ID@@@Z 00042f50 f   GUI_Fantasy.obj
 0001:000320a4       ?OnWallpaperChanged@CGUI_Fantasy@@UAAXPB_W@Z 000430a4 f   GUI_Fantasy.obj
 0001:000320bc       ?OnRearViewKey@CGUI_Fantasy@@QAAXIJ@Z 000430bc f   GUI_Fantasy.obj
 0001:000320c8       ?OnVehicleKey@CGUI_Fantasy@@QAAXIJ@Z 000430c8 f   GUI_Fantasy.obj
 0001:00032138       ?SwitchSRC@CGUI_Fantasy@@AAAXXZ 00043138 f   GUI_Fantasy.obj
 0001:0003248c       ?OnPanelKey@CGUI_Fantasy@@UAAXIJ@Z 0004348c f   GUI_Fantasy.obj
 0001:000324e4       ?RenderPoweroffScreen@CGUI_Fantasy@@IAAXXZ 000434e4 f   GUI_Fantasy.obj
 0001:00032628       ?DeviceActivateProc@CGUI_Fantasy@@KAXPAXH@Z 00043628 f   GUI_Fantasy.obj
 0001:00032634       ?DeviceSetMACProc@CGUI_Fantasy@@KAXPAXH@Z 00043634 f   GUI_Fantasy.obj
 0001:00032640       ?RenderActivateScreen@CGUI_Fantasy@@IAAXPB_W@Z 00043640 f   GUI_Fantasy.obj
 0001:000328b0       ?ActivateRenderLogo@CGUI_Fantasy@@IAAXXZ 000438b0 f   GUI_Fantasy.obj
 0001:00032930       ?PrePowerOff@CGUI_Fantasy@@AAAXXZ 00043930 f   GUI_Fantasy.obj
 0001:00032a80       ?DoPowerIdle@CGUI_Fantasy@@QAAXXZ 00043a80 f   GUI_Fantasy.obj
 0001:00032ac0       ?DoPowerOff@CGUI_Fantasy@@QAAXXZ 00043ac0 f   GUI_Fantasy.obj
 0001:00032b00       ?DoPowerOn@CGUI_Fantasy@@QAAXXZ 00043b00 f   GUI_Fantasy.obj
 0001:00032b30       ?DoPowerHardReset@CGUI_Fantasy@@QAAXXZ 00043b30 f   GUI_Fantasy.obj
 0001:00032b60       ?DoPowerSoftReset@CGUI_Fantasy@@QAAXXZ 00043b60 f   GUI_Fantasy.obj
 0001:00032bb8       ?ScreenOff@CGUI_Fantasy@@AAAXXZ 00043bb8 f   GUI_Fantasy.obj
 0001:00032bf0       ?ScreenOn@CGUI_Fantasy@@AAAXXZ 00043bf0 f   GUI_Fantasy.obj
 0001:00032cb0       ?PowerHardReset@CGUI_Fantasy@@AAAXXZ 00043cb0 f   GUI_Fantasy.obj
 0001:00032d24       ?PowerSoftReset@CGUI_Fantasy@@AAAXXZ 00043d24 f   GUI_Fantasy.obj
 0001:00032d98       ?OnTimerReleaseSpeech@CGUI_Fantasy@@QAAXXZ 00043d98 f   GUI_Fantasy.obj
 0001:00032dd4       ?OnGetPlayingStatus@CGUI_Fantasy@@QAAHXZ 00043dd4 f   GUI_Fantasy.obj
 0001:00032e0c       ?OnGetCurMuteStatus@CGUI_Fantasy@@QAAHXZ 00043e0c f   GUI_Fantasy.obj
 0001:00032e38       ?OnPlaySoundEffect@CGUI_Fantasy@@QAAHIJ@Z 00043e38 f   GUI_Fantasy.obj
 0001:00032ea8       ?OnGetAudioSRC@CGUI_Fantasy@@QAAIIJ@Z 00043ea8 f   GUI_Fantasy.obj
 0001:00032eb0       ?OnAudioCodecMsg@CGUI_Fantasy@@QAAXIJ@Z 00043eb0 f   GUI_Fantasy.obj
 0001:00033100       ?OnActive@CGUI_Fantasy@@QAAXIJ@Z 00044100 f   GUI_Fantasy.obj
 0001:00033130       ?GPSMonitorThreadPro@CGUI_Fantasy@@KAKPAX@Z 00044130 f   GUI_Fantasy.obj
 0001:00033384       ?DoMute@CGUI_Fantasy@@AAAXH@Z 00044384 f   GUI_Fantasy.obj
 0001:000334fc       ?IsNaviSpeechEnable@CGUI_Fantasy@@AAAHXZ 000444fc f   GUI_Fantasy.obj
 0001:00033534       ?QuickEnterEQSetting@CGUI_Fantasy@@QAAXXZ 00044534 f   GUI_Fantasy.obj
 0001:00033580       ??Y?$_Vector_const_iterator@UMsgData@@V?$allocator@UMsgData@@@std@@@std@@QAAAAV01@H@Z 00044580 f i GUI_Fantasy.obj
 0001:00033580       ??Y?$_Vector_const_iterator@U_ArtworkFormat@@V?$allocator@U_ArtworkFormat@@@std@@@std@@QAAAAV01@H@Z 00044580 f i iAP_lib:Player.obj
 0001:000335d4       ??8?$_Vector_const_iterator@EV?$allocator@E@std@@@std@@QBA_NABV01@@Z 000445d4 f i iAP_lib:iAPTransceiver.obj
 0001:000335d4       ??8const_iterator@?$_Tree@V?$_Tmap_traits@_WU_ArbicParam@@U?$less@_W@std@@V?$allocator@U?$pair@$$CB_WU_ArbicParam@@@std@@@3@$0A@@std@@@std@@QBA_NABV012@@Z 000445d4 f i FantasyLib:TextGL.obj
 0001:000335d4       ??8?$_Vector_const_iterator@UMsgData@@V?$allocator@UMsgData@@@std@@@std@@QBA_NABV01@@Z 000445d4 f i GUI_Fantasy.obj
 0001:000335d4       ??8const_iterator@?$_Tree@V?$_Tmap_traits@UiAPCommandTag@@V?$Callback@XV?$sp@ViAPRxCmd@@@@UNil@@U2@U2@U2@U2@U2@@@U?$less@UiAPCommandTag@@@std@@V?$allocator@U?$pair@$$CBUiAPCommandTag@@V?$Callback@XV?$sp@ViAPRxCmd@@@@UNil@@U2@U2@U2@U2@U2@@@@std@@@4@$0A@@std@@@std@@QBA_NABV012@@Z 000445d4 f i iAP_lib:iAPNotifier.obj
 0001:000335d4       ??8?$_Const_iterator@$00@?$list@PAEV?$allocator@PAE@std@@@std@@QBA_NABV012@@Z 000445d4 f i CarplayAdapter.obj
 0001:000335d4       ??8const_iterator@?$_Tree@V?$_Tmap_traits@IVCKeyHandler@@U?$less@I@std@@V?$allocator@U?$pair@$$CBIVCKeyHandler@@@std@@@3@$0A@@std@@@std@@QBA_NABV012@@Z 000445d4 f i CKeyHandler.obj
 0001:0003361c       ??$_Allocate@UMsgData@@@std@@YAPAUMsgData@@IPAU1@@Z 0004461c f i GUI_Fantasy.obj
 0001:0003361c       ??$_Allocate@U_ArtworkFormat@@@std@@YAPAU_ArtworkFormat@@IPAU1@@Z 0004461c f i iAP_lib:Player.obj
 0001:00033688       ?OnCameraTypeChanged@CGUI_Fantasy@@QAAXI@Z 00044688 f   GUI_Fantasy.obj
 0001:000336e8       ?OnRearColorSignalChange@CGUI_Fantasy@@QAAXI@Z 000446e8 f   GUI_Fantasy.obj
 0001:00033748       ?OnPanelLightChange@CGUI_Fantasy@@QAAXXZ 00044748 f   GUI_Fantasy.obj
 0001:000337a0       ?OnLCDBrightnessChange@CGUI_Fantasy@@QAAXXZ 000447a0 f   GUI_Fantasy.obj
 0001:000337f8       ?OnHeadLightOn@CGUI_Fantasy@@QAAXHI@Z 000447f8 f   GUI_Fantasy.obj
 0001:00033860       ?OnLoadCarPlayService@CGUI_Fantasy@@QAAXXZ 00044860 f   GUI_Fantasy.obj
 0001:000338e4       ?OnDeviceChanged@CGUI_Fantasy@@QAAXXZ 000448e4 f   GUI_Fantasy.obj
 0001:00033998       ?OperateWidget@CGUI_Fantasy@@UAAXIIIPAX@Z 00044998 f   GUI_Fantasy.obj
 0001:000339f8       ?OnBrakeStatusChanged@CGUI_Fantasy@@QAAXH@Z 000449f8 f   GUI_Fantasy.obj
 0001:00033a6c       ?OnUpdateRadioPlayInfo@CGUI_Fantasy@@QAAXXZ 00044a6c f   GUI_Fantasy.obj
 0001:00033ab4       ?OnRadioMonitorTA@CGUI_Fantasy@@QAAXXZ 00044ab4 f   GUI_Fantasy.obj
 0001:00033afc       ?AutoSwitchNativeUI@CGUI_Fantasy@@QAAXXZ 00044afc f   GUI_Fantasy.obj
 0001:00033b54       ?AutoSwitchCarPlayMedia@CGUI_Fantasy@@QAAXXZ 00044b54 f   GUI_Fantasy.obj
 0001:00033b9c       ?OnRearViewDone@CGUI_Fantasy@@QAAXHK@Z 00044b9c f   GUI_Fantasy.obj
 0001:00033d30       ?OnShowPasswordBox@CGUI_Fantasy@@QAAXIJ@Z 00044d30 f   GUI_Fantasy.obj
 0001:00033de0       ?OnPasswordBoxCmd@CGUI_Fantasy@@QAAXIJ@Z 00044de0 f   GUI_Fantasy.obj
 0001:00033e28       ?OnVehicleInfoTimerProc@CGUI_Fantasy@@QAAXXZ 00044e28 f   GUI_Fantasy.obj
 0001:00033e70       ?OnVehicleInfoCmd@CGUI_Fantasy@@QAAXIJ@Z 00044e70 f   GUI_Fantasy.obj
 0001:00033ed4       ?OnNaviMsg@CGUI_Fantasy@@QAAXIJ@Z 00044ed4 f   GUI_Fantasy.obj
 0001:00033f44       ?OnMcuUpdateCmd@CGUI_Fantasy@@QAAXIJ@Z 00044f44 f   GUI_Fantasy.obj
 0001:00033f80       ?OnNaviPathChanged@CGUI_Fantasy@@QAAXIJ@Z 00044f80 f   GUI_Fantasy.obj
 0001:00033fe8       ?OnSpeechStart@CGUI_Fantasy@@QAAXKK@Z 00044fe8 f   GUI_Fantasy.obj
 0001:000343d8       ?OnSRStart@CGUI_Fantasy@@QAAXXZ 000453d8 f   GUI_Fantasy.obj
 0001:000344cc       ?OnMHLMsg@CGUI_Fantasy@@QAAXIJ@Z 000454cc f   GUI_Fantasy.obj
 0001:00034528       ?OnAvailableSourceChanged@CGUI_Fantasy@@QAAXIJ@Z 00045528 f   GUI_Fantasy.obj
 0001:00034714       ?OnMcuUpdateMsg@CGUI_Fantasy@@QAAXIJ@Z 00045714 f   GUI_Fantasy.obj
 0001:000347e0       ?OnCanbusStatus@CGUI_Fantasy@@QAAXIJ@Z 000457e0 f   GUI_Fantasy.obj
 0001:00034860       ?OnDabServiceStartReady@CGUI_Fantasy@@QAAXIJ@Z 00045860 f   GUI_Fantasy.obj
 0001:000348a8       ?OnDabServiceLinkMsg@CGUI_Fantasy@@QAAXIJ@Z 000458a8 f   GUI_Fantasy.obj
 0001:000348f0       ?OnAndroidAutoMsg@CGUI_Fantasy@@QAAXIJ@Z 000458f0 f   GUI_Fantasy.obj
 0001:00034a60       ?OnCarPlayMACChanged@CGUI_Fantasy@@QAAXIJ@Z 00045a60 f   GUI_Fantasy.obj
 0001:00034aa8       ?OnPhoneHFState@CGUI_Fantasy@@QAAXIJ@Z 00045aa8 f   GUI_Fantasy.obj
 0001:00034af0       ?OnBluetoothSetupStatus@CGUI_Fantasy@@QAAXIJ@Z 00045af0 f   GUI_Fantasy.obj
 0001:00034b38       ?OnBluetoothMsg@CGUI_Fantasy@@QAAXIJ@Z 00045b38 f   GUI_Fantasy.obj
 0001:00034b80       ?OnWidgetChanged@CGUI_Fantasy@@QAAXIJ@Z 00045b80 f   GUI_Fantasy.obj
 0001:00034be8       ?OnSmartBarControl@CGUI_Fantasy@@QAAXIJ@Z 00045be8 f   GUI_Fantasy.obj
 0001:00034c4c       ?OnSmartBarNotify@CGUI_Fantasy@@QAAXIJ@Z 00045c4c f   GUI_Fantasy.obj
 0001:00034f0c       ?OnRingToneCmd@CGUI_Fantasy@@QAAXIJ@Z 00045f0c f   GUI_Fantasy.obj
 0001:00034f54       ?OnMediaPlayerCommand@CGUI_Fantasy@@QAAXIJ@Z 00045f54 f   GUI_Fantasy.obj
 0001:00034f9c       ?OnImagePlayerCommand@CGUI_Fantasy@@QAAXIJ@Z 00045f9c f   GUI_Fantasy.obj
 0001:00035018       ?OnSwitchMediaClassSRC@CGUI_Fantasy@@QAAHIJ@Z 00046018 f   GUI_Fantasy.obj
 0001:000351ec       ?OnRadioCommand@CGUI_Fantasy@@QAAXIJ@Z 000461ec f   GUI_Fantasy.obj
 0001:00035234       ?OniPodCommand@CGUI_Fantasy@@QAAXIJ@Z 00046234 f   GUI_Fantasy.obj
 0001:0003527c       ?OnFactoryCmd@CGUI_Fantasy@@QAAXIJ@Z 0004627c f   GUI_Fantasy.obj
 0001:000352e8       ?OniPodMsg@CGUI_Fantasy@@QAAXIJ@Z 000462e8 f   GUI_Fantasy.obj
 0001:00035330       ?OnVolumeChange@CGUI_Fantasy@@QAAXKI@Z 00046330 f   GUI_Fantasy.obj
 0001:0003552c       ?OnNotifyVolumeInfo@CGUI_Fantasy@@QAAXIJ@Z 0004652c f   GUI_Fantasy.obj
 0001:0003558c       ?OnNotifySourceInfo@CGUI_Fantasy@@QAAXIJ@Z 0004658c f   GUI_Fantasy.obj
 0001:00035614       ?OnNotifyMediaPlaybackInfo@CGUI_Fantasy@@QAAXIJ@Z 00046614 f   GUI_Fantasy.obj
 0001:00035674       ?OnNotifyRadioInfo@CGUI_Fantasy@@QAAXIJ@Z 00046674 f   GUI_Fantasy.obj
 0001:000357e4       ?EnableGPSMonitor@CGUI_Fantasy@@IAAXH@Z 000467e4 f   GUI_Fantasy.obj
 0001:00035944       ?OnVolumeFadeReday@CGUI_Fantasy@@QAAXH@Z 00046944 f   GUI_Fantasy.obj
 0001:000359dc       ?OnVolumeFadeProc@CGUI_Fantasy@@QAAKXZ 000469dc f   GUI_Fantasy.obj
 0001:00035b94       ?OnBackgroundChanged@CGUI_Fantasy@@QAAXIJ@Z 00046b94 f   GUI_Fantasy.obj
 0001:00035bfc       ??$_Uninit_copy@PAUMsgData@@PAU1@V?$allocator@UMsgData@@@std@@@std@@YAPAUMsgData@@PAU1@00AAV?$allocator@UMsgData@@@0@U_Nonscalar_ptr_iterator_tag@0@U_Range_checked_iterator_tag@0@@Z 00046bfc f i GUI_Fantasy.obj
 0001:00035c34       ?OpenPanels@CGUI_Fantasy@@AAAHI@Z 00046c34 f   GUI_Fantasy.obj
 0001:00037da4       ?OnTouchDown@CGUI_Fantasy@@UAAXPAUtagPOINT@@@Z 00048da4 f   GUI_Fantasy.obj
 0001:00037f18       ?OnTouchUp@CGUI_Fantasy@@UAAXPAUtagPOINT@@@Z 00048f18 f   GUI_Fantasy.obj
 0001:000380f4       ?OnTouchMove@CGUI_Fantasy@@UAAXPAUtagPOINT@@@Z 000490f4 f   GUI_Fantasy.obj
 0001:000381f8       ?OnDeviceArrived@CGUI_Fantasy@@QAAXPB_W@Z 000491f8 f   GUI_Fantasy.obj
 0001:000385ac       ?OnDeviceRemoved@CGUI_Fantasy@@QAAXPB_W@Z 000495ac f   GUI_Fantasy.obj
 0001:00038968       ?OnRearViewDoneTimerProc@CGUI_Fantasy@@QAAXXZ 00049968 f   GUI_Fantasy.obj
 0001:000389d8       ?OnShowKeyboard@CGUI_Fantasy@@QAAXIJ@Z 000499d8 f   GUI_Fantasy.obj
 0001:00038a68       ?OnShowExplorer@CGUI_Fantasy@@QAAXIJ@Z 00049a68 f   GUI_Fantasy.obj
 0001:00038af8       ?RenderSetMACScreen@CGUI_Fantasy@@IAAXXZ 00049af8 f   GUI_Fantasy.obj
 0001:00038bec       ?OnBluetoothCommand@CGUI_Fantasy@@QAAXIJ@Z 00049bec f   GUI_Fantasy.obj
 0001:00038c7c       ?OnPanelChange@CGUI_Fantasy@@QAAHIIIPAXH@Z 00049c7c f   GUI_Fantasy.obj
 0001:0003944c       ?Mute@CGUI_Fantasy@@AAAXHHH@Z 0004a44c f   GUI_Fantasy.obj
 0001:00039658       ?SetVolume@CGUI_Fantasy@@IAAXHHHHHH@Z 0004a658 f   GUI_Fantasy.obj
 0001:00039804       ?UpdateVolume@CGUI_Fantasy@@AAAXI@Z 0004a804 f   GUI_Fantasy.obj
 0001:000398a0       ??H?$_Vector_iterator@U_ArtworkFormat@@V?$allocator@U_ArtworkFormat@@@std@@@std@@QBA?AV01@H@Z 0004a8a0 f i iAP_lib:Player.obj
 0001:000398a0       ??H?$_Vector_iterator@UMsgData@@V?$allocator@UMsgData@@@std@@@std@@QBA?AV01@H@Z 0004a8a0 f i GUI_Fantasy.obj
 0001:000398e4       ??$_Uninit_fill_n@PAUMsgData@@IU1@V?$allocator@UMsgData@@@std@@@std@@YAXPAUMsgData@@IABU1@AAV?$allocator@UMsgData@@@0@U_Nonscalar_ptr_iterator_tag@0@U_Range_checked_iterator_tag@0@@Z 0004a8e4 f i GUI_Fantasy.obj
 0001:00039918       ?Initialize@CGUI_Fantasy@@UAAHPAUHWND__@@U_TMODULEENTRY@@H@Z 0004a918 f   GUI_Fantasy.obj
 0001:0003a4cc       ?OnLoadModules@CGUI_Fantasy@@QAAXXZ 0004b4cc f   GUI_Fantasy.obj
 0001:0003a66c       ?Render@CGUI_Fantasy@@UAAXXZ 0004b66c f   GUI_Fantasy.obj
 0001:0003a8dc       ?OnDeviceArrivedReady@CGUI_Fantasy@@QAAXIJ@Z 0004b8dc f   GUI_Fantasy.obj
 0001:0003a978       ?OnDeviceRemovedReady@CGUI_Fantasy@@QAAXIJ@Z 0004b978 f   GUI_Fantasy.obj
 0001:0003a9c0       ?OnShowMsgBox@CGUI_Fantasy@@QAAXIJ@Z 0004b9c0 f   GUI_Fantasy.obj
 0001:0003aa8c       ?OnVehicleSpeed@CGUI_Fantasy@@QAAXIJ@Z 0004ba8c f   GUI_Fantasy.obj
 0001:0003ad0c       ?OnSystemPrePowerState@CGUI_Fantasy@@QAAXI@Z 0004bd0c f   GUI_Fantasy.obj
 0001:0003ae18       ?OnMuteKey@CGUI_Fantasy@@QAAXH@Z 0004be18 f   GUI_Fantasy.obj
 0001:0003b380       ?MuteReleaseProc@CGUI_Fantasy@@AAAXXZ 0004c380 f   GUI_Fantasy.obj
 0001:0003b3c0       ?MuteReleaseThreadPro@CGUI_Fantasy@@CAKPAX@Z 0004c3c0 f   GUI_Fantasy.obj
 0001:0003b3d4       ?OnMuteMsg@CGUI_Fantasy@@QAAXIJ@Z 0004c3d4 f   GUI_Fantasy.obj
 0001:0003b534       ?OnVolumeConfigMsg@CGUI_Fantasy@@QAAHIJ@Z 0004c534 f   GUI_Fantasy.obj
 0001:0003b6e4       ?OnSwitchAudioSRC@CGUI_Fantasy@@QAAHIJ@Z 0004c6e4 f   GUI_Fantasy.obj
 0001:0003b8d8       ?OnPanelChange@CGUI_Fantasy@@QAAHPAU_SWITCH_PAGE_PARAM_@@@Z 0004c8d8 f   GUI_Fantasy.obj
 0001:0003b93c       ?OnNotifyRdsTAStatus@CGUI_Fantasy@@QAAXIJ@Z 0004c93c f   GUI_Fantasy.obj
 0001:0003ba38       ?AutoOpenSRC@CGUI_Fantasy@@AAAXXZ 0004ca38 f   GUI_Fantasy.obj
 0001:0003bcf0       ?AdjustVolume@CGUI_Fantasy@@AAAXH@Z 0004ccf0 f   GUI_Fantasy.obj
 0001:0003bea0       ?PowerOn@CGUI_Fantasy@@AAAXXZ 0004cea0 f   GUI_Fantasy.obj
 0001:0003c54c       ?OnTouchMsg@CGUI_Fantasy@@QAAXPAU_MULTI_POINT_COORDINATE_@@@Z 0004d54c f   GUI_Fantasy.obj
 0001:0003d118       ?OnSpeechTerminate@CGUI_Fantasy@@QAAXXZ 0004e118 f   GUI_Fantasy.obj
 0001:0003d478       ?OnSRTerminate@CGUI_Fantasy@@QAAXXZ 0004e478 f   GUI_Fantasy.obj
 0001:0003d634       ?OnSpeechMsg@CGUI_Fantasy@@QAAXIJ@Z 0004e634 f   GUI_Fantasy.obj
 0001:0003d830       ?OnCarPlayMsg@CGUI_Fantasy@@QAAXIJ@Z 0004e830 f   GUI_Fantasy.obj
 0001:0003dd28       ?OnSpeechEnableMsg@CGUI_Fantasy@@QAAHIJ@Z 0004ed28 f   GUI_Fantasy.obj
 0001:0003dd88       ?_Ufill@?$vector@UMsgData@@V?$allocator@UMsgData@@@std@@@std@@IAAPAUMsgData@@PAU3@IABU3@@Z 0004ed88 f i GUI_Fantasy.obj
 0001:0003ddd4       ?OnAutoOpenSrc@CGUI_Fantasy@@QAAXXZ 0004edd4 f   GUI_Fantasy.obj
 0001:0003e038       ?OnCarPlayArrived@CGUI_Fantasy@@QAAXXZ 0004f038 f   GUI_Fantasy.obj
 0001:0003e0ac       ?OnCarPlayRemove@CGUI_Fantasy@@QAAXXZ 0004f0ac f   GUI_Fantasy.obj
 0001:0003e0e4       ?PowerIdle@CGUI_Fantasy@@AAAXXZ 0004f0e4 f   GUI_Fantasy.obj
 0001:0003e254       ?PowerOff@CGUI_Fantasy@@AAAXXZ 0004f254 f   GUI_Fantasy.obj
 0001:0003e2d0       ?ProcessPhoneCallState@CGUI_Fantasy@@AAAXIJ@Z 0004f2d0 f   GUI_Fantasy.obj
 0001:0003e714       ?erase@?$vector@UMsgData@@V?$allocator@UMsgData@@@std@@@std@@QAA?AV?$_Vector_iterator@UMsgData@@V?$allocator@UMsgData@@@std@@@2@V32@0@Z 0004f714 f i GUI_Fantasy.obj
 0001:0003e7ac       ??$_Umove@PAUMsgData@@@?$vector@UMsgData@@V?$allocator@UMsgData@@@std@@@std@@IAAPAUMsgData@@PAU2@00@Z 0004f7ac f i GUI_Fantasy.obj
 0001:0003e7f4       ?OnReverseModeChange@CGUI_Fantasy@@AAAXH@Z 0004f7f4 f   GUI_Fantasy.obj
 0001:0003ea90       ?OnSystemPowerState@CGUI_Fantasy@@QAAXI@Z 0004fa90 f   GUI_Fantasy.obj
 0001:0003ec2c       ?PreparePowerIdle@CGUI_Fantasy@@AAAXXZ 0004fc2c f   GUI_Fantasy.obj
 0001:0003ecdc       ?PreparePowerOn@CGUI_Fantasy@@AAAXXZ 0004fcdc f   GUI_Fantasy.obj
 0001:0003ed94       ?OnSRMsg@CGUI_Fantasy@@QAAXIJ@Z 0004fd94 f   GUI_Fantasy.obj
 0001:0003ee64       ??1?$vector@U_ArtworkFormat@@V?$allocator@U_ArtworkFormat@@@std@@@std@@QAA@XZ 0004fe64 f i iAP_lib:Player.obj
 0001:0003ee64       ??1?$vector@EV?$allocator@E@std@@@std@@QAA@XZ 0004fe64 f i iAP_lib:iAPTransceiver.obj
 0001:0003ee64       ??1?$vector@PAVAuthenticationListener@iAP@@V?$allocator@PAVAuthenticationListener@iAP@@@std@@@std@@QAA@XZ 0004fe64 f i iAP_lib:AuthenticationMgr.obj
 0001:0003ee64       ??1?$vector@UMsgData@@V?$allocator@UMsgData@@@std@@@std@@QAA@XZ 0004fe64 f i GUI_Fantasy.obj
 0001:0003ee90       ?clear@?$vector@UMsgData@@V?$allocator@UMsgData@@@std@@@std@@QAAXXZ 0004fe90 f i GUI_Fantasy.obj
 0001:0003eef0       ??1CGUI_Fantasy@@UAA@XZ    0004fef0 f   GUI_Fantasy.obj
 0001:0003f2a4       ?OnReverseTimerProc@CGUI_Fantasy@@QAAXXZ 000502a4 f   GUI_Fantasy.obj
 0001:0003f2f4       ?OnRearViewPrepare@CGUI_Fantasy@@QAAXH@Z 000502f4 f   GUI_Fantasy.obj
 0001:0003f38c       ?OnMCUCmd@CGUI_Fantasy@@QAAXIJ@Z 0005038c f   GUI_Fantasy.obj
 0001:0004085c       ?OnKey@CGUI_Fantasy@@QAAXII@Z 0005185c f   GUI_Fantasy.obj
 0001:00041de8       ?at@?$vector@UMsgData@@V?$allocator@UMsgData@@@std@@@std@@QAAAAUMsgData@@I@Z 00052de8 f i GUI_Fantasy.obj
 0001:00041e68       ?_Insert_n@?$vector@UMsgData@@V?$allocator@UMsgData@@@std@@@std@@IAAXV?$_Vector_iterator@UMsgData@@V?$allocator@UMsgData@@@std@@@2@IABUMsgData@@@Z 00052e68 f i GUI_Fantasy.obj
 0001:000420f0       ??_GCGUI_Fantasy@@UAAPAXI@Z 000530f0 f i GUI_Fantasy.obj
 0001:000420f0       ??_ECGUI_Fantasy@@UAAPAXI@Z 000530f0 f i GUI_Fantasy.obj
 0001:00042114       ?OnRearViewPreDoneTimerProc@CGUI_Fantasy@@QAAXXZ 00053114 f   GUI_Fantasy.obj
 0001:00042190       ?OnSystemPowerOperationReady@CGUI_Fantasy@@QAAXXZ 00053190 f   GUI_Fantasy.obj
 0001:00042238       ?insert@?$vector@UMsgData@@V?$allocator@UMsgData@@@std@@@std@@QAA?AV?$_Vector_iterator@UMsgData@@V?$allocator@UMsgData@@@std@@@2@V32@ABUMsgData@@@Z 00053238 f i GUI_Fantasy.obj
 0001:000422fc       ??0CGUI_Fantasy@@QAA@XZ    000532fc f   GUI_Fantasy.obj
 0001:000426c8       ?push_back@?$vector@UMsgData@@V?$allocator@UMsgData@@@std@@@std@@QAAXABUMsgData@@@Z 000536c8 f i GUI_Fantasy.obj
 0001:00042758       ?OnPhoneCallState@CGUI_Fantasy@@QAAXIJ@Z 00053758 f   GUI_Fantasy.obj
 0001:00042834       ??0CPanelKeyboard@@QAA@XZ  00053834 f   PanelKeyboard.obj
 0001:000428b4       ??1CPanelKeyboard@@UAA@XZ  000538b4 f   PanelKeyboard.obj
 0001:00042904       ?Render@CPanelKeyboard@@UAAXXZ 00053904 f   PanelKeyboard.obj
 0001:00042904       ?Render@CPanelVehicleInfoRadar@@UAAXXZ 00053904 f   PanelVehicleInfoRadar.obj
 0001:00042954       ?Initialize@CPanelKeyboard@@UAAHIPAVCPanelGL@@PAVCSkinManagerGL@@PAVCTextGL@@PAUHWND__@@U_TMODULEENTRY@@@Z 00053954 f   PanelKeyboard.obj
 0001:00042a24       ?OnTouchUp@CPanelKeyboard@@UAAXPAUtagPOINT@@@Z 00053a24 f   PanelKeyboard.obj
 0001:00042b14       ?OnTouchMove@CPanelVehicleInfoBody@@UAAXPAUtagPOINT@@@Z 00053b14 f   PanelVehicleInfoBody.obj
 0001:00042b14       ?OnTouchMove@CPanelImageMain@@UAAXPAUtagPOINT@@@Z 00053b14 f   PanelImageMain.obj
 0001:00042b14       ?OnTouchMove@CPanelKeyboard@@UAAXPAUtagPOINT@@@Z 00053b14 f   PanelKeyboard.obj
 0001:00042b14       ?OnTouchMove@CPanelEasyConnected@@UAAXPAUtagPOINT@@@Z 00053b14 f   PanelEasyConnected.obj
 0001:00042b14       ?OnTouchMove@CPanelExplorer@@UAAXPAUtagPOINT@@@Z 00053b14 f   PanelExplorer.obj
 0001:00042b14       ?OnTouchMove@CPanelWidget@@UAAXPAUtagPOINT@@@Z 00053b14 f   PanelWidget.obj
 0001:00042b14       ?OnTouchMove@CPanelCarPlay@@UAAXPAUtagPOINT@@@Z 00053b14 f   PanelCarPlay.obj
 0001:00042b14       ?OnTouchMove@CPanelWebLink@@UAAXPAUtagPOINT@@@Z 00053b14 f   PanelWebLink.obj
 0001:00042b14       ?OnTouchMove@CPanelMHL@@UAAXPAUtagPOINT@@@Z 00053b14 f   PanelMHL.obj
 0001:00042b14       ?OnTouchMove@CPanelAndroidAuto@@UAAXPAUtagPOINT@@@Z 00053b14 f   PanelAndroidAuto.obj
 0001:00042b14       ?OnTouchMove@CPanelPhoneLink@@UAAXPAUtagPOINT@@@Z 00053b14 f   PanelPhoneLink.obj
 0001:00042b18       ?SetNotification@CPanelKeyboard@@QAAXPAU_KEYBOARDMSG@@@Z 00053b18 f   PanelKeyboard.obj
 0001:00042ba8       ??_GCPanelKeyboard@@UAAPAXI@Z 00053ba8 f i PanelKeyboard.obj
 0001:00042ba8       ??_ECPanelKeyboard@@UAAPAXI@Z 00053ba8 f i PanelKeyboard.obj
 0001:00042bd4       ??HCM_String@UTIL@@QBA?AV01@ABV01@@Z 00053bd4 f i PanelExplorer.obj
 0001:00042d24       ??0CPanelExplorer@@QAA@XZ  00053d24 f   PanelExplorer.obj
 0001:00042e50       ??1CPanelExplorer@@UAA@XZ  00053e50 f   PanelExplorer.obj
 0001:00042f68       ?Render@CPanelExplorer@@UAAXXZ 00053f68 f   PanelExplorer.obj
 0001:00043068       ?OnTouchDown@CPanelUpdate@@UAAXPAUtagPOINT@@@Z 00054068 f   PanelUpdate.obj
 0001:00043068       ?OnTouchDown@CPanelExplorer@@UAAXPAUtagPOINT@@@Z 00054068 f   PanelExplorer.obj
 0001:00043068       ?OnTouchDown@CPanelImageMain@@UAAXPAUtagPOINT@@@Z 00054068 f   PanelImageMain.obj
 0001:00043068       ?OnTouchDown@CPanelPowerState@@UAAXPAUtagPOINT@@@Z 00054068 f   PanelPowerState.obj
 0001:00043068       ?OnTouchDown@CPanelAndroidAuto@@UAAXPAUtagPOINT@@@Z 00054068 f   PanelAndroidAuto.obj
 0001:00043068       ?OnTouchDown@CPanelEasyConnected@@UAAXPAUtagPOINT@@@Z 00054068 f   PanelEasyConnected.obj
 0001:00043068       ?OnTouchDown@CPanelNotification@@UAAXPAUtagPOINT@@@Z 00054068 f   PanelNotification.obj
 0001:00043068       ?OnTouchDown@CPanelDevConnectMgr@@UAAXPAUtagPOINT@@@Z 00054068 f   PanelDevConnectMgr.obj
 0001:00043068       ?OnTouchDown@CPanelUpdateARM@@UAAXPAUtagPOINT@@@Z 00054068 f   PanelUpdateARM.obj
 0001:00043068       ?OnTouchDown@CPanelVehicleInfoBody@@UAAXPAUtagPOINT@@@Z 00054068 f   PanelVehicleInfoBody.obj
 0001:00043068       ?OnTouchDown@CPanelPassword@@UAAXPAUtagPOINT@@@Z 00054068 f   PanelPassword.obj
 0001:00043068       ?OnTouchDown@CPanelWebLink@@UAAXPAUtagPOINT@@@Z 00054068 f   PanelWebLink.obj
 0001:00043068       ?OnTouchDown@CPanelMHL@@UAAXPAUtagPOINT@@@Z 00054068 f   PanelMHL.obj
 0001:00043068       ?OnTouchDown@CPanelKeyboard@@UAAXPAUtagPOINT@@@Z 00054068 f   PanelKeyboard.obj
 0001:00043068       ?OnTouchDown@CPanelCarPlay@@UAAXPAUtagPOINT@@@Z 00054068 f   PanelCarPlay.obj
 0001:00043068       ?OnTouchDown@CPanelPhoneLink@@UAAXPAUtagPOINT@@@Z 00054068 f   PanelPhoneLink.obj
 0001:00043074       ?OnTouchUp@CPanelExplorer@@UAAXPAUtagPOINT@@@Z 00054074 f   PanelExplorer.obj
 0001:000431c0       ?HandleControlMSG@CPanelExplorer@@MAAXKKKPAX@Z 000541c0 f   PanelExplorer.obj
 0001:00043224       ?OnNotify@CPanelExplorer@@SAXKKKPAX0@Z 00054224 f   PanelExplorer.obj
 0001:0004326c       ?OnKey@CPanelExplorer@@UAAHII@Z 0005426c f   PanelExplorer.obj
 0001:000433dc       ?SetNotification@CPanelExplorer@@QAAXPAU_EXPLORERMSG@@@Z 000543dc f   PanelExplorer.obj
 0001:00043468       ?OnBack@CPanelExplorer@@UAAXXZ 00054468 f   PanelExplorer.obj
 0001:000434c0       ??_GCPanelExplorer@@UAAPAXI@Z 000544c0 f i PanelExplorer.obj
 0001:000434c0       ??_ECPanelExplorer@@UAAPAXI@Z 000544c0 f i PanelExplorer.obj
 0001:000434e4       ?Initialize@CPanelExplorer@@UAAHIPAVCPanelGL@@PAVCSkinManagerGL@@PAVCTextGL@@PAUHWND__@@U_TMODULEENTRY@@@Z 000544e4 f   PanelExplorer.obj
 0001:00043668       ??0CPanelNotification@@QAA@XZ 00054668 f   PanelNotification.obj
 0001:000437bc       ??1CPanelNotification@@UAA@XZ 000547bc f   PanelNotification.obj
 0001:000438d8       ?OnEnterPanel@CPanelNotification@@UAAXIIPAX@Z 000548d8 f   PanelNotification.obj
 0001:00043924       ?Render@CPanelNotification@@UAAXXZ 00054924 f   PanelNotification.obj
 0001:00043bc8       ?HideNotification@CPanelNotification@@QAAXXZ 00054bc8 f   PanelNotification.obj
 0001:00043be8       ?HandleControlMSG@CPanelNotification@@MAAXKKKPAX@Z 00054be8 f   PanelNotification.obj
 0001:00043cdc       ?SetNotification@CPanelNotification@@QAAXPAU_NBMSG@@@Z 00054cdc f   PanelNotification.obj
 0001:00043da0       ?OnBack@CPanelNotification@@UAAXXZ 00054da0 f   PanelNotification.obj
 0001:00043ddc       ??_ECPanelNotification@@UAAPAXI@Z 00054ddc f i PanelNotification.obj
 0001:00043ddc       ??_GCPanelNotification@@UAAPAXI@Z 00054ddc f i PanelNotification.obj
 0001:00043e00       ?Initialize@CPanelNotification@@UAAHIPAVCPanelGL@@PAVCSkinManagerGL@@PAVCTextGL@@PAUHWND__@@U_TMODULEENTRY@@@Z 00054e00 f   PanelNotification.obj
 0001:000441e0       ?Render@CPanelRadioLibrary@@UAAXXZ 000551e0 f   PanelRadioLibrary.obj
 0001:00044514       ?SetShowType@CPanelRadioLibrary@@AAAXW4RADIO_LIBRARY_TYPE@@@Z 00055514 f   PanelRadioLibrary.obj
 0001:000446a0       ?SetRadioRegion@CPanelRadioLibrary@@QAAXW4_RadioRegionId@@H@Z 000556a0 f   PanelRadioLibrary.obj
 0001:000446ac       ?OnUpdateRadioPlayInfo@CPanelRadioLibrary@@QAAHXZ 000556ac f   PanelRadioLibrary.obj
 0001:00044738       ?AddFavorite@CPanelRadioLibrary@@QAAXKW4_RadioBandId@@W4_RadioRegionId@@PB_W@Z 00055738 f   PanelRadioLibrary.obj
 0001:00044a9c       ?DeleteFavorite@CPanelRadioLibrary@@QAAXK@Z 00055a9c f   PanelRadioLibrary.obj
 0001:00044b3c       ?GetFMListCnt@CPanelRadioLibrary@@QAAHXZ 00055b3c f   PanelRadioLibrary.obj
 0001:00044b4c       ?GetAMListCnt@CPanelRadioLibrary@@QAAHXZ 00055b4c f   PanelRadioLibrary.obj
 0001:00044b5c       ?GetFMStorageIndex@CPanelRadioLibrary@@QAAHK@Z 00055b5c f   PanelRadioLibrary.obj
 0001:00044b6c       ?GetAMStorageIndex@CPanelRadioLibrary@@QAAHK@Z 00055b6c f   PanelRadioLibrary.obj
 0001:00044b7c       ?GetNextFM@CPanelRadioLibrary@@QAAKXZ 00055b7c f   PanelRadioLibrary.obj
 0001:00044bf4       ?GetPrevFM@CPanelRadioLibrary@@QAAKXZ 00055bf4 f   PanelRadioLibrary.obj
 0001:00044c6c       ?GetNextAM@CPanelRadioLibrary@@QAAKXZ 00055c6c f   PanelRadioLibrary.obj
 0001:00044ce4       ?GetPrevAM@CPanelRadioLibrary@@QAAKXZ 00055ce4 f   PanelRadioLibrary.obj
 0001:00044d5c       ?IsFavorite@CPanelRadioLibrary@@QAAHK@Z 00055d5c f   PanelRadioLibrary.obj
 0001:00044d88       ?GetFavData@CPanelRadioLibrary@@AAAHXZ 00055d88 f   PanelRadioLibrary.obj
 0001:00044fa8       ??0?$CM_List@U_RadioStationInfo@@@@QAA@XZ 00055fa8 f i PanelRadioLibrary.obj
 0001:00044fc4       ?OnEnterPanel@CPanelRadioLibrary@@UAAXIIPAX@Z 00055fc4 f   PanelRadioLibrary.obj
 0001:00045044       ?HandleControlMSG@CPanelRadioLibrary@@MAAXKKKPAX@Z 00056044 f   PanelRadioLibrary.obj
 0001:0004534c       ?ReloadList@CPanelRadioLibrary@@AAAXW4_RadioRegionId@@H@Z 0005634c f   PanelRadioLibrary.obj
 0001:00045950       ?SaveFavData@CPanelRadioLibrary@@AAAHXZ 00056950 f   PanelRadioLibrary.obj
 0001:00045c58       ?SaveRegionPresetData@CPanelRadioLibrary@@AAAHW4_RadioRegionId@@@Z 00056c58 f   PanelRadioLibrary.obj
 0001:00045ff8       ?OnSystemPowerStatePrepare@CPanelRadioLibrary@@UAAXI@Z 00056ff8 f   PanelRadioLibrary.obj
 0001:0004603c       ?AddFM@CPanelRadioLibrary@@QAAXK@Z 0005703c f   PanelRadioLibrary.obj
 0001:000462b4       ?AddAM@CPanelRadioLibrary@@QAAXK@Z 000572b4 f   PanelRadioLibrary.obj
 0001:00046534       ?UpdateListPS@CPanelRadioLibrary@@AAAXXZ 00057534 f   PanelRadioLibrary.obj
 0001:00046688       ?SetPS@CPanelRadioLibrary@@QAAXPB_W@Z 00057688 f   PanelRadioLibrary.obj
 0001:000466e4       ?GetRegionPresetData@CPanelRadioLibrary@@AAAHW4_RadioRegionId@@@Z 000576e4 f   PanelRadioLibrary.obj
 0001:00046a20       ?Clear@?$CM_List@UContactInfo@@@@QAAXXZ 00057a20 f i PanelBluetoothWrapper.obj
 0001:00046a20       ?Clear@?$CM_List@VCListBoxItemGL@@@@QAAXXZ 00057a20 f i FantasyLib:ListBoxGL.obj
 0001:00046a20       ?Clear@?$CM_List@U_RadioStationInfo@@@@QAAXXZ 00057a20 f i PanelRadioLibrary.obj
 0001:00046a20       ?Clear@?$CM_List@U_IMAGE_THUMB@@@@QAAXXZ 00057a20 f i PanelSettingBackground.obj
 0001:00046a84       ??0CPanelRadioLibrary@@QAA@XZ 00057a84 f   PanelRadioLibrary.obj
 0001:000470bc       ??1CPanelRadioLibrary@@UAA@XZ 000580bc f   PanelRadioLibrary.obj
 0001:00047594       ?Initialize@CPanelRadioLibrary@@UAAHIPAVCPanelGL@@PAVCSkinManagerGL@@PAVCTextGL@@PAUHWND__@@U_TMODULEENTRY@@@Z 00058594 f   PanelRadioLibrary.obj
 0001:000487a4       ?ClearList@CPanelRadioLibrary@@QAAXW4_RadioBandId@@@Z 000597a4 f   PanelRadioLibrary.obj
 0001:000489ac       ?OnMCUCmd@CPanelRadioLibrary@@UAAXIJ@Z 000599ac f   PanelRadioLibrary.obj
 0001:00048ef8       ??_ECPanelRadioLibrary@@UAAPAXI@Z 00059ef8 f i PanelRadioLibrary.obj
 0001:00048ef8       ??_GCPanelRadioLibrary@@UAAPAXI@Z 00059ef8 f i PanelRadioLibrary.obj
 0001:00048f1c       ?OnTouchDown@CPanelRadioMain@@UAAXPAUtagPOINT@@@Z 00059f1c f   PanelRadioMain.obj
 0001:000490d4       ?OnGesture@CPanelRadioMain@@UAAXPAUtagGESTUREINFO@@@Z 0005a0d4 f   PanelRadioMain.obj
 0001:00049160       ?OnGestureMsg@CPanelRadioMain@@UAAXI@Z 0005a160 f   PanelRadioMain.obj
 0001:000491dc       ?IsReady@CPanelRadioMain@@UAAHXZ 0005a1dc f   PanelRadioMain.obj
 0001:00049234       ?OnEnterPanel@CPanelRadioMain@@UAAXIIPAX@Z 0005a234 f   PanelRadioMain.obj
 0001:000494c0       ?SetScaleOffset@CPanelRadioMain@@AAAXMH@Z 0005a4c0 f   PanelRadioMain.obj
 0001:00049890       ?UpdateRegionDisplay@CPanelRadioMain@@AAAXW4_RadioRegionId@@@Z 0005a890 f   PanelRadioMain.obj
 0001:00049950       ?UpdateScaleForBand@CPanelRadioMain@@AAAXW4_RadioBandId@@@Z 0005a950 f   PanelRadioMain.obj
 0001:00049bfc       ?ApplyCurrentScaleFreq@CPanelRadioMain@@AAAXXZ 0005abfc f   PanelRadioMain.obj
 0001:00049dd8       ?StopScaleAni@CPanelRadioMain@@AAAXXZ 0005add8 f   PanelRadioMain.obj
 0001:0004a0d8       ?SetNowPlayingTitle@CPanelRadioMain@@QAAXPB_W@Z 0005b0d8 f   PanelRadioMain.obj
 0001:0004a12c       ?SetFavStatus@CPanelRadioMain@@QAAXH@Z 0005b12c f   PanelRadioMain.obj
 0001:0004a14c       ?SetFreq@CPanelRadioMain@@QAAXKH@Z 0005b14c f   PanelRadioMain.obj
 0001:0004a344       ?SetRT@CPanelRadioMain@@QAAXPB_W@Z 0005b344 f   PanelRadioMain.obj
 0001:0004a4bc       ?SetPTY@CPanelRadioMain@@QAAXW4_ProgramType@@@Z 0005b4bc f   PanelRadioMain.obj
 0001:0004a5a8       ?ShowPSForCurrentFreq@CPanelRadioMain@@QAAXHH@Z 0005b5a8 f   PanelRadioMain.obj
 0001:0004a8ac       ?OnNotify@CPanelRadioMain@@SAXKKKPAX0@Z 0005b8ac f   PanelRadioMain.obj
 0001:0004a90c       ?DeleteQuickFav@CPanelRadioMain@@QAAXK@Z 0005b90c f   PanelRadioMain.obj
 0001:0004aa00       ?ShowQuickFav@CPanelRadioMain@@AAAXHH@Z 0005ba00 f   PanelRadioMain.obj
 0001:0004aef4       ?SaveQuickFavData@CPanelRadioMain@@AAAHXZ 0005bef4 f   PanelRadioMain.obj
 0001:0004b100       ?SetDebugRadioSignalData@CPanelRadioMain@@QAAXIPBUSIGNAL_DATA@@@Z 0005c100 f   PanelRadioMain.obj
 0001:0004b260       ?SetDebugAFData@CPanelRadioMain@@QAAXPBU_AFData@@@Z 0005c260 f   PanelRadioMain.obj
 0001:0004b288       ?SetDebugPIData@CPanelRadioMain@@QAAXGG@Z 0005c288 f   PanelRadioMain.obj
 0001:0004b354       ?ClearDebugData@CPanelRadioMain@@QAAXXZ 0005c354 f   PanelRadioMain.obj
 0001:0004b3c0       ?OnTouchUp@CPanelRadioMain@@UAAXPAUtagPOINT@@@Z 0005c3c0 f   PanelRadioMain.obj
 0001:0004b5cc       ?OnTouchMove@CPanelRadioMain@@UAAXPAUtagPOINT@@@Z 0005c5cc f   PanelRadioMain.obj
 0001:0004b744       ?OnQuitPanel@CPanelRadioMain@@UAAXIIPAX@Z 0005c744 f   PanelRadioMain.obj
 0001:0004b7c8       ?Render@CPanelRadioMain@@UAAXXZ 0005c7c8 f   PanelRadioMain.obj
 0001:0004c994       ?SaveRdsListData@CPanelRadioMain@@AAAHXZ 0005d994 f   PanelRadioMain.obj
 0001:0004cb98       ?GetFreqPI@CPanelRadioMain@@QAA?BKK@Z 0005db98 f   PanelRadioMain.obj
 0001:0004cbe0       ?GetFreqPS@CPanelRadioMain@@AAAPB_WK@Z 0005dbe0 f   PanelRadioMain.obj
 0001:0004cc50       ?OnSystemPowerStatePrepare@CPanelRadioMain@@UAAXI@Z 0005dc50 f   PanelRadioMain.obj
 0001:0004cc7c       ?OnUpdateRadioPlayInfo@CPanelRadioMain@@QAAHXZ 0005dc7c f   PanelRadioMain.obj
 0001:0004cd68       ?UpdateQuickFavList@CPanelRadioMain@@AAAXXZ 0005dd68 f   PanelRadioMain.obj
 0001:0004cf94       ?AutoUpdateQuickFav@CPanelRadioMain@@QAAXKH@Z 0005df94 f   PanelRadioMain.obj
 0001:0004d494       ?UpdateRdsList@CPanelRadioMain@@AAAXKPB_WK@Z 0005e494 f   PanelRadioMain.obj
 0001:0004d678       ?GetQuickFavData@CPanelRadioMain@@AAAHXZ 0005e678 f   PanelRadioMain.obj
 0001:0004d8dc       ??0CPanelRadioMain@@QAA@XZ 0005e8dc f   PanelRadioMain.obj
 0001:0004e404       ??1CPanelRadioMain@@UAA@XZ 0005f404 f   PanelRadioMain.obj
 0001:0004ebcc       ?SetBand@CPanelRadioMain@@QAAXW4_RadioBandId@@@Z 0005fbcc f   PanelRadioMain.obj
 0001:0004ed20       ?OnMCUCmd@CPanelRadioMain@@UAAXIJ@Z 0005fd20 f   PanelRadioMain.obj
 0001:0004f660       ?SetPI@CPanelRadioMain@@QAAXKK@Z 00060660 f   PanelRadioMain.obj
 0001:0004f6b8       ?SetPS@CPanelRadioMain@@QAAXPB_W@Z 000606b8 f   PanelRadioMain.obj
 0001:0004f824       ?HandleControlMSG@CPanelRadioMain@@MAAXKKKPAX@Z 00060824 f   PanelRadioMain.obj
 0001:0004fc40       ?GetRdsListData@CPanelRadioMain@@AAAHXZ 00060c40 f   PanelRadioMain.obj
 0001:0004fe38       ??_ECPanelRadioMain@@UAAPAXI@Z 00060e38 f i PanelRadioMain.obj
 0001:0004fe38       ??_GCPanelRadioMain@@UAAPAXI@Z 00060e38 f i PanelRadioMain.obj
 0001:0004fe64       ?Initialize@CPanelRadioMain@@UAAHIPAVCPanelGL@@PAVCSkinManagerGL@@PAVCTextGL@@PAUHWND__@@U_TMODULEENTRY@@@Z 00060e64 f   PanelRadioMain.obj
 0001:000523a4       ?OnSRStart@CPanelRadioWrapper@@UAAXXZ 000633a4 f   PanelRadioWrapper.obj
 0001:000523c8       ?OnSRTerminate@CPanelRadioWrapper@@UAAXXZ 000633c8 f   PanelRadioWrapper.obj
 0001:000523ec       ?OnSpeechStart@CPanelRadioWrapper@@UAAXXZ 000633ec f   PanelRadioWrapper.obj
 0001:00052410       ?OnSpeechTerminate@CPanelRadioWrapper@@UAAXXZ 00063410 f   PanelRadioWrapper.obj
 0001:00052434       ?AbortCurrentRdsProcess@CPanelRadioWrapper@@AAAXXZ 00063434 f   PanelRadioWrapper.obj
 0001:000524fc       ?Pause@CPanelRadioWrapper@@AAAXXZ 000634fc f   PanelRadioWrapper.obj
 0001:0005252c       ?LinkSmartBarMedia@CPanelRadioWrapper@@QAAXPAVCSmartBarMedia@@@Z 0006352c f   PanelRadioWrapper.obj
 0001:00052540       ?OnUpdateRadioPlayInfo@CPanelRadioWrapper@@QAAXXZ 00063540 f   PanelRadioWrapper.obj
 0001:0005257c       ?OnTAStatus@CPanelRadioWrapper@@QAAXH@Z 0006357c f   PanelRadioWrapper.obj
 0001:00052854       ?OnRadioMonitorTA@CPanelRadioWrapper@@QAAXXZ 00063854 f   PanelRadioWrapper.obj
 0001:00052a98       ?OnPhoneCallState@CPanelRadioWrapper@@UAAXIJ@Z 00063a98 f   PanelRadioWrapper.obj
 0001:00052adc       ?LinkPages@CPanelRadioWrapper@@QAAXPAVCPanelRadioMain@@PAVCPanelRadioLibrary@@@Z 00063adc f   PanelRadioWrapper.obj
 0001:00052aec       ?SetPixelClock@CPanelRadioWrapper@@SAHI@Z 00063aec f   PanelRadioWrapper.obj
 0001:00052b7c       ?GetPixelClock@CPanelRadioWrapper@@SAHPAI@Z 00063b7c f   PanelRadioWrapper.obj
 0001:00052c10       ?SetLcdoscRatioOffset@CPanelRadioWrapper@@QAAXK@Z 00063c10 f   PanelRadioWrapper.obj
 0001:00052cc0       ?AnalyzeRT@CPanelRadioWrapper@@AAAXPAEH@Z 00063cc0 f   PanelRadioWrapper.obj
 0001:00052ddc       ?AnalyzePS@CPanelRadioWrapper@@AAAXPAEH@Z 00063ddc f   PanelRadioWrapper.obj
 0001:00052fc0       ?OnSRCChanged@CPanelRadioWrapper@@UAAXI@Z 00063fc0 f   PanelRadioWrapper.obj
 0001:00053040       ?EnableRDS@CPanelRadioWrapper@@AAAXH@Z 00064040 f   PanelRadioWrapper.obj
 0001:00053104       ?OnDabServiceLinkMsg@CPanelRadioWrapper@@QAAXIJ@Z 00064104 f   PanelRadioWrapper.obj
 0001:000531b0       ?SetFrequencyAndGetSignal@CPanelRadioWrapper@@AAAHK@Z 000641b0 f   PanelRadioWrapper.obj
 0001:00053278       ?DetectAFSignal@CPanelRadioWrapper@@AAAHK@Z 00064278 f   PanelRadioWrapper.obj
 0001:000533d4       ?JumpAF@CPanelRadioWrapper@@AAAHK@Z 000643d4 f   PanelRadioWrapper.obj
 0001:00053484       ?CheckAF@CPanelRadioWrapper@@AAAHK@Z 00064484 f   PanelRadioWrapper.obj
 0001:00053528       ?SetFrequency@CPanelRadioWrapper@@AAAHKH@Z 00064528 f   PanelRadioWrapper.obj
 0001:00053688       ?GetRDSStatus@CPanelRadioWrapper@@AAAHXZ 00064688 f   PanelRadioWrapper.obj
 0001:000536f4       ?GetRDSBlockData@CPanelRadioWrapper@@AAAHXZ 000646f4 f   PanelRadioWrapper.obj
 0001:00053760       ?GetSignalQuality@CPanelRadioWrapper@@AAAHH@Z 00064760 f   PanelRadioWrapper.obj
 0001:00053800       ?OnReverseModeChange@CPanelRadioWrapper@@UAAXH@Z 00064800 f   PanelRadioWrapper.obj
 0001:00053804       ?Play@CPanelRadioWrapper@@AAAXXZ 00064804 f   PanelRadioWrapper.obj
 0001:000538a8       ?PlayNext@CPanelRadioWrapper@@AAAXXZ 000648a8 f   PanelRadioWrapper.obj
 0001:0005394c       ?PlayPrevious@CPanelRadioWrapper@@AAAXXZ 0006494c f   PanelRadioWrapper.obj
 0001:000539cc       ?OnRadioCommand@CPanelRadioWrapper@@QAAXIJ@Z 000649cc f   PanelRadioWrapper.obj
 0001:0005411c       ?OnMCUCmd@CPanelRadioWrapper@@UAAXIJ@Z 0006511c f   PanelRadioWrapper.obj
 0001:00054720       ?OnKey@CPanelRadioWrapper@@UAAHII@Z 00065720 f   PanelRadioWrapper.obj
 0001:000548c8       ?SaveRDSDatabase@CPanelRadioWrapper@@AAAHXZ 000658c8 f   PanelRadioWrapper.obj
 0001:00054ae0       ?SearchDatabaseByAF@CPanelRadioWrapper@@AAAPAU_RdsInfo@@K@Z 00065ae0 f   PanelRadioWrapper.obj
 0001:00054b90       ?Add@?$CM_List@U_IMAGE_THUMB@@@@QAAXPAU_IMAGE_THUMB@@H@Z 00065b90 f i PanelSettingBackground.obj
 0001:00054b90       ?Add@?$CM_List@UContactInfo@@@@QAAXPAUContactInfo@@H@Z 00065b90 f i PanelBluetoothWrapper.obj
 0001:00054b90       ?Add@?$CM_List@VCM_String@UTIL@@@@QAAXPAVCM_String@UTIL@@H@Z 00065b90 f i FantasyLib:IMAtom.obj
 0001:00054b90       ?Add@?$CM_List@VCImageGL@@@@QAAXPAVCImageGL@@H@Z 00065b90 f i FantasyLib:SkinManagerGL.obj
 0001:00054b90       ?Add@?$CM_List@U_RadioStationInfo@@@@QAAXPAU_RadioStationInfo@@H@Z 00065b90 f i PanelRadioLibrary.obj
 0001:00054b90       ?Add@?$CM_List@VCIMImagin@@@@QAAXPAVCIMImagin@@H@Z 00065b90 f i FantasyLib:IMBarGL.obj
 0001:00054b90       ?Add@?$CM_List@U_RdsInfo@@@@QAAXPAU_RdsInfo@@H@Z 00065b90 f i PanelRadioWrapper.obj
 0001:00054b90       ?Add@?$CM_List@VCListBoxItemGL@@@@QAAXPAVCListBoxItemGL@@H@Z 00065b90 f i FantasyLib:ListBoxGL.obj
 0001:00054b90       ?Add@?$CM_List@VCWidgetGL@@@@QAAXPAVCWidgetGL@@H@Z 00065b90 f i PanelWidget.obj
 0001:00054b90       ?Add@?$CM_List@VCButtonGL@@@@QAAXPAVCButtonGL@@H@Z 00065b90 f i FantasyLib:KeyBoardGL.obj
 0001:00054b90       ?Add@?$CM_List@VCSmartBar@@@@QAAXPAVCSmartBar@@H@Z 00065b90 f i SmartBar.obj
 0001:00054b90       ?Add@?$CM_List@Usteerwheelkey@@@@QAAXPAUsteerwheelkey@@H@Z 00065b90 f i PanelSettingAdvanced.obj
 0001:00054b90       ?Add@?$CM_List@VCIMAtom@@@@QAAXPAVCIMAtom@@H@Z 00065b90 f i FantasyLib:IMBarGL.obj
 0001:00054b90       ?Add@?$CM_List@VCControlGL@@@@QAAXPAVCControlGL@@H@Z 00065b90 f i FantasyLib:ControlGL.obj
 0001:00054b90       ?Add@?$CM_List@VCTexture@@@@QAAXPAVCTexture@@H@Z 00065b90 f i FantasyLib:SkinManagerGL.obj
 0001:00054b90       ?Add@?$CM_List@VCPanelGL@@@@QAAXPAVCPanelGL@@H@Z 00065b90 f i GUI_Fantasy.obj
 0001:00054c74       ?OnSystemPowerStatePrepare@CPanelRadioWrapper@@UAAXI@Z 00065c74 f   PanelRadioWrapper.obj
 0001:00054d38       ?LoadRDSDatabase@CPanelRadioWrapper@@AAAHXZ 00065d38 f   PanelRadioWrapper.obj
 0001:00054f18       ?UpdateRDSDatabase@CPanelRadioWrapper@@AAAXPAU_RdsInfo@@@Z 00065f18 f   PanelRadioWrapper.obj
 0001:00055128       ?GetRDSData@CPanelRadioWrapper@@AAAIPAIPAH@Z 00066128 f   PanelRadioWrapper.obj
 0001:0005522c       ??0CPanelRadioWrapper@@QAA@XZ 0006622c f   PanelRadioWrapper.obj
 0001:00055434       ?Initialize@CPanelRadioWrapper@@UAAHIPAVCPanelGL@@PAVCSkinManagerGL@@PAVCTextGL@@PAUHWND__@@U_TMODULEENTRY@@@Z 00066434 f   PanelRadioWrapper.obj
 0001:0005558c       ?RdsCommonProcess@CPanelRadioWrapper@@AAAHXZ 0006658c f   PanelRadioWrapper.obj
 0001:000556d0       ?RdsTAProcess@CPanelRadioWrapper@@AAAHXZ 000666d0 f   PanelRadioWrapper.obj
 0001:00055b64       ?CheckPI@CPanelRadioWrapper@@AAAGKH@Z 00066b64 f   PanelRadioWrapper.obj
 0001:00055c70       ??_GCPanelRadioWrapper@@UAAPAXI@Z 00066c70 f i PanelRadioWrapper.obj
 0001:00055c70       ??_ECPanelRadioWrapper@@UAAPAXI@Z 00066c70 f i PanelRadioWrapper.obj
 0001:00055cb0       ?ProcessAF@CPanelRadioWrapper@@AAAHHH@Z 00066cb0 f   PanelRadioWrapper.obj
 0001:00055e34       ?RdsAFProcess@CPanelRadioWrapper@@AAAHXZ 00066e34 f   PanelRadioWrapper.obj
 0001:00056434       ?RdsProcess@CPanelRadioWrapper@@AAAHXZ 00067434 f   PanelRadioWrapper.obj
 0001:00056ae0       ?RdsThreadPro@CPanelRadioWrapper@@CAKPAX@Z 00067ae0 f   PanelRadioWrapper.obj
 0001:00056af0       ?ProgramTypeToString@@YAPA_WW4_ProgramType@@@Z 00067af0 f   RadioCommon.obj
 0001:00056cec       ?RdsGetGroupType@@YAEPBU_RdsData@@@Z 00067cec f   RdsParser.obj
 0001:00056d08       ?RdsParse@@YAHKPBU_RdsData@@PAU_RdsInfo@@@Z 00067d08 f   RdsParser.obj
 0001:00057078       ?GetID3v1Info@@YAHPB_WPAU_ID3_V1INFO_@@@Z 00068078 f   MediaCommon.obj
 0001:00057180       ??0CMediaPlayingFlagBar@@QAA@XZ 00068180 f   MediaPlayingFlagBar.obj
 0001:000571c0       ??1CMediaPlayingFlagBar@@UAA@XZ 000681c0 f   MediaPlayingFlagBar.obj
 0001:000571d4       ?Initialize@CMediaPlayingFlagBar@@QAAHIPAVCControlGL@@PAVCSkinManagerGL@@PAVCTextGL@@@Z 000681d4 f   MediaPlayingFlagBar.obj
 0001:00057214       ?Render@CMediaPlayingFlagBar@@UAAXXZ 00068214 f   MediaPlayingFlagBar.obj
 0001:00057390       ?OnTouchDown@CMediaPlayingFlagBar@@UAAXPAUtagPOINT@@@Z 00068390 f   MediaPlayingFlagBar.obj
 0001:000573c8       ?OnTouchUp@CMediaPlayingFlagBar@@UAAXPAUtagPOINT@@@Z 000683c8 f   MediaPlayingFlagBar.obj
 0001:00057438       ?IsPtnOnObject@CMediaPlayingFlagBar@@UAAHPAUtagPOINT@@@Z 00068438 f   MediaPlayingFlagBar.obj
 0001:000574b4       ??_GCMediaPlayingFlagBar@@UAAPAXI@Z 000684b4 f i MediaPlayingFlagBar.obj
 0001:000574b4       ??_ECMediaPlayingFlagBar@@UAAPAXI@Z 000684b4 f i MediaPlayingFlagBar.obj
 0001:000574ec       ??0CPanelMediaDevice@@QAA@XZ 000684ec f   PanelMediaDevice.obj
 0001:00057678       ?OnNotify@CPanelMediaDevice@@SAXKKKPAX0@Z 00068678 f   PanelMediaDevice.obj
 0001:000576ac       ?GetFirstAvailableDevice@CPanelMediaDevice@@QAAIXZ 000686ac f   PanelMediaDevice.obj
 0001:00057718       ??1CPanelMediaDevice@@UAA@XZ 00068718 f   PanelMediaDevice.obj
 0001:00057884       ?RefreshDeviceList@CPanelMediaDevice@@QAAXPB_W@Z 00068884 f   PanelMediaDevice.obj
 0001:00057bb4       ??_ECPanelMediaDevice@@UAAPAXI@Z 00068bb4 f i PanelMediaDevice.obj
 0001:00057bb4       ??_GCPanelMediaDevice@@UAAPAXI@Z 00068bb4 f i PanelMediaDevice.obj
 0001:00057bd8       ?Initialize@CPanelMediaDevice@@UAAHIPAVCPanelGL@@PAVCSkinManagerGL@@PAVCTextGL@@PAUHWND__@@U_TMODULEENTRY@@@Z 00068bd8 f   PanelMediaDevice.obj
 0001:00057e44       ?IsMediaDeviceAvailable@CPanelMediaDevice@@QAAHII@Z 00068e44 f   PanelMediaDevice.obj
 0001:00057ea4       ?MoveToTrackIndex@CPanelMediaLibrary@@QAAXH@Z 00068ea4 f i PanelMediaLibrary.obj
 0001:00057ef8       ??0CPanelMediaLibrary@@QAA@XZ 00068ef8 f   PanelMediaLibrary.obj
 0001:000587a0       ??1CPanelMediaLibrary@@UAA@XZ 000697a0 f   PanelMediaLibrary.obj
 0001:00058fcc       ?OnTouchDown@CPanelMediaLibrary@@UAAXPAUtagPOINT@@@Z 00069fcc f   PanelMediaLibrary.obj
 0001:00059048       ?OnTouchUp@CPanelMediaLibrary@@UAAXPAUtagPOINT@@@Z 0006a048 f   PanelMediaLibrary.obj
 0001:00059080       ?OnTouchMove@CPanelMediaLibrary@@UAAXPAUtagPOINT@@@Z 0006a080 f   PanelMediaLibrary.obj
 0001:000590b4       ?OnGestureMsg@CPanelMediaLibrary@@UAAXI@Z 0006a0b4 f   PanelMediaLibrary.obj
 0001:000590f0       ?OnQuitPanel@CPanelMediaLibrary@@UAAXIIPAX@Z 0006a0f0 f   PanelMediaLibrary.obj
 0001:00059178       ?ClearList@CPanelMediaLibrary@@QAAXXZ 0006a178 f   PanelMediaLibrary.obj
 0001:000591dc       ?IsOnRoot@CPanelMediaLibrary@@QAAHXZ 0006a1dc f   PanelMediaLibrary.obj
 0001:00059220       ?AbortRefresh@CPanelMediaLibrary@@QAAXXZ 0006a220 f   PanelMediaLibrary.obj
 0001:000592d8       ?EnableVideo@CPanelMediaLibrary@@QAAXH@Z 0006a2d8 f   PanelMediaLibrary.obj
 0001:000592e8       ?OnAvailableSourceChanged@CPanelMediaLibrary@@QAAXIJ@Z 0006a2e8 f   PanelMediaLibrary.obj
 0001:00059898       ?IsAudioFile@CPanelMediaLibrary@@AAAHPB_W@Z 0006a898 f   PanelMediaLibrary.obj
 0001:00059958       ?IsVideoFile@CPanelMediaLibrary@@AAAHPB_W@Z 0006a958 f   PanelMediaLibrary.obj
 0001:00059a10       ?OnNotify@CPanelMediaLibrary@@KAXKKKPAX0@Z 0006aa10 f   PanelMediaLibrary.obj
 0001:00059a7c       ?SetLoadingStatus@CPanelMediaLibrary@@QAAXW4FILE_LOADING_STATUS@@@Z 0006aa7c f   PanelMediaLibrary.obj
 0001:00059acc       ??_GCPanelMediaLibrary@@UAAPAXI@Z 0006aacc f i PanelMediaLibrary.obj
 0001:00059acc       ??_ECPanelMediaLibrary@@UAAPAXI@Z 0006aacc f i PanelMediaLibrary.obj
 0001:00059af8       ?ExplorePath@CPanelMediaLibrary@@AAAXPB_W@Z 0006aaf8 f   PanelMediaLibrary.obj
 0001:0005a1cc       ?ExploreMeidaFiles@CPanelMediaLibrary@@AAAHPB_W@Z 0006b1cc f   PanelMediaLibrary.obj
 0001:0005a738       ?ExploreThreadPro@CPanelMediaLibrary@@CAKPAX@Z 0006b738 f   PanelMediaLibrary.obj
 0001:0005a8fc       ?CreateSearchResultList@CPanelImageLibrary@@AAAHPB_WPAVCListBoxGL@@1@Z 0006b8fc f   PanelImageLibrary.obj
 0001:0005a8fc       ?CreateSearchResultList@CPanelMediaLibrary@@AAAHPB_WPAVCListBoxGL@@1@Z 0006b8fc f   PanelMediaLibrary.obj
 0001:0005ab90       ?GotoParent@CPanelMediaLibrary@@QAAXXZ 0006bb90 f   PanelMediaLibrary.obj
 0001:0005ac4c       ?SetCurPath@CPanelMediaLibrary@@QAAXPB_W@Z 0006bc4c f   PanelMediaLibrary.obj
 0001:0005ad38       ?SetShowType@CPanelMediaLibrary@@QAAXW4MEDIA_LIBRARY_TYPE@@@Z 0006bd38 f   PanelMediaLibrary.obj
 0001:0005b0a0       ?RefreshLibrary@CPanelMediaLibrary@@QAAXXZ 0006c0a0 f   PanelMediaLibrary.obj
 0001:0005b28c       ?SetCurPlayFile@CPanelMediaLibrary@@QAAXPB_W@Z 0006c28c f   PanelMediaLibrary.obj
 0001:0005b384       ?SetMediaSrcType@CPanelMediaLibrary@@QAAXI@Z 0006c384 f   PanelMediaLibrary.obj
 0001:0005b688       ?OnEnterPanel@CPanelMediaLibrary@@UAAXIIPAX@Z 0006c688 f   PanelMediaLibrary.obj
 0001:0005b750       ?Render@CPanelMediaLibrary@@UAAXXZ 0006c750 f   PanelMediaLibrary.obj
 0001:0005c94c       ?Initialize@CPanelMediaLibrary@@UAAHIPAVCPanelGL@@PAVCSkinManagerGL@@PAVCTextGL@@PAUHWND__@@U_TMODULEENTRY@@@Z 0006d94c f   PanelMediaLibrary.obj
 0001:0005e704       ?SetMediaCategory@CPanelMediaLibrary@@QAAXW4MEDIA_CATEGORY@@@Z 0006f704 f   PanelMediaLibrary.obj
 0001:0005e8d4       ?EnterCurPath@CPanelMediaLibrary@@QAAXXZ 0006f8d4 f   PanelMediaLibrary.obj
 0001:0005e9dc       ?GetNextValue@CPanelMediaLibrary@@QAAPB_WXZ 0006f9dc f   PanelMediaLibrary.obj
 0001:0005eb00       ?GetPreviousValue@CPanelMediaLibrary@@QAAPB_WXZ 0006fb00 f   PanelMediaLibrary.obj
 0001:0005ec20       ?GetRandomValue@CPanelMediaLibrary@@QAAPB_WXZ 0006fc20 f   PanelMediaLibrary.obj
 0001:0005ed8c       ?HandleControlMSG@CPanelMediaLibrary@@MAAXKKKPAX@Z 0006fd8c f   PanelMediaLibrary.obj
 0001:0005f21c       ??0CPanelMediaMain@@QAA@XZ 0007021c f   PanelMediaMain.obj
 0001:0005f924       ??1CPanelMediaMain@@UAA@XZ 00070924 f   PanelMediaMain.obj
 0001:0005ff58       ?IsReady@CPanelMediaMain@@UAAHXZ 00070f58 f   PanelMediaMain.obj
 0001:0005ffcc       ?OnGesture@CPanelMediaMain@@UAAXPAUtagGESTUREINFO@@@Z 00070fcc f   PanelMediaMain.obj
 0001:0006006c       ?OnGestureMsg@CPanelMediaMain@@UAAXI@Z 0007106c f   PanelMediaMain.obj
 0001:000600e8       ?OnQuitPanel@CPanelMediaMain@@UAAXIIPAX@Z 000710e8 f   PanelMediaMain.obj
 0001:0006014c       ?OnEnterPanel@CPanelMediaMain@@UAAXIIPAX@Z 0007114c f   PanelMediaMain.obj
 0001:00060384       ?SetLoadingStatus@CPanelMediaMain@@QAAXW4FILE_LOADING_STATUS@@@Z 00071384 f   PanelMediaMain.obj
 0001:00060418       ?SetBrowsingStatus@CPanelMediaMain@@QAAXH@Z 00071418 f   PanelMediaMain.obj
 0001:000605d8       ?EnableOperate@CPanelMediaMain@@QAAXH@Z 000715d8 f   PanelMediaMain.obj
 0001:000606b4       ?ShowLibraryBtn@CPanelMediaMain@@QAAXH@Z 000716b4 f   PanelMediaMain.obj
 0001:00060764       ?SetPlayingStatus@CPanelMediaMain@@QAAXH@Z 00071764 f   PanelMediaMain.obj
 0001:0006087c       ?SetPlayMode@CPanelMediaMain@@QAAXI@Z 0007187c f   PanelMediaMain.obj
 0001:000608f4       ?UpdateAlbumArt@CPanelMediaMain@@QAAXXZ 000718f4 f   PanelMediaMain.obj
 0001:00060a08       ?SetVideoFullScreen@CPanelMediaMain@@QAAXH@Z 00071a08 f   PanelMediaMain.obj
 0001:00060a20       ?SetVideoMode@CPanelMediaMain@@QAAXH@Z 00071a20 f   PanelMediaMain.obj
 0001:00060d2c       ?OnPrepareUpdateAlbumArt@CPanelMediaMain@@QAAXPBEK@Z 00071d2c f   PanelMediaMain.obj
 0001:00060dc0       ?HandleControlMSG@CPanelMediaMain@@MAAXKKKPAX@Z 00071dc0 f   PanelMediaMain.obj
 0001:00060ee4       ?SetRemainTime@CPanelMediaMain@@QAAXH@Z 00071ee4 f   PanelMediaMain.obj
 0001:00060f78       ?SetElapsedTime@CPanelMediaMain@@QAAXH@Z 00071f78 f   PanelMediaMain.obj
 0001:00061004       ?SetTitle@CPanelMediaMain@@QAAXPB_W@Z 00072004 f   PanelMediaMain.obj
 0001:000610b8       ?SetArtist@CPanelMediaMain@@QAAXPB_W@Z 000720b8 f   PanelMediaMain.obj
 0001:00061130       ?SetAlbum@CPanelMediaMain@@QAAXPB_W@Z 00072130 f   PanelMediaMain.obj
 0001:0006116c       ?SetNowPlayingTitle@CPanelMediaMain@@QAAXPB_W@Z 0007216c f   PanelMediaMain.obj
 0001:000611c8       ?PlayInfoFlyOut@CPanelMediaMain@@QAAXI@Z 000721c8 f   PanelMediaMain.obj
 0001:000613e8       ?PlayInfoFlyIn@CPanelMediaMain@@QAAXXZ 000723e8 f   PanelMediaMain.obj
 0001:000617d0       ?SetFileLoadFlag@CPanelMediaMain@@QAAXH@Z 000727d0 f   PanelMediaMain.obj
 0001:000617dc       ??_ECPanelMediaMain@@UAAPAXI@Z 000727dc f i PanelMediaMain.obj
 0001:000617dc       ??_GCPanelMediaMain@@UAAPAXI@Z 000727dc f i PanelMediaMain.obj
 0001:00061808       ?Render@CPanelMediaMain@@UAAXXZ 00072808 f   PanelMediaMain.obj
 0001:0006285c       ?Initialize@CPanelMediaMain@@UAAHIPAVCPanelGL@@PAVCSkinManagerGL@@PAVCTextGL@@PAUHWND__@@U_TMODULEENTRY@@@Z 0007385c f   PanelMediaMain.obj
 0001:0006435c       ?SetMediaSrcType@CPanelMediaMain@@QAAXI@Z 0007535c f   PanelMediaMain.obj
 0001:0006461c       ?ValueDW@CReg@@QAAKPB_WK@Z 0007561c f i PanelMediaWrapper.obj
 0001:00064668       ?GetIndexValue@CPanelMediaLibrary@@QAAPB_WH@Z 00075668 f i PanelMediaWrapper.obj
 0001:000649e8       ??0CPanelMediaWrapper@@QAA@XZ 000759e8 f   PanelMediaWrapper.obj
 0001:00064c44       ?LinkPages@CPanelMediaWrapper@@QAAXPAVCPanelMediaMain@@PAVCPanelMediaLibrary@@PAVCPanelMediaDevice@@@Z 00075c44 f   PanelMediaWrapper.obj
 0001:00064c84       ?OnAvailableSourceChanged@CPanelMediaWrapper@@QAAXIJ@Z 00075c84 f   PanelMediaWrapper.obj
 0001:00064cdc       ?LoadMediaModuleProc@CPanelMediaWrapper@@AAAHXZ 00075cdc f   PanelMediaWrapper.obj
 0001:00064d6c       ?WaitForLoadFileReady@CPanelMediaWrapper@@AAAHH@Z 00075d6c f   PanelMediaWrapper.obj
 0001:00064de4       ?TerminateRingtonePlayer@CPanelMediaWrapper@@AAAXXZ 00075de4 f   PanelMediaWrapper.obj
 0001:00064e54       ?RingtoneThreadPro@CPanelMediaWrapper@@CAKPAX@Z 00075e54 f   PanelMediaWrapper.obj
 0001:00064fd8       ?StartRingTone@CPanelMediaWrapper@@QAAXKKH@Z 00075fd8 f   PanelMediaWrapper.obj
 0001:0006505c       ?EndRingTone@CPanelMediaWrapper@@QAAXXZ 0007605c f   PanelMediaWrapper.obj
 0001:000650a8       ?TakeGstResource@CPanelMediaWrapper@@AAAXH@Z 000760a8 f   PanelMediaWrapper.obj
 0001:0006510c       ?OnAutoResume@CPanelMediaWrapper@@QAAXXZ 0007610c f   PanelMediaWrapper.obj
 0001:00065144       ?PreparePlay@CPanelMediaWrapper@@AAAXXZ 00076144 f   PanelMediaWrapper.obj
 0001:000651b0       ?EnableSrcWidget@CPanelMediaWrapper@@AAAXH@Z 000761b0 f   PanelMediaWrapper.obj
 0001:0006524c       ?OnDeviceChanged@CPanelMediaWrapper@@QAAXXZ 0007624c f   PanelMediaWrapper.obj
 0001:00065268       ?LinkSmartBarMedia@CPanelMediaWrapper@@QAAXPAVCSmartBarMedia@@@Z 00076268 f   PanelMediaWrapper.obj
 0001:0006527c       ?SetMediaAudioVolume@CPanelMediaWrapper@@QAAXHH@Z 0007627c f   PanelMediaWrapper.obj
 0001:000652ec       ?ShowVideoWindow@CPanelMediaWrapper@@AAAXH@Z 000762ec f   PanelMediaWrapper.obj
 0001:0006539c       ?SetPlayMode@CPanelMediaWrapper@@AAAXI@Z 0007639c f   PanelMediaWrapper.obj
 0001:0006541c       ?SwitchPlayMode@CPanelMediaWrapper@@AAAXXZ 0007641c f   PanelMediaWrapper.obj
 0001:000654a4       ?SwitchFullscreen@CPanelMediaWrapper@@AAAXI@Z 000764a4 f   PanelMediaWrapper.obj
 0001:000655b8       ?EnableMonitorPlayinfo@CPanelMediaWrapper@@AAAXH@Z 000765b8 f   PanelMediaWrapper.obj
 0001:00065638       ?CleanUp@CPanelMediaWrapper@@AAAXXZ 00076638 f   PanelMediaWrapper.obj
 0001:00065790       ?OnSpeechStart@CPanelMediaWrapper@@UAAXXZ 00076790 f   PanelMediaWrapper.obj
 0001:0006579c       ?OnSpeechTerminate@CPanelMediaWrapper@@UAAXXZ 0007679c f   PanelMediaWrapper.obj
 0001:000657c4       ?OnPlaySoundEffect@CPanelMediaWrapper@@UAAXH@Z 000767c4 f   PanelMediaWrapper.obj
 0001:00065814       ?OnMediaBrowsingBegin@CPanelMediaWrapper@@AAAXXZ 00076814 f   PanelMediaWrapper.obj
 0001:00065850       ?SetPlayPosition@CPanelMediaWrapper@@AAAXKK@Z 00076850 f   PanelMediaWrapper.obj
 0001:000659d8       ?SetFF@CPanelMediaWrapper@@AAAXKH@Z 000769d8 f   PanelMediaWrapper.obj
 0001:00065cc0       ?SetFB@CPanelMediaWrapper@@AAAXKH@Z 00076cc0 f   PanelMediaWrapper.obj
 0001:00065fa8       ?OnRingToneCommand@CPanelMediaWrapper@@QAAXIJ@Z 00076fa8 f   PanelMediaWrapper.obj
 0001:00066024       ?OnRingToneMsg@CPanelMediaWrapper@@AAAJIJ@Z 00077024 f   PanelMediaWrapper.obj
 0001:000660d0       ?OnPlayerMsg@CPanelMediaWrapper@@AAAJIJ@Z 000770d0 f   PanelMediaWrapper.obj
 0001:000662a0       ?AutoVolumeStepProc@CPanelMediaWrapper@@AAAHXZ 000772a0 f   PanelMediaWrapper.obj
 0001:00066370       ?SaveCurrentMediaInfo@CPanelMediaWrapper@@AAAXK@Z 00077370 f   PanelMediaWrapper.obj
 0001:00066530       ?OnFactoryCmd@CPanelMediaWrapper@@UAAXIJ@Z 00077530 f   PanelMediaWrapper.obj
 0001:00066558       ?IsPlaying@CPanelMediaWrapper@@QAAHXZ 00077558 f   PanelMediaWrapper.obj
 0001:00066568       ??1CPanelMediaWrapper@@UAA@XZ 00077568 f   PanelMediaWrapper.obj
 0001:000666a8       ?OnReverseModeChange@CPanelMediaWrapper@@UAAXH@Z 000776a8 f   PanelMediaWrapper.obj
 0001:000666f0       ?OnBrakeStatusChanged@CPanelMediaWrapper@@UAAXH@Z 000776f0 f   PanelMediaWrapper.obj
 0001:000667a8       ?LoadMediaModuleThreadPro@CPanelMediaWrapper@@CAKPAX@Z 000777a8 f   PanelMediaWrapper.obj
 0001:000667bc       ?Play@CPanelMediaWrapper@@AAAXXZ 000777bc f   PanelMediaWrapper.obj
 0001:00066860       ?PrepareStop@CPanelMediaWrapper@@AAAXXZ 00077860 f   PanelMediaWrapper.obj
 0001:000668b8       ?Resume@CPanelMediaWrapper@@AAAXXZ 000778b8 f   PanelMediaWrapper.obj
 0001:00066900       ?Pause@CPanelMediaWrapper@@AAAXXZ 00077900 f   PanelMediaWrapper.obj
 0001:0006693c       ?PreparePause@CPanelMediaWrapper@@AAAXH@Z 0007793c f   PanelMediaWrapper.obj
 0001:000669e8       ?Stop@CPanelMediaWrapper@@AAAXXZ 000779e8 f   PanelMediaWrapper.obj
 0001:00066b74       ?EnablePlayUI@CPanelMediaWrapper@@AAAXHPBD@Z 00077b74 f   PanelMediaWrapper.obj
 0001:00066c18       ?SelectMediaType@CPanelMediaWrapper@@AAAXIH@Z 00077c18 f   PanelMediaWrapper.obj
 0001:00066e10       ?OnDeviceRemovedReady@CPanelMediaWrapper@@UAAXPB_W@Z 00077e10 f   PanelMediaWrapper.obj
 0001:00066f9c       ?AutoSelectDevice@CPanelMediaWrapper@@AAAHXZ 00077f9c f   PanelMediaWrapper.obj
 0001:00067040       ?OnSRStart@CPanelMediaWrapper@@UAAXXZ 00078040 f   PanelMediaWrapper.obj
 0001:0006708c       ?OnSRTerminate@CPanelMediaWrapper@@UAAXXZ 0007808c f   PanelMediaWrapper.obj
 0001:000670d8       ?SelectCategory@CPanelMediaWrapper@@AAAXW4MEDIA_CATEGORY@@H@Z 000780d8 f   PanelMediaWrapper.obj
 0001:0006715c       ?EnableVideoPlayer@CPanelMediaWrapper@@QAAXH@Z 0007815c f   PanelMediaWrapper.obj
 0001:000671b0       ?PlayFailed@CPanelMediaWrapper@@AAAXPB_WI@Z 000781b0 f   PanelMediaWrapper.obj
 0001:000673ac       ?UpdatePlayPostion@CPanelMediaWrapper@@AAAXXZ 000783ac f   PanelMediaWrapper.obj
 0001:000677d8       ?OnPlayerLoadFileAbort@CPanelMediaWrapper@@AAAXPBDH@Z 000787d8 f   PanelMediaWrapper.obj
 0001:0006781c       ?OnPlayerLoadFileReady@CPanelMediaWrapper@@AAAXXZ 0007881c f   PanelMediaWrapper.obj
 0001:000678d8       ?OnSystemPowerStatePrepare@CPanelMediaWrapper@@UAAXI@Z 000788d8 f   PanelMediaWrapper.obj
 0001:000679fc       ?AbortSelectMediaType@CPanelMediaWrapper@@AAAXXZ 000789fc f   PanelMediaWrapper.obj
 0001:00067a54       ?AbortSelectCategory@CPanelMediaWrapper@@AAAXXZ 00078a54 f   PanelMediaWrapper.obj
 0001:00067a88       ?OnMute@CPanelMediaWrapper@@UAAXH@Z 00078a88 f   PanelMediaWrapper.obj
 0001:00067ac4       ??_GCPanelMediaWrapper@@UAAPAXI@Z 00078ac4 f i PanelMediaWrapper.obj
 0001:00067ac4       ??_ECPanelMediaWrapper@@UAAPAXI@Z 00078ac4 f i PanelMediaWrapper.obj
 0001:00067ae8       ?OnSRCChanged@CPanelMediaWrapper@@UAAXI@Z 00078ae8 f   PanelMediaWrapper.obj
 0001:00067b84       ?OnPhoneCallState@CPanelMediaWrapper@@UAAXIJ@Z 00078b84 f   PanelMediaWrapper.obj
 0001:00067bf4       ?OnUpdatePlaybackInfo@CPanelMediaWrapper@@AAAXIJ@Z 00078bf4 f   PanelMediaWrapper.obj
 0001:00067de4       ?LoadMediaModule@CPanelMediaWrapper@@AAAXXZ 00078de4 f   PanelMediaWrapper.obj
 0001:00067e20       ?PreparePlayFile@CPanelMediaWrapper@@AAAHPB_WK@Z 00078e20 f   PanelMediaWrapper.obj
 0001:00067ea8       ?TerminateVideoPlayback@CPanelMediaWrapper@@AAAXXZ 00078ea8 f   PanelMediaWrapper.obj
 0001:00067f2c       ?OnCarPlayMsg@CPanelMediaWrapper@@QAAXIJ@Z 00078f2c f   PanelMediaWrapper.obj
 0001:00067fac       ?AutoPlayDevice@CPanelMediaWrapper@@AAAHXZ 00078fac f   PanelMediaWrapper.obj
 0001:000682f4       ?PlayIndex@CPanelMediaWrapper@@AAAHHK@Z 000792f4 f   PanelMediaWrapper.obj
 0001:0006837c       ?PlayPrevious@CPanelMediaWrapper@@AAAXH@Z 0007937c f   PanelMediaWrapper.obj
 0001:00068414       ?PlayNext@CPanelMediaWrapper@@AAAXH@Z 00079414 f   PanelMediaWrapper.obj
 0001:000684ac       ?OnUIChanged@CPanelMediaWrapper@@UAAXI@Z 000794ac f   PanelMediaWrapper.obj
 0001:00068514       ?PlayFilePro@CPanelMediaWrapper@@AAAJPB_WK@Z 00079514 f   PanelMediaWrapper.obj
 0001:0006954c       ?OnPlayerLoadFileFailed@CPanelMediaWrapper@@AAAXXZ 0007a54c f   PanelMediaWrapper.obj
 0001:000695c0       ?OnPlayerComplete@CPanelMediaWrapper@@AAAXXZ 0007a5c0 f   PanelMediaWrapper.obj
 0001:0006961c       ?OpenFileThreadPro@CPanelMediaWrapper@@CAKPAX@Z 0007a61c f   PanelMediaWrapper.obj
 0001:00069750       ?PlayFile@CPanelMediaWrapper@@AAAHPB_WK@Z 0007a750 f   PanelMediaWrapper.obj
 0001:000699d8       ?StartPlayback@CPanelMediaWrapper@@AAAXXZ 0007a9d8 f   PanelMediaWrapper.obj
 0001:00069cc0       ?PrepareSelectCategory@CPanelMediaWrapper@@AAAXW4MEDIA_CATEGORY@@@Z 0007acc0 f   PanelMediaWrapper.obj
 0001:00069d98       ?PrepareSelectMediaType@CPanelMediaWrapper@@AAAXI@Z 0007ad98 f   PanelMediaWrapper.obj
 0001:00069e84       ?OnDeviceArrivedReady@CPanelMediaWrapper@@UAAXPB_W@Z 0007ae84 f   PanelMediaWrapper.obj
 0001:00069fc8       ?OnMediaBrowsingFinish@CPanelMediaWrapper@@AAAXH@Z 0007afc8 f   PanelMediaWrapper.obj
 0001:0006a0d4       ?OnMediaPlayerCommand@CPanelMediaWrapper@@QAAXIJ@Z 0007b0d4 f   PanelMediaWrapper.obj
 0001:0006a52c       ?OnPlayerMsgEx@CPanelMediaWrapper@@AAAJIJ@Z 0007b52c f   PanelMediaWrapper.obj
 0001:0006a590       ?OnKey@CPanelMediaWrapper@@UAAHII@Z 0007b590 f   PanelMediaWrapper.obj
 0001:0006a940       ?OnDelayOperation@CPanelMediaWrapper@@QAAXXZ 0007b940 f   PanelMediaWrapper.obj
 0001:0006ab5c       ?OnVolumeFadeReday@CPanelMediaWrapper@@QAAXH@Z 0007bb5c f   PanelMediaWrapper.obj
 0001:0006ad6c       ?OnVideoWndGesture@CPanelMediaWrapper@@AAAXIJ@Z 0007bd6c f   PanelMediaWrapper.obj
 0001:0006ae90       ?VideoWndProc@CPanelMediaWrapper@@CAJPAUHWND__@@IIJ@Z 0007be90 f   PanelMediaWrapper.obj
 0001:0006b22c       ?Initialize@CPanelMediaWrapper@@UAAHIPAVCPanelGL@@PAVCSkinManagerGL@@PAVCTextGL@@PAUHWND__@@U_TMODULEENTRY@@@Z 0007c22c f   PanelMediaWrapper.obj
 0001:0006b424       ??0CPanelIdle@@QAA@XZ      0007c424 f   PanelIdle.obj
 0001:0006b48c       ??1CPanelIdle@@UAA@XZ      0007c48c f   PanelIdle.obj
 0001:0006b4dc       ?OnEnterPanel@CPanelIdle@@UAAXIIPAX@Z 0007c4dc f   PanelIdle.obj
 0001:0006b54c       ?Render@CPanelIdle@@UAAXXZ 0007c54c f   PanelIdle.obj
 0001:0006b9e8       ?Initialize@CPanelIdle@@UAAHIPAVCPanelGL@@PAVCSkinManagerGL@@PAVCTextGL@@PAUHWND__@@U_TMODULEENTRY@@@Z 0007c9e8 f   PanelIdle.obj
 0001:0006bac0       ??_ECPanelIdle@@UAAPAXI@Z  0007cac0 f i PanelIdle.obj
 0001:0006bac0       ??_GCPanelIdle@@UAAPAXI@Z  0007cac0 f i PanelIdle.obj
 0001:0006bae4       ?EnumWinProc@@YAHPAUHWND__@@J@Z 0007cae4 f   PanelApp.obj
 0001:0006bb7c       ??0CPanelApp@@QAA@II@Z     0007cb7c f   PanelApp.obj
 0001:0006bcd0       ??1CPanelApp@@UAA@XZ       0007ccd0 f   PanelApp.obj
 0001:0006bda4       ?OnEnterPanel@CPanelApp@@UAAXIIPAX@Z 0007cda4 f   PanelApp.obj
 0001:0006bea0       ?OnQuitPanel@CPanelApp@@UAAXIIPAX@Z 0007cea0 f   PanelApp.obj
 0001:0006bfe0       ?OnSystemPowerStatePrepare@CPanelApp@@UAAXI@Z 0007cfe0 f   PanelApp.obj
 0001:0006c0cc       ?OnSystemPowerStateDone@CPanelApp@@UAAXI@Z 0007d0cc f   PanelApp.obj
 0001:0006c0e4       ?OnCarPlayMsg@CPanelApp@@QAAXIJ@Z 0007d0e4 f   PanelApp.obj
 0001:0006c1fc       ?OnAndroidAutoMsg@CPanelApp@@QAAXIJ@Z 0007d1fc f   PanelApp.obj
 0001:0006c2e8       ?OnSRMsg@CPanelApp@@QAAXIJ@Z 0007d2e8 f   PanelApp.obj
 0001:0006c3b4       ?OnNotifyRdsTAStatus@CPanelApp@@QAAXIJ@Z 0007d3b4 f   PanelApp.obj
 0001:0006c468       ?OnPhoneCallState@CPanelApp@@UAAXIJ@Z 0007d468 f   PanelApp.obj
 0001:0006c5cc       ?OnAppWindowDetect@CPanelApp@@AAAXXZ 0007d5cc f   PanelApp.obj
 0001:0006c81c       ?Initialize@CPanelApp@@UAAHIPAVCPanelGL@@PAVCSkinManagerGL@@PAVCTextGL@@PAUHWND__@@U_TMODULEENTRY@@@Z 0007d81c f   PanelApp.obj
 0001:0006c9a8       ?OnGestureMsg@CPanelMHL@@UAAXI@Z 0007d9a8 f   PanelMHL.obj
 0001:0006c9a8       ?OnGestureMsg@CPanelApp@@UAAXI@Z 0007d9a8 f   PanelApp.obj
 0001:0006c9a8       ?OnGestureMsg@CPanelAndroidAuto@@UAAXI@Z 0007d9a8 f   PanelAndroidAuto.obj
 0001:0006c9a8       ?OnGestureMsg@CPanelPhoneLink@@UAAXI@Z 0007d9a8 f   PanelPhoneLink.obj
 0001:0006c9a8       ?OnGestureMsg@CPanelSettingWrapper@@UAAXI@Z 0007d9a8 f   PanelSettingWrapper.obj
 0001:0006c9a8       ?OnGestureMsg@CPanelBluetoothMain@@UAAXI@Z 0007d9a8 f   PanelBluetoothMain.obj
 0001:0006c9e4       ?LaunchApp@CPanelApp@@AAAHXZ 0007d9e4 f   PanelApp.obj
 0001:0006cce4       ??_ECPanelApp@@UAAPAXI@Z   0007dce4 f i PanelApp.obj
 0001:0006cce4       ??_GCPanelApp@@UAAPAXI@Z   0007dce4 f i PanelApp.obj
 0001:0006cd08       ?WindowDetectThreadPro@CPanelApp@@SAKPAX@Z 0007dd08 f   PanelApp.obj
 0001:0006cd60       ?LaunchAppProc@CPanelApp@@AAAHXZ 0007dd60 f   PanelApp.obj
 0001:0006cf0c       ?LaunchThreadPro@CPanelApp@@CAKPAX@Z 0007df0c f   PanelApp.obj
 0001:0006cf64       ?Render@CPanelApp@@UAAXXZ  0007df64 f   PanelApp.obj
 0001:0006d100       ??0CPanelNaviSimulate@@QAA@XZ 0007e100 f   PanelNaviSimulate.obj
 0001:0006d1c0       ??1CPanelNaviSimulate@@UAA@XZ 0007e1c0 f   PanelNaviSimulate.obj
 0001:0006d268       ?OnEnterPanel@CPanelNaviSimulate@@UAAXIIPAX@Z 0007e268 f   PanelNaviSimulate.obj
 0001:0006d2c4       ?Render@CPanelNaviSimulate@@UAAXXZ 0007e2c4 f   PanelNaviSimulate.obj
 0001:0006d36c       ?QuitVoiceNotificationTimerProc@CPanelNaviSimulate@@CAXIIKKK@Z 0007e36c f   PanelNaviSimulate.obj
 0001:0006d3a8       ?SimGuidanceVoiceTimerProc@CPanelNaviSimulate@@CAXIIKKK@Z 0007e3a8 f   PanelNaviSimulate.obj
 0001:0006d420       ?OnAndroidAutoMsg@CPanelNaviSimulate@@QAAXIJ@Z 0007e420 f   PanelNaviSimulate.obj
 0001:0006d498       ??_ECPanelNaviSimulate@@UAAPAXI@Z 0007e498 f i PanelNaviSimulate.obj
 0001:0006d498       ??_GCPanelNaviSimulate@@UAAPAXI@Z 0007e498 f i PanelNaviSimulate.obj
 0001:0006d4bc       ?Initialize@CPanelNaviSimulate@@UAAHIPAVCPanelGL@@PAVCSkinManagerGL@@PAVCTextGL@@PAUHWND__@@U_TMODULEENTRY@@@Z 0007e4bc f   PanelNaviSimulate.obj
 0001:0006d844       ?HandleControlMSG@CPanelNaviSimulate@@MAAXKKKPAX@Z 0007e844 f   PanelNaviSimulate.obj
 0001:0006db28       ??0CPanelVehicleInfoAC@@QAA@XZ 0007eb28 f   PanelVehicleInfoAC.obj
 0001:0006e2a0       ??1CPanelVehicleInfoAC@@UAA@XZ 0007f2a0 f   PanelVehicleInfoAC.obj
 0001:0006e8d0       ?IsReady@CPanelVehicleInfoAC@@UAAHXZ 0007f8d0 f   PanelVehicleInfoAC.obj
 0001:0006e938       ?OnGestureMsg@CPanelVehicleInfoBody@@UAAXI@Z 0007f938 f   PanelVehicleInfoBody.obj
 0001:0006e938       ?OnGestureMsg@CPanelVehicleInfoAC@@UAAXI@Z 0007f938 f   PanelVehicleInfoAC.obj
 0001:0006e938       ?OnGestureMsg@CPanelVehicleInfoDrive@@UAAXI@Z 0007f938 f   PanelVehicleInfoDrive.obj
 0001:0006e938       ?OnGestureMsg@CPanelHomePage@@UAAXI@Z 0007f938 f   PanelHome.obj
 0001:0006e938       ?OnGestureMsg@CPaneliPodMain@@UAAXI@Z 0007f938 f   PaneliPodMain.obj
 0001:0006e938       ?OnGestureMsg@CPanelWidget@@UAAXI@Z 0007f938 f   PanelWidget.obj
 0001:0006e938       ?OnGestureMsg@CPanelCarPlay@@UAAXI@Z 0007f938 f   PanelCarPlay.obj
 0001:0006e93c       ?OnEnterPanel@CPanelVehicleInfoBody@@UAAXIIPAX@Z 0007f93c f   PanelVehicleInfoBody.obj
 0001:0006e93c       ?OnEnterPanel@CPanelHomePage@@UAAXIIPAX@Z 0007f93c f   PanelHome.obj
 0001:0006e93c       ?OnEnterPanel@CPanelExplorer@@UAAXIIPAX@Z 0007f93c f   PanelExplorer.obj
 0001:0006e93c       ?OnEnterPanel@CPanelVehicleInfoAC@@UAAXIIPAX@Z 0007f93c f   PanelVehicleInfoAC.obj
 0001:0006e93c       ?OnEnterPanel@CPanelMediaDevice@@UAAXIIPAX@Z 0007f93c f   PanelMediaDevice.obj
 0001:0006e93c       ?OnEnterPanel@CPanelWidget@@UAAXIIPAX@Z 0007f93c f   PanelWidget.obj
 0001:0006e93c       ?OnEnterPanel@CPanelSettingBackground@@UAAXIIPAX@Z 0007f93c f   PanelSettingBackground.obj
 0001:0006e93c       ?OnEnterPanel@CPanelKeyboard@@UAAXIIPAX@Z 0007f93c f   PanelKeyboard.obj
 0001:0006e93c       ?OnEnterPanel@CPanelVehicleInfoRadar@@UAAXIIPAX@Z 0007f93c f   PanelVehicleInfoRadar.obj
 0001:0006e99c       ?Render@CPanelVehicleInfoAC@@UAAXXZ 0007f99c f   PanelVehicleInfoAC.obj
 0001:0006ef7c       ?Initialize@CPanelVehicleInfoAC@@UAAHIPAVCPanelGL@@PAVCSkinManagerGL@@PAVCTextGL@@PAUHWND__@@U_TMODULEENTRY@@@Z 0007ff7c f   PanelVehicleInfoAC.obj
 0001:00070478       ?SetInfoAirStatus@CPanelVehicleInfoAC@@QAAXE@Z 00081478 f   PanelVehicleInfoAC.obj
 0001:00070a88       ?SetInfoAirWind@CPanelVehicleInfoAC@@QAAXE@Z 00081a88 f   PanelVehicleInfoAC.obj
 0001:00070bec       ?SetInfoAirTempDriver@CPanelVehicleInfoAC@@QAAXE@Z 00081bec f   PanelVehicleInfoAC.obj
 0001:00070d0c       ?SetInfoAirTempCoDriver@CPanelVehicleInfoAC@@QAAXE@Z 00081d0c f   PanelVehicleInfoAC.obj
 0001:00070e2c       ?SetInfoOutsideTemp@CPanelVehicleInfoAC@@QAAXH@Z 00081e2c f   PanelVehicleInfoAC.obj
 0001:00070f08       ?SetInfoAirSeatHeating@CPanelVehicleInfoAC@@QAAXE@Z 00081f08 f   PanelVehicleInfoAC.obj
 0001:000710d0       ??_GCPanelVehicleInfoAC@@UAAPAXI@Z 000820d0 f i PanelVehicleInfoAC.obj
 0001:000710d0       ??_ECPanelVehicleInfoAC@@UAAPAXI@Z 000820d0 f i PanelVehicleInfoAC.obj
 0001:000710fc       ??0CPanelVehicleInfoBody@@QAA@XZ 000820fc f   PanelVehicleInfoBody.obj
 0001:00071230       ??1CPanelVehicleInfoBody@@UAA@XZ 00082230 f   PanelVehicleInfoBody.obj
 0001:0007135c       ?IsReady@CPanelVehicleInfoBody@@UAAHXZ 0008235c f   PanelVehicleInfoBody.obj
 0001:000713ec       ?Render@CPanelVehicleInfoBody@@UAAXXZ 000823ec f   PanelVehicleInfoBody.obj
 0001:00071518       ?Initialize@CPanelVehicleInfoBody@@UAAHIPAVCPanelGL@@PAVCSkinManagerGL@@PAVCTextGL@@PAUHWND__@@U_TMODULEENTRY@@@Z 00082518 f   PanelVehicleInfoBody.obj
 0001:0007195c       ?SetInfoTrunk@CPanelVehicleInfoBody@@QAAXH@Z 0008295c f   PanelVehicleInfoBody.obj
 0001:00071988       ?SetInfoDoorFL@CPanelVehicleInfoBody@@QAAXH@Z 00082988 f   PanelVehicleInfoBody.obj
 0001:00071a2c       ?SetInfoDoorFR@CPanelVehicleInfoBody@@QAAXH@Z 00082a2c f   PanelVehicleInfoBody.obj
 0001:00071ad0       ?SetInfoDoorRL@CPanelVehicleInfoBody@@QAAXH@Z 00082ad0 f   PanelVehicleInfoBody.obj
 0001:00071b74       ?SetInfoDoorRR@CPanelVehicleInfoBody@@QAAXH@Z 00082b74 f   PanelVehicleInfoBody.obj
 0001:00071c18       ??_ECPanelVehicleInfoBody@@UAAPAXI@Z 00082c18 f i PanelVehicleInfoBody.obj
 0001:00071c18       ??_GCPanelVehicleInfoBody@@UAAPAXI@Z 00082c18 f i PanelVehicleInfoBody.obj
 0001:00071c44       ??0CPanelVehicleInfoDrive@@QAA@XZ 00082c44 f   PanelVehicleInfoDrive.obj
 0001:00071f28       ??1CPanelVehicleInfoDrive@@UAA@XZ 00082f28 f   PanelVehicleInfoDrive.obj
 0001:000721fc       ?IsReady@CPanelVehicleInfoDrive@@UAAHXZ 000831fc f   PanelVehicleInfoDrive.obj
 0001:00072250       ?OnEnterPanel@CPanelVehicleInfoDrive@@UAAXIIPAX@Z 00083250 f   PanelVehicleInfoDrive.obj
 0001:00072304       ?Render@CPanelVehicleInfoDrive@@UAAXXZ 00083304 f   PanelVehicleInfoDrive.obj
 0001:00072728       ?Initialize@CPanelVehicleInfoDrive@@UAAHIPAVCPanelGL@@PAVCSkinManagerGL@@PAVCTextGL@@PAUHWND__@@U_TMODULEENTRY@@@Z 00083728 f   PanelVehicleInfoDrive.obj
 0001:00073058       ?SetInfoBelt@CPanelVehicleInfoDrive@@QAAXH@Z 00084058 f   PanelVehicleInfoDrive.obj
 0001:00073084       ?SetInfoWashWater@CPanelVehicleInfoDrive@@QAAXH@Z 00084084 f   PanelVehicleInfoDrive.obj
 0001:000730b0       ?SetInfoHandBrake@CPanelVehicleInfoDrive@@QAAXH@Z 000840b0 f   PanelVehicleInfoDrive.obj
 0001:000730dc       ?SetInfoEnginSpeed@CPanelVehicleInfoDrive@@QAAXH@Z 000840dc f   PanelVehicleInfoDrive.obj
 0001:00073108       ?SetInfoBattery@CPanelVehicleInfoDrive@@QAAXH@Z 00084108 f   PanelVehicleInfoDrive.obj
 0001:000731ac       ?SetInfoOutsideTemp@CPanelVehicleInfoDrive@@QAAXH@Z 000841ac f   PanelVehicleInfoDrive.obj
 0001:00073234       ?SetInfoTrip@CPanelVehicleInfoDrive@@QAAXH@Z 00084234 f   PanelVehicleInfoDrive.obj
 0001:00073298       ?SetInfoOil@CPanelVehicleInfoDrive@@QAAXH@Z 00084298 f   PanelVehicleInfoDrive.obj
 0001:000732f4       ?SetInfoAlertOil@CPanelVehicleInfoDrive@@QAAXH@Z 000842f4 f   PanelVehicleInfoDrive.obj
 0001:00073334       ?SetInfoAlertBettery@CPanelVehicleInfoDrive@@QAAXH@Z 00084334 f   PanelVehicleInfoDrive.obj
 0001:0007337c       ?SampleSpeed@CPanelVehicleInfoDrive@@AAAHH@Z 0008437c f   PanelVehicleInfoDrive.obj
 0001:00073554       ?ClearSpeedData@CPanelVehicleInfoDrive@@AAAXXZ 00084554 f   PanelVehicleInfoDrive.obj
 0001:00073588       ??_GCPanelVehicleInfoDrive@@UAAPAXI@Z 00084588 f i PanelVehicleInfoDrive.obj
 0001:00073588       ??_ECPanelVehicleInfoDrive@@UAAPAXI@Z 00084588 f i PanelVehicleInfoDrive.obj
 0001:000735ac       ?SetInfoInstantVel@CPanelVehicleInfoDrive@@QAAXH@Z 000845ac f   PanelVehicleInfoDrive.obj
 0001:000736ac       ?OnGPSGroundSpeed@CPanelVehicleInfoDrive@@QAAXH@Z 000846ac f   PanelVehicleInfoDrive.obj
 0001:000736c0       ??0CPanelVehicleInfoRadar@@QAA@XZ 000846c0 f   PanelVehicleInfoRadar.obj
 0001:0007371c       ??1CPanelVehicleInfoRadar@@UAA@XZ 0008471c f   PanelVehicleInfoRadar.obj
 0001:0007376c       ?OnQuitPanel@CPanelMediaDevice@@UAAXIIPAX@Z 0008476c f   PanelMediaDevice.obj
 0001:0007376c       ?OnQuitPanel@CPanelUpdate@@UAAXIIPAX@Z 0008476c f   PanelUpdate.obj
 0001:0007376c       ?OnQuitPanel@CPanelVehicleInfoAC@@UAAXIIPAX@Z 0008476c f   PanelVehicleInfoAC.obj
 0001:0007376c       ?OnQuitPanel@CPanelVehicleInfoBody@@UAAXIIPAX@Z 0008476c f   PanelVehicleInfoBody.obj
 0001:0007376c       ?OnQuitPanel@CPanelVehicleInfoRadar@@UAAXIIPAX@Z 0008476c f   PanelVehicleInfoRadar.obj
 0001:0007376c       ?OnQuitPanel@CPanelExplorer@@UAAXIIPAX@Z 0008476c f   PanelExplorer.obj
 0001:0007376c       ?OnQuitPanel@CPanelNotification@@UAAXIIPAX@Z 0008476c f   PanelNotification.obj
 0001:0007376c       ?OnQuitPanel@CPanelPassword@@UAAXIIPAX@Z 0008476c f   PanelPassword.obj
 0001:0007376c       ?OnQuitPanel@CPanelHomePage@@UAAXIIPAX@Z 0008476c f   PanelHome.obj
 0001:0007376c       ?OnQuitPanel@CPanelISDB@@UAAXIIPAX@Z 0008476c f   PanelISDB.obj
 0001:0007376c       ?OnQuitPanel@CPanelRadioLibrary@@UAAXIIPAX@Z 0008476c f   PanelRadioLibrary.obj
 0001:0007376c       ?OnQuitPanel@CPanelUpdateARM@@UAAXIIPAX@Z 0008476c f   PanelUpdateARM.obj
 0001:0007376c       ?OnQuitPanel@CPanelVehicleInfoDrive@@UAAXIIPAX@Z 0008476c f   PanelVehicleInfoDrive.obj
 0001:0007376c       ?OnQuitPanel@CPaneliPodLibrary@@UAAXIIPAX@Z 0008476c f   PaneliPodLibrary.obj
 0001:0007376c       ?OnQuitPanel@CPanelAUX@@UAAXIIPAX@Z 0008476c f   PanelAUX.obj
 0001:0007376c       ?OnQuitPanel@CPanelKeyboard@@UAAXIIPAX@Z 0008476c f   PanelKeyboard.obj
 0001:0007376c       ?OnQuitPanel@CPanelDevConnectMgr@@UAAXIIPAX@Z 0008476c f   PanelDevConnectMgr.obj
 0001:0007376c       ?OnQuitPanel@CPanelWidget@@UAAXIIPAX@Z 0008476c f   PanelWidget.obj
 0001:000737ac       ?SetInfoRadar@CPanelVehicleInfoRadar@@QAAXHH@Z 000847ac f   PanelVehicleInfoRadar.obj
 0001:000737b4       ?Initialize@CPanelVehicleInfoRadar@@UAAHIPAVCPanelGL@@PAVCSkinManagerGL@@PAVCTextGL@@PAUHWND__@@U_TMODULEENTRY@@@Z 000847b4 f   PanelVehicleInfoRadar.obj
 0001:000738c0       ??_GCPanelVehicleInfoRadar@@UAAPAXI@Z 000848c0 f i PanelVehicleInfoRadar.obj
 0001:000738c0       ??_ECPanelVehicleInfoRadar@@UAAPAXI@Z 000848c0 f i PanelVehicleInfoRadar.obj
 0001:000738ec       ??0CPanelVehicleInfoWrapper@@QAA@XZ 000848ec f   PanelVehicleInfoWrapper.obj
 0001:00073ca8       ?OnEnterPanel@CPanelVehicleInfoWrapper@@UAAXIIPAX@Z 00084ca8 f   PanelVehicleInfoWrapper.obj
 0001:00073db4       ?OnQuitPanel@CPanelVehicleInfoWrapper@@UAAXIIPAX@Z 00084db4 f   PanelVehicleInfoWrapper.obj
 0001:00073e30       ?OnGPSGroundSpeed@CPanelVehicleInfoWrapper@@QAAXH@Z 00084e30 f   PanelVehicleInfoWrapper.obj
 0001:00073e54       ?SendCanbusACK@CPanelVehicleInfoWrapper@@AAAXE@Z 00084e54 f   PanelVehicleInfoWrapper.obj
 0001:00073ed4       ?OnInfoCommon@CPanelVehicleInfoWrapper@@IAAXE@Z 00084ed4 f   PanelVehicleInfoWrapper.obj
 0001:00073f28       ?OnInfoInstantVel@CPanelVehicleInfoWrapper@@IAAXH@Z 00084f28 f   PanelVehicleInfoWrapper.obj
 0001:00073f8c       ?OnInfoRadar@CPanelVehicleInfoWrapper@@IAAXHH@Z 00084f8c f   PanelVehicleInfoWrapper.obj
 0001:00073fc8       ?OnInfoParkingAssi@CPanelVehicleInfoWrapper@@IAAXE@Z 00084fc8 f   PanelVehicleInfoWrapper.obj
 0001:00074038       ?ProcessCanbusLine@CPanelVehicleInfoWrapper@@AAAXPAEK@Z 00085038 f   PanelVehicleInfoWrapper.obj
 0001:00074418       ?ProcessCanbusPack@CPanelVehicleInfoWrapper@@QAAXPAEK@Z 00085418 f   PanelVehicleInfoWrapper.obj
 0001:000745c0       ?SendCanbusCommand@CPanelVehicleInfoWrapper@@AAAXPAEHH@Z 000855c0 f   PanelVehicleInfoWrapper.obj
 0001:00074680       ?OnTouchDown@CPanelHomePage@@UAAXPAUtagPOINT@@@Z 00085680 f   PanelHome.obj
 0001:00074680       ?OnTouchDown@CPanelVehicleInfoWrapper@@UAAXPAUtagPOINT@@@Z 00085680 f   PanelVehicleInfoWrapper.obj
 0001:000746b4       ?OnTouchMove@CPanelVehicleInfoWrapper@@UAAXPAUtagPOINT@@@Z 000856b4 f   PanelVehicleInfoWrapper.obj
 0001:000746b4       ?OnTouchMove@CPanelHomePage@@UAAXPAUtagPOINT@@@Z 000856b4 f   PanelHome.obj
 0001:000746f0       ?SendTpmsCommand@CPanelVehicleInfoWrapper@@AAAXPAEHH@Z 000856f0 f   PanelVehicleInfoWrapper.obj
 0001:00074828       ?OnTpmsSwitchTire@CPanelVehicleInfoWrapper@@IAAXII@Z 00085828 f   PanelVehicleInfoWrapper.obj
 0001:00074934       ?OnSystemPowerStatePrepare@CPanelVehicleInfoWrapper@@UAAXI@Z 00085934 f   PanelVehicleInfoWrapper.obj
 0001:00074938       ?OnReverseModeChange@CPanelVehicleInfoWrapper@@UAAXH@Z 00085938 f   PanelVehicleInfoWrapper.obj
 0001:00074974       ?OnSpeechStart@CPanelVehicleInfoWrapper@@UAAXXZ 00085974 f   PanelVehicleInfoWrapper.obj
 0001:00074984       ?OnSpeechTerminate@CPanelVehicleInfoWrapper@@UAAXXZ 00085984 f   PanelVehicleInfoWrapper.obj
 0001:00074994       ?OnPhoneCallState@CPanelVehicleInfoWrapper@@UAAXIJ@Z 00085994 f   PanelVehicleInfoWrapper.obj
 0001:000749a8       ??1CPanelVehicleInfoWrapper@@UAA@XZ 000859a8 f   PanelVehicleInfoWrapper.obj
 0001:00074d44       ?NotifySourceInfo@CPanelVehicleInfoWrapper@@QAAXEE@Z 00085d44 f   PanelVehicleInfoWrapper.obj
 0001:00074dec       ?NotifyRadioInfo@CPanelVehicleInfoWrapper@@QAAXEGEH@Z 00085dec f   PanelVehicleInfoWrapper.obj
 0001:00074ec8       ?NotifyVolumeInfo@CPanelVehicleInfoWrapper@@QAAXHH@Z 00085ec8 f   PanelVehicleInfoWrapper.obj
 0001:00074f70       ?NotifyMediaPlaybackInfo@CPanelVehicleInfoWrapper@@QAAXKK@Z 00085f70 f   PanelVehicleInfoWrapper.obj
 0001:0007503c       ?Initialize@CPanelVehicleInfoWrapper@@UAAHIPAVCPanelGL@@PAVCSkinManagerGL@@PAVCTextGL@@PAUHWND__@@U_TMODULEENTRY@@@Z 0008603c f   PanelVehicleInfoWrapper.obj
 0001:00075b48       ?RequestVchicleBodyInfo@CPanelVehicleInfoWrapper@@AAAXE@Z 00086b48 f   PanelVehicleInfoWrapper.obj
 0001:00075bbc       ?RequestACInfo@CPanelVehicleInfoWrapper@@AAAXXZ 00086bbc f   PanelVehicleInfoWrapper.obj
 0001:00075c34       ?ShowPage@CPanelVehicleInfoWrapper@@AAAXI@Z 00086c34 f   PanelVehicleInfoWrapper.obj
 0001:00075cb4       ?Connect@CPanelVehicleInfoWrapper@@QAAXH@Z 00086cb4 f   PanelVehicleInfoWrapper.obj
 0001:00075d28       ?HandleControlMSG@CPanelVehicleInfoWrapper@@MAAXKKKPAX@Z 00086d28 f   PanelVehicleInfoWrapper.obj
 0001:00075dc8       ??_ECPanelVehicleInfoWrapper@@UAAPAXI@Z 00086dc8 f i PanelVehicleInfoWrapper.obj
 0001:00075dc8       ??_GCPanelVehicleInfoWrapper@@UAAPAXI@Z 00086dc8 f i PanelVehicleInfoWrapper.obj
 0001:00075df4       ?Render@CPanelVehicleInfoWrapper@@UAAXXZ 00086df4 f   PanelVehicleInfoWrapper.obj
 0001:000761a8       ?OnTimerProc@CPanelVehicleInfoWrapper@@QAAXXZ 000871a8 f   PanelVehicleInfoWrapper.obj
 0001:00076298       ??0CPanelPowerState@@QAA@XZ 00087298 f   PanelPowerState.obj
 0001:0007633c       ??1CPanelPowerState@@UAA@XZ 0008733c f   PanelPowerState.obj
 0001:000763b8       ?OnQuitPanel@CPanelPowerState@@UAAXIIPAX@Z 000873b8 f   PanelPowerState.obj
 0001:000763cc       ?Render@CPanelPowerState@@UAAXXZ 000873cc f   PanelPowerState.obj
 0001:00076454       ?Initialize@CPanelPowerState@@UAAHIPAVCPanelGL@@PAVCSkinManagerGL@@PAVCTextGL@@PAUHWND__@@U_TMODULEENTRY@@@Z 00087454 f   PanelPowerState.obj
 0001:0007650c       ?OnTouchUp@CPanelPowerState@@UAAXPAUtagPOINT@@@Z 0008750c f   PanelPowerState.obj
 0001:0007652c       ?PowerManagerRun@CPanelPowerState@@AAAHXZ 0008752c f   PanelPowerState.obj
 0001:000765f0       ??_ECPanelPowerState@@UAAPAXI@Z 000875f0 f i PanelPowerState.obj
 0001:000765f0       ??_GCPanelPowerState@@UAAPAXI@Z 000875f0 f i PanelPowerState.obj
 0001:00076614       ?PowerManagerThreadPro@CPanelPowerState@@CAKPAX@Z 00087614 f   PanelPowerState.obj
 0001:000766b0       ?StartPowerManager@CPanelPowerState@@AAAHXZ 000876b0 f   PanelPowerState.obj
 0001:00076790       ?OnEnterPanel@CPanelPowerState@@UAAXIIPAX@Z 00087790 f   PanelPowerState.obj
 0001:00076864       ??0CPanelMHL@@QAA@XZ       00087864 f   PanelMHL.obj
 0001:00076950       ?StartMHL@CPanelMHL@@AAAXXZ 00087950 f   PanelMHL.obj
 0001:0007699c       ?StopMHL@CPanelMHL@@AAAXXZ 0008799c f   PanelMHL.obj
 0001:000769e8       ?OnEnterPanel@CPanelMHL@@UAAXIIPAX@Z 000879e8 f   PanelMHL.obj
 0001:00076a9c       ?OnQuitPanel@CPanelMHL@@UAAXIIPAX@Z 00087a9c f   PanelMHL.obj
 0001:00076b04       ?HandleControlMSG@CPanelMHL@@MAAXKKKPAX@Z 00087b04 f   PanelMHL.obj
 0001:00076b40       ?IniMHL@CPanelMHL@@AAAHXZ  00087b40 f   PanelMHL.obj
 0001:00076bdc       ?SetVideoState@CPanelMHL@@AAAXW4_Video_State_Type@@@Z 00087bdc f   PanelMHL.obj
 0001:00076cac       ?OnMHLMsg@CPanelMHL@@QAAXIJ@Z 00087cac f   PanelMHL.obj
 0001:00076cc8       ?OnHeadlightOn@CPanelSettingDisplay@@QAAXHI@Z 00087cc8 f   PanelSettingDisplay.obj
 0001:00076cc8       ?LinkVideoWindow@CPanelMHL@@QAAXPAVCVideoWindow@@@Z 00087cc8 f   PanelMHL.obj
 0001:00076cd0       ?OnSpeechStart@CPanelMHL@@UAAXXZ 00087cd0 f   PanelMHL.obj
 0001:00076cdc       ?OnSpeechTerminate@CPanelMHL@@UAAXXZ 00087cdc f   PanelMHL.obj
 0001:00076cf0       ??1CPanelMHL@@UAA@XZ       00087cf0 f   PanelMHL.obj
 0001:00076dd4       ?Render@CPanelMHL@@UAAXXZ  00087dd4 f   PanelMHL.obj
 0001:00077030       ?Initialize@CPanelMHL@@UAAHIPAVCPanelGL@@PAVCSkinManagerGL@@PAVCTextGL@@PAUHWND__@@U_TMODULEENTRY@@@Z 00088030 f   PanelMHL.obj
 0001:00077360       ??_GCPanelMHL@@UAAPAXI@Z   00088360 f i PanelMHL.obj
 0001:00077360       ??_ECPanelMHL@@UAAPAXI@Z   00088360 f i PanelMHL.obj
 0001:0007738c       ??0CPanelPhoneLink@@QAA@XZ 0008838c f   PanelPhoneLink.obj
 0001:00077484       ?IsReady@CPanelMediaLibrary@@UAAHXZ 00088484 f   PanelMediaLibrary.obj
 0001:00077484       ?IsReady@CPanelDevConnectMgr@@UAAHXZ 00088484 f   PanelDevConnectMgr.obj
 0001:00077484       ?IsReady@CPanelAndroidAuto@@UAAHXZ 00088484 f   PanelAndroidAuto.obj
 0001:00077484       ?IsReady@CPanelRadioLibrary@@UAAHXZ 00088484 f   PanelRadioLibrary.obj
 0001:00077484       ?IsReady@CPanelBluetoothTalking@@UAAHXZ 00088484 f   PanelBluetoothTalking.obj
 0001:00077484       ?IsReady@CPaneliPodLibrary@@UAAHXZ 00088484 f   PaneliPodLibrary.obj
 0001:00077484       ?IsReady@CPanelSettingDate@@UAAHXZ 00088484 f   PanelSettingDate.obj
 0001:00077484       ?IsReady@CPanelSettingTimeZone@@UAAHXZ 00088484 f   PanelSettingTimeZone.obj
 0001:00077484       ?IsReady@CPanelExplorer@@UAAHXZ 00088484 f   PanelExplorer.obj
 0001:00077484       ?IsReady@CPanelSettingAdvanced@@UAAHXZ 00088484 f   PanelSettingAdvanced.obj
 0001:00077484       ?IsReady@CPanelSettingConnectTest@@UAAHXZ 00088484 f   PanelSettingConnectTest.obj
 0001:00077484       ?IsReady@CPanelSettingRadioRegion@@UAAHXZ 00088484 f   PanelSettingRadioRegion.obj
 0001:00077484       ?IsReady@CPanelApp@@UAAHXZ 00088484 f   PanelApp.obj
 0001:00077484       ?IsReady@CPanelWebLink@@UAAHXZ 00088484 f   PanelWebLink.obj
 0001:00077484       ?IsReady@CPanelSetMAC@@UAAHXZ 00088484 f   PanelSetMAC.obj
 0001:00077484       ?IsReady@CPanelSettingRdsPTY@@UAAHXZ 00088484 f   PanelSettingRdsPTY.obj
 0001:00077484       ?IsReady@CPanelSettingIperfServer@@UAAHXZ 00088484 f   PanelSettingIperfServer.obj
 0001:00077484       ?IsReady@CPanelAUX@@UAAHXZ 00088484 f   PanelAUX.obj
 0001:00077484       ?IsReady@CPanelSettingAudio@@UAAHXZ 00088484 f   PanelSettingAudio.obj
 0001:00077484       ?IsReady@CPanelSettingTime@@UAAHXZ 00088484 f   PanelSettingTime.obj
 0001:00077484       ?IsReady@CPanelSettingFactory@@UAAHXZ 00088484 f   PanelSettingFactory.obj
 0001:00077484       ?IsReady@CPanelPowerState@@UAAHXZ 00088484 f   PanelPowerState.obj
 0001:00077484       ?IsReady@CPanelSettingDAB@@UAAHXZ 00088484 f   PanelSettingDAB.obj
 0001:00077484       ?IsReady@CPanelNaviSimulate@@UAAHXZ 00088484 f   PanelNaviSimulate.obj
 0001:00077484       ?IsReady@CPanelSettingRadio@@UAAHXZ 00088484 f   PanelSettingRadio.obj
 0001:00077484       ?IsReady@CPanelKeyboard@@UAAHXZ 00088484 f   PanelKeyboard.obj
 0001:00077484       ?IsReady@CPanelSettingDisplay@@UAAHXZ 00088484 f   PanelSettingDisplay.obj
 0001:00077484       ?IsReady@CPanelSettingBackground@@UAAHXZ 00088484 f   PanelSettingBackground.obj
 0001:00077484       ?IsReady@CPanelImageLibrary@@UAAHXZ 00088484 f   PanelImageLibrary.obj
 0001:00077484       ?IsReady@CPanelMediaDevice@@UAAHXZ 00088484 f   PanelMediaDevice.obj
 0001:00077484       ?IsReady@CPanelPassword@@UAAHXZ 00088484 f   PanelPassword.obj
 0001:00077484       ?IsReady@CPanelSettingIperfClient@@UAAHXZ 00088484 f   PanelSettingIperfClient.obj
 0001:00077484       ?IsReady@CPanelSettingBluetooth@@UAAHXZ 00088484 f   PanelSettingBluetooth.obj
 0001:00077484       ?IsReady@CPanelPhoneLink@@UAAHXZ 00088484 f   PanelPhoneLink.obj
 0001:00077484       ?IsReady@CPanelUpdate@@UAAHXZ 00088484 f   PanelUpdate.obj
 0001:00077484       ?IsReady@CPanelSettingIperfUDPClient@@UAAHXZ 00088484 f   PanelSettingIperfUDPClient.obj
 0001:00077484       ?IsReady@CPanelSettingGeneral@@UAAHXZ 00088484 f   PanelSettingGeneral.obj
 0001:00077484       ?IsReady@CPanelSettingLanguage@@UAAHXZ 00088484 f   PanelSettingLanguage.obj
 0001:00077484       ?IsReady@CPanelMHL@@UAAHXZ 00088484 f   PanelMHL.obj
 0001:00077484       ?IsReady@CPanelSettingAbout@@UAAHXZ 00088484 f   PanelSettingAbout.obj
 0001:00077484       ?IsReady@CPanelISDB@@UAAHXZ 00088484 f   PanelISDB.obj
 0001:00077484       ?IsReady@CPanelTouch@@UAAHXZ 00088484 f   PanelTouch.obj
 0001:00077484       ?IsReady@CPanelNotification@@UAAHXZ 00088484 f   PanelNotification.obj
 0001:00077484       ?IsReady@CPanelWidget@@UAAHXZ 00088484 f   PanelWidget.obj
 0001:00077484       ?IsReady@CPanelSettingIperfTCPClient@@UAAHXZ 00088484 f   PanelSettingIperfTCPClient.obj
 0001:00077484       ?IsReady@CPanelIdle@@UAAHXZ 00088484 f   PanelIdle.obj
 0001:00077488       ?OnSRCChanged@CPanelPhoneLink@@UAAXI@Z 00088488 f   PanelPhoneLink.obj
 0001:000774b0       ?OnEnterPanel@CPanelPhoneLink@@UAAXIIPAX@Z 000884b0 f   PanelPhoneLink.obj
 0001:00077674       ?Initialize@CPanelPhoneLink@@UAAHIPAVCPanelGL@@PAVCSkinManagerGL@@PAVCTextGL@@PAUHWND__@@U_TMODULEENTRY@@@Z 00088674 f   PanelPhoneLink.obj
 0001:00077810       ?OnDeviceArrivedReady@CPanelPhoneLink@@UAAXPB_W@Z 00088810 f   PanelPhoneLink.obj
 0001:0007784c       ?OnDeviceRemovedReady@CPanelPhoneLink@@UAAXPB_W@Z 0008884c f   PanelPhoneLink.obj
 0001:000778c4       ?DeiniPhoneLinkSrv@CPanelPhoneLink@@AAAXXZ 000888c4 f   PanelPhoneLink.obj
 0001:000778fc       ?OnTouchUp@CPanelMHL@@UAAXPAUtagPOINT@@@Z 000888fc f   PanelMHL.obj
 0001:000778fc       ?OnTouchUp@CPanelUpdateARM@@UAAXPAUtagPOINT@@@Z 000888fc f   PanelUpdateARM.obj
 0001:000778fc       ?OnTouchUp@CPanelAndroidAuto@@UAAXPAUtagPOINT@@@Z 000888fc f   PanelAndroidAuto.obj
 0001:000778fc       ?OnTouchUp@CPanelEasyConnected@@UAAXPAUtagPOINT@@@Z 000888fc f   PanelEasyConnected.obj
 0001:000778fc       ?OnTouchUp@CPanelImageMain@@UAAXPAUtagPOINT@@@Z 000888fc f   PanelImageMain.obj
 0001:000778fc       ?OnTouchUp@CPanelWebLink@@UAAXPAUtagPOINT@@@Z 000888fc f   PanelWebLink.obj
 0001:000778fc       ?OnTouchUp@CPanelDevConnectMgr@@UAAXPAUtagPOINT@@@Z 000888fc f   PanelDevConnectMgr.obj
 0001:000778fc       ?OnTouchUp@CPanelCarPlay@@UAAXPAUtagPOINT@@@Z 000888fc f   PanelCarPlay.obj
 0001:000778fc       ?OnTouchUp@CPanelUpdate@@UAAXPAUtagPOINT@@@Z 000888fc f   PanelUpdate.obj
 0001:000778fc       ?OnTouchUp@CPanelNotification@@UAAXPAUtagPOINT@@@Z 000888fc f   PanelNotification.obj
 0001:000778fc       ?OnTouchUp@CPanelPhoneLink@@UAAXPAUtagPOINT@@@Z 000888fc f   PanelPhoneLink.obj
 0001:000778fc       ?OnTouchUp@CPanelPassword@@UAAXPAUtagPOINT@@@Z 000888fc f   PanelPassword.obj
 0001:000778fc       ?OnTouchUp@CPanelVehicleInfoBody@@UAAXPAUtagPOINT@@@Z 000888fc f   PanelVehicleInfoBody.obj
 0001:00077900       ?SendMsg@CPanelPhoneLink@@IAAXXZ 00088900 f   PanelPhoneLink.obj
 0001:00077948       ?PLDeviceRead@CPanelPhoneLink@@IAAHPAUTRANS_DATA_STRU@@@Z 00088948 f   PanelPhoneLink.obj
 0001:000779c4       ?PLDeviceWrite@CPanelPhoneLink@@IAAHPAUTRANS_DATA_STRU@@@Z 000889c4 f   PanelPhoneLink.obj
 0001:00077a40       ?TransDataProcess@CPanelPhoneLink@@IAAHXZ 00088a40 f   PanelPhoneLink.obj
 0001:00077af0       ?OnSpeechStart@CPanelPhoneLink@@UAAXXZ 00088af0 f   PanelPhoneLink.obj
 0001:00077bb0       ?OnSpeechTerminate@CPanelPhoneLink@@UAAXXZ 00088bb0 f   PanelPhoneLink.obj
 0001:00077be8       ?OnPlaySoundEffect@CPanelPhoneLink@@UAAXH@Z 00088be8 f   PanelPhoneLink.obj
 0001:00077c20       ?OnSystemPowerStatePrepare@CPanelPhoneLink@@UAAXI@Z 00088c20 f   PanelPhoneLink.obj
 0001:00077c74       ??1CPanelPhoneLink@@UAA@XZ 00088c74 f   PanelPhoneLink.obj
 0001:00077d20       ?OnQuitPanel@CPanelPhoneLink@@UAAXIIPAX@Z 00088d20 f   PanelPhoneLink.obj
 0001:00077da0       ?NotifyConnected@CPanelPhoneLink@@QAAXH@Z 00088da0 f   PanelPhoneLink.obj
 0001:00077e84       ?OnPhoneLinkMsg@CPanelPhoneLink@@QAAXIIJ@Z 00088e84 f   PanelPhoneLink.obj
 0001:000780bc       ?PhoneLinkWndProc@CPanelPhoneLink@@SAJPAUHWND__@@IIJ@Z 000890bc f   PanelPhoneLink.obj
 0001:00078130       ??_GCPanelPhoneLink@@UAAPAXI@Z 00089130 f i PanelPhoneLink.obj
 0001:00078130       ??_ECPanelPhoneLink@@UAAPAXI@Z 00089130 f i PanelPhoneLink.obj
 0001:0007815c       ?IniPhoneLinkSrv@CPanelPhoneLink@@AAAHXZ 0008915c f   PanelPhoneLink.obj
 0001:00078380       ?Render@CPanelPhoneLink@@UAAXXZ 00089380 f   PanelPhoneLink.obj
 0001:000785a0       ??0CPanelDevConnectMgr@@QAA@XZ 000895a0 f   PanelDevConnectMgr.obj
 0001:000786a0       ??1CPanelDevConnectMgr@@UAA@XZ 000896a0 f   PanelDevConnectMgr.obj
 0001:00078790       ?OnEnterPanel@CPanelDevConnectMgr@@UAAXIIPAX@Z 00089790 f   PanelDevConnectMgr.obj
 0001:00078880       ?IsDeviceReady@CPanelDevConnectMgr@@AAAHW4DEV_TYPE@@@Z 00089880 f   PanelDevConnectMgr.obj
 0001:000789e0       ?Initialize@CPanelDevConnectMgr@@UAAHIPAVCPanelGL@@PAVCSkinManagerGL@@PAVCTextGL@@PAUHWND__@@U_TMODULEENTRY@@@Z 000899e0 f   PanelDevConnectMgr.obj
 0001:00078c28       ??_ECPanelDevConnectMgr@@UAAPAXI@Z 00089c28 f i PanelDevConnectMgr.obj
 0001:00078c28       ??_GCPanelDevConnectMgr@@UAAPAXI@Z 00089c28 f i PanelDevConnectMgr.obj
 0001:00078c54       ?Render@CPanelDevConnectMgr@@UAAXXZ 00089c54 f   PanelDevConnectMgr.obj
 0001:00079368       ??0CPanelPassword@@QAA@XZ  0008a368 f   PanelPassword.obj
 0001:0007960c       ??1CPanelPassword@@UAA@XZ  0008a60c f   PanelPassword.obj
 0001:000797dc       ?OnEnterPanel@CPanelPassword@@UAAXIIPAX@Z 0008a7dc f   PanelPassword.obj
 0001:00079860       ?Render@CPanelPassword@@UAAXXZ 0008a860 f   PanelPassword.obj
 0001:00079bf0       ?SetNotification@CPanelPassword@@QAAXPAU_NBMSG@@@Z 0008abf0 f   PanelPassword.obj
 0001:00079c64       ?ClearInput@CPanelPassword@@AAAXH@Z 0008ac64 f   PanelPassword.obj
 0001:00079d44       ?VerifyPassword@CPanelPassword@@AAAHPB_W@Z 0008ad44 f   PanelPassword.obj
 0001:00079d98       ?OnTimerProc@CPanelPassword@@CAXPAUHWND__@@IIK@Z 0008ad98 f   PanelPassword.obj
 0001:00079e3c       ??_GCPanelPassword@@UAAPAXI@Z 0008ae3c f i PanelPassword.obj
 0001:00079e3c       ??_ECPanelPassword@@UAAPAXI@Z 0008ae3c f i PanelPassword.obj
 0001:00079e68       ?Initialize@CPanelPassword@@UAAHIPAVCPanelGL@@PAVCSkinManagerGL@@PAVCTextGL@@PAUHWND__@@U_TMODULEENTRY@@@Z 0008ae68 f   PanelPassword.obj
 0001:0007a578       ?SetCmd@CPanelPassword@@QAAXIJ@Z 0008b578 f   PanelPassword.obj
 0001:0007a5bc       ?OnBack@CPanelPassword@@UAAXXZ 0008b5bc f   PanelPassword.obj
 0001:0007a604       ?Input@CPanelPassword@@AAAX_W@Z 0008b604 f   PanelPassword.obj
 0001:0007a734       ?HandleControlMSG@CPanelPassword@@MAAXKKKPAX@Z 0008b734 f   PanelPassword.obj
 0001:0007a7f4       ?AppProxyOpen@@YAPAXXZ     0008b7f4 f i PanelSettingAbout.obj
 0001:0007a83c       ??0CPanelSettingAbout@@QAA@XZ 0008b83c f   PanelSettingAbout.obj
 0001:0007ac78       ??1CPanelSettingAbout@@UAA@XZ 0008bc78 f   PanelSettingAbout.obj
 0001:0007b08c       ?OnQuitPanel@CPanelSettingAbout@@UAAXIIPAX@Z 0008c08c f   PanelSettingAbout.obj
 0001:0007b0a8       ?Render@CPanelSettingAbout@@UAAXXZ 0008c0a8 f   PanelSettingAbout.obj
 0001:0007b3d4       ?GenerateQR@CPanelSettingAbout@@AAAXXZ 0008c3d4 f   PanelSettingAbout.obj
 0001:0007b550       ?OnMACChanged@CPanelSettingAbout@@QAAXXZ 0008c550 f   PanelSettingAbout.obj
 0001:0007b5a0       ?RequestUpdateMCU@CPanelSettingAbout@@AAAXH@Z 0008c5a0 f   PanelSettingAbout.obj
 0001:0007b5e4       ?OnRequestUpdateMCUSucceed@CPanelSettingAbout@@AAAXXZ 0008c5e4 f   PanelSettingAbout.obj
 0001:0007b6cc       ?StoreFile@CPanelSettingAbout@@AAAHPB_WPBXI@Z 0008c6cc f   PanelSettingAbout.obj
 0001:0007b730       ??_ECPanelSettingAbout@@UAAPAXI@Z 0008c730 f i PanelSettingAbout.obj
 0001:0007b730       ??_GCPanelSettingAbout@@UAAPAXI@Z 0008c730 f i PanelSettingAbout.obj
 0001:0007b75c       ?Initialize@CPanelSettingAbout@@UAAHIPAVCPanelGL@@PAVCSkinManagerGL@@PAVCTextGL@@PAUHWND__@@U_TMODULEENTRY@@@Z 0008c75c f   PanelSettingAbout.obj
 0001:0007cc14       ?OnDeviceChanged@CPanelSettingAbout@@QAAXXZ 0008dc14 f   PanelSettingAbout.obj
 0001:0007cc90       ?OnMCUCmd@CPanelSettingAbout@@UAAXIJ@Z 0008dc90 f   PanelSettingAbout.obj
 0001:0007ce7c       ?PrepareUpdateOS@CPanelSettingAbout@@AAAXXZ 0008de7c f   PanelSettingAbout.obj
 0001:0007d140       ?HandleControlMSG@CPanelSettingAbout@@MAAXKKKPAX@Z 0008e140 f   PanelSettingAbout.obj
 0001:0007d498       ?Render@CPanelSettingAdvanced@@UAAXXZ 0008e498 f   PanelSettingAdvanced.obj
 0001:0007e1cc       ?OnCameraTypeChange@CPanelSettingAdvanced@@QAAXI@Z 0008f1cc f   PanelSettingAdvanced.obj
 0001:0007e234       ?CheckCalibrate@CPanelSettingAdvanced@@AAAXXZ 0008f234 f   PanelSettingAdvanced.obj
 0001:0007e2c8       ?UpdateSteerWheelPara@CPanelSettingAdvanced@@AAAXEH@Z 0008f2c8 f   PanelSettingAdvanced.obj
 0001:0007ed50       ?OnTimerProc@CPanelSettingAdvanced@@SAXPAUHWND__@@IIK@Z 0008fd50 f   PanelSettingAdvanced.obj
 0001:0007ee50       ?StartSTW@CPanelSettingAdvanced@@AAAXXZ 0008fe50 f   PanelSettingAdvanced.obj
 0001:0007f304       ?ClearSTW@CPanelSettingAdvanced@@AAAXXZ 00090304 f   PanelSettingAdvanced.obj
 0001:0007f764       ??0CPanelSettingAdvanced@@QAA@XZ 00090764 f   PanelSettingAdvanced.obj
 0001:000803c8       ??1CPanelSettingAdvanced@@UAA@XZ 000913c8 f   PanelSettingAdvanced.obj
 0001:0008102c       ?OnQuitPanel@CPanelSettingAdvanced@@UAAXIIPAX@Z 0009202c f   PanelSettingAdvanced.obj
 0001:0008106c       ?Initialize@CPanelSettingAdvanced@@UAAHIPAVCPanelGL@@PAVCSkinManagerGL@@PAVCTextGL@@PAUHWND__@@U_TMODULEENTRY@@@Z 0009206c f   PanelSettingAdvanced.obj
 0001:00083ce8       ?OnMCUCmd@CPanelSettingAdvanced@@UAAXIJ@Z 00094ce8 f   PanelSettingAdvanced.obj
 0001:00083f94       ?Lock@CPanelSettingAdvanced@@AAAXH@Z 00094f94 f   PanelSettingAdvanced.obj
 0001:00084264       ??_GCPanelSettingAdvanced@@UAAPAXI@Z 00095264 f i PanelSettingAdvanced.obj
 0001:00084264       ??_ECPanelSettingAdvanced@@UAAPAXI@Z 00095264 f i PanelSettingAdvanced.obj
 0001:00084288       ?HandleControlMSG@CPanelSettingAdvanced@@MAAXKKKPAX@Z 00095288 f   PanelSettingAdvanced.obj
 0001:00085258       ??0CPanelSettingAudio@@QAA@XZ 00096258 f   PanelSettingAudio.obj
 0001:00085a60       ??1CPanelSettingAudio@@UAA@XZ 00096a60 f   PanelSettingAudio.obj
 0001:00086274       ?Render@CPanelSettingAudio@@UAAXXZ 00097274 f   PanelSettingAudio.obj
 0001:000869c4       ?UpdateAudioPara@CPanelSettingAudio@@AAAXW4AUDIO_SET_ITEM@@H@Z 000979c4 f   PanelSettingAudio.obj
 0001:00086cb8       ?OnVolumeConfigMsg@CPanelSettingAudio@@QAAXIJ@Z 00097cb8 f   PanelSettingAudio.obj
 0001:00086d10       ??_GCPanelSettingAudio@@UAAPAXI@Z 00097d10 f i PanelSettingAudio.obj
 0001:00086d10       ??_ECPanelSettingAudio@@UAAPAXI@Z 00097d10 f i PanelSettingAudio.obj
 0001:00086d34       ?Initialize@CPanelSettingAudio@@UAAHIPAVCPanelGL@@PAVCSkinManagerGL@@PAVCTextGL@@PAUHWND__@@U_TMODULEENTRY@@@Z 00097d34 f   PanelSettingAudio.obj
 0001:000891d4       ?OnMCUCmd@CPanelSettingAudio@@UAAXIJ@Z 0009a1d4 f   PanelSettingAudio.obj
 0001:00089500       ?HandleControlMSG@CPanelSettingAudio@@MAAXKKKPAX@Z 0009a500 f   PanelSettingAudio.obj
 0001:00089948       ?OnQuitPanel@CPanelSettingBackground@@UAAXIIPAX@Z 0009a948 f   PanelSettingBackground.obj
 0001:000899a8       ?HandleControlMSG@CPanelSettingBackground@@MAAXKKKPAX@Z 0009a9a8 f   PanelSettingBackground.obj
 0001:00089ad8       ?IsImageFile@CPanelSettingBackground@@AAAHPB_W@Z 0009aad8 f   PanelSettingBackground.obj
 0001:00089b98       ??0_IMAGE_THUMB@@QAA@XZ    0009ab98 f i PanelSettingBackground.obj
 0001:00089c14       ??1_IMAGE_THUMB@@QAA@XZ    0009ac14 f i PanelSettingBackground.obj
 0001:00089c84       ?EnableRefresh@CPanelSettingBackground@@QAAXXZ 0009ac84 f   PanelSettingBackground.obj
 0001:00089c90       ?Initialize@CPanelSettingBackground@@UAAHIPAVCPanelGL@@PAVCSkinManagerGL@@PAVCTextGL@@PAUHWND__@@U_TMODULEENTRY@@@Z 0009ac90 f   PanelSettingBackground.obj
 0001:0008a1f8       ?ExploreImageFiles@CPanelSettingBackground@@AAAHPB_WH@Z 0009b1f8 f   PanelSettingBackground.obj
 0001:0008a4a4       ?ExploreThreadPro@CPanelSettingBackground@@CAKPAX@Z 0009b4a4 f   PanelSettingBackground.obj
 0001:0008a5a0       ??0CPanelSettingBackground@@QAA@XZ 0009b5a0 f   PanelSettingBackground.obj
 0001:0008a738       ??1CPanelSettingBackground@@UAA@XZ 0009b738 f   PanelSettingBackground.obj
 0001:0008a8a0       ?ClearThumbList@CPanelSettingBackground@@AAAXXZ 0009b8a0 f   PanelSettingBackground.obj
 0001:0008a92c       ?RefreshLibrary@CPanelSettingBackground@@AAAXXZ 0009b92c f   PanelSettingBackground.obj
 0001:0008aa7c       ??_GCPanelSettingBackground@@UAAPAXI@Z 0009ba7c f i PanelSettingBackground.obj
 0001:0008aa7c       ??_ECPanelSettingBackground@@UAAPAXI@Z 0009ba7c f i PanelSettingBackground.obj
 0001:0008aaa8       ?UpdateUIList@CPanelSettingBackground@@AAAXXZ 0009baa8 f   PanelSettingBackground.obj
 0001:0008ac54       ?Render@CPanelSettingBackground@@UAAXXZ 0009bc54 f   PanelSettingBackground.obj
 0001:0008ae48       ??0CPanelSettingBluetooth@@QAA@XZ 0009be48 f   PanelSettingBluetooth.obj
 0001:0008b0e4       ??1CPanelSettingBluetooth@@UAA@XZ 0009c0e4 f   PanelSettingBluetooth.obj
 0001:0008b350       ?Render@CPanelSettingBluetooth@@UAAXXZ 0009c350 f   PanelSettingBluetooth.obj
 0001:0008b670       ?RefreshSettingItem@CPanelSettingBluetooth@@AAAXH@Z 0009c670 f   PanelSettingBluetooth.obj
 0001:0008b7a4       ?OnCarPlayMsg@CPanelSettingBluetooth@@QAAXIJ@Z 0009c7a4 f   PanelSettingBluetooth.obj
 0001:0008b7e8       ?OnPhoneCallState@CPanelSettingBluetooth@@UAAXIJ@Z 0009c7e8 f   PanelSettingBluetooth.obj
 0001:0008b824       ?OnPhoneHFState@CPanelSettingBluetooth@@QAAXIJ@Z 0009c824 f   PanelSettingBluetooth.obj
 0001:0008b868       ?OnBluetoothSetupStatus@CPanelSettingBluetooth@@QAAXIJ@Z 0009c868 f   PanelSettingBluetooth.obj
 0001:0008ba2c       ??_GCPanelSettingBluetooth@@UAAPAXI@Z 0009ca2c f i PanelSettingBluetooth.obj
 0001:0008ba2c       ??_ECPanelSettingBluetooth@@UAAPAXI@Z 0009ca2c f i PanelSettingBluetooth.obj
 0001:0008ba50       ?Initialize@CPanelSettingBluetooth@@UAAHIPAVCPanelGL@@PAVCSkinManagerGL@@PAVCTextGL@@PAUHWND__@@U_TMODULEENTRY@@@Z 0009ca50 f   PanelSettingBluetooth.obj
 0001:0008c7ec       ?HandleControlMSG@CPanelSettingBluetooth@@MAAXKKKPAX@Z 0009d7ec f   PanelSettingBluetooth.obj
 0001:0008cb54       ?AfxCrtErrorCheck@@YAHH@Z  0009db54 f i PanelSettingConnectTest.obj
 0001:0008cb98       ?GetFormattedLength@?$ChTraitsOS@_W@ATL@@SAHPB_WPAD@Z 0009db98 f i PanelSettingConnectTest.obj
 0001:0008cbf8       ?Format@?$ChTraitsOS@_W@ATL@@SAHPA_WIPB_WPAD@Z 0009dbf8 f i PanelSettingConnectTest.obj
 0001:0008ccb0       ?OnDeviceRemovedReady@CPanelGL@@UAAXPB_W@Z 0009dcb0 f   PanelBluetoothA2dp.obj
 0001:0008ccb0       ?OnDiskCmd@CGUI_Fantasy@@QAAXIJ@Z 0009dcb0 f   GUI_Fantasy.obj
 0001:0008ccb0       ?onTimePlay@NullPlayer@@UAAXI@Z 0009dcb0 f   IpodControl.obj
 0001:0008ccb0       ?OnTouchUp@CPanelIdle@@UAAXPAUtagPOINT@@@Z 0009dcb0 f   PanelIdle.obj
 0001:0008ccb0       ?OnGesture@CPanelGL@@UAAXPAUtagGESTUREINFO@@@Z 0009dcb0 f   FantasyLib:PanelGL.obj
 0001:0008ccb0       ?OnDABCommand@CGUI_Fantasy@@QAAXIJ@Z 0009dcb0 f   GUI_Fantasy.obj
 0001:0008ccb0       ?OnGesture@CPanelVehicleInfoWrapper@@UAAXPAUtagGESTUREINFO@@@Z 0009dcb0 f   PanelVehicleInfoWrapper.obj
 0001:0008ccb0       ??CiAPLingoId@@QBAPBV0@XZ  0009dcb0 f   iAP_lib:iAPLingoId.obj
 0001:0008ccb0       ?OnGesture@CDashboardGL@@UAAXPAUtagGESTUREINFO@@@Z 0009dcb0 f   FantasyLib:DashboardGL.obj
 0001:0008ccb0       ?OnTouchDown@CPanelIdle@@UAAXPAUtagPOINT@@@Z 0009dcb0 f   PanelIdle.obj
 0001:0008ccb0       ?OnTouchMove@CListBoxItemGL@@UAAXPAUtagPOINT@@@Z 0009dcb0 f   FantasyLib:ListBoxGL.obj
 0001:0008ccb0       ??1CQR_Encode@@QAA@XZ      0009dcb0 f   FantasyLib:QR_Encode.obj
 0001:0008ccb0       ?getLyric@NullPlayer@@UAAXI@Z 0009dcb0 f   IpodControl.obj
 0001:0008ccb0       ?nextPlay@NullPlayer@@UAAXXZ 0009dcb0 f   IpodControl.obj
 0001:0008ccb0       ?setbuf@?$basic_streambuf@DU?$char_traits@D@std@@@std@@MAAPAV12@PADH@Z 0009dcb0 f   iAP_lib:utils.obj
 0001:0008ccb0       ?HandleControlMSG@CPaneliPodWrapper@@MAAXKKKPAX@Z 0009dcb0 f   PaneliPodWrapper.obj
 0001:0008ccb0       ?OnGestureMsg@CPanelVehicleInfoWrapper@@UAAXI@Z 0009dcb0 f   PanelVehicleInfoWrapper.obj
 0001:0008ccb0       ?onNotifyTrackIndex@NullPlayerListener@@UAAXI@Z 0009dcb0 f   iAP_lib:Player.obj
 0001:0008ccb0       ?OnSRCChanged@CPanelGL@@UAAXI@Z 0009dcb0 f   PanelBluetoothA2dp.obj
 0001:0008ccb0       ?OnGesture@CListBoxItemGL@@UAAXPAUtagGESTUREINFO@@@Z 0009dcb0 f   FantasyLib:ListBoxGL.obj
 0001:0008ccb0       ?onRecordReady@CPaneliPodLibrary@@QAAXIW4RootRecordID@iAP@@@Z 0009dcb0 f   PaneliPodLibrary.obj
 0001:0008ccb0       ?onNotifyVoiceOverItemProperty@NullRemoteControlListener@@UAAXE@Z 0009dcb0 f   iAP_lib:RemoteControlMgr.obj
 0001:0008ccb0       ?onNotifyOpenDataSession@NulliOSCommunicationListener@@UAAXG@Z 0009dcb0 f   iAP_lib:OSCommunication.obj
 0001:0008ccb0       ?fastForwardPlay@NullPlayer@@UAAXXZ 0009dcb0 f   IpodControl.obj
 0001:0008ccb0       ?OnTouchMove@CCalendarGL@@UAAXPAUtagPOINT@@@Z 0009dcb0 f   FantasyLib:CalendarGL.obj
 0001:0008ccb0       ?onNotifyTrackLength@NullPlayerListener@@UAAXI@Z 0009dcb0 f   iAP_lib:Player.obj
 0001:0008ccb0       ?OnGesture@CRadarBar@@UAAXPAUtagGESTUREINFO@@@Z 0009dcb0 f   RadarBar.obj
 0001:0008ccb0       ?getArtworkImageWidthandHeight@NullPlayer@@UBAXPAG0I@Z 0009dcb0 f   IpodControl.obj
 0001:0008ccb0       ?OnGesture@CExplorerGL@@UAAXPAUtagGESTUREINFO@@@Z 0009dcb0 f   FantasyLib:ExplorerGL.obj
 0001:0008ccb0       ?OnTouchMove@CQRBarGL@@UAAXPAUtagPOINT@@@Z 0009dcb0 f   FantasyLib:QRBarGL.obj
 0001:0008ccb0       ?OnTouchMove@CMediaPlayingFlagBar@@UAAXPAUtagPOINT@@@Z 0009dcb0 f   MediaPlayingFlagBar.obj
 0001:0008ccb0       ?OnTouchMove@CButtonGL@@UAAXPAUtagPOINT@@@Z 0009dcb0 f   FantasyLib:ButtonGL.obj
 0001:0008ccb0       ?onNotifyOpenDataSession@IapIOSCommunicationListener@@UAAXG@Z 0009dcb0 f   PaneliPodWrapper.obj
 0001:0008ccb0       ?OnHome@CPanelHomePage@@UAAXXZ 0009dcb0 f   PanelHome.obj
 0001:0008ccb0       ??CiAPCommandId@@QBAPBV0@XZ 0009dcb0 f   iAP_lib:iAPCommandId1.obj
 0001:0008ccb0       ?SetCurrentPlayingTrack@NullPlayer@@UAAXI@Z 0009dcb0 f   IpodControl.obj
 0001:0008ccb0       ?OnWidgetChanged@CPanelWidget@@QAAXIJ@Z 0009dcb0 f   PanelWidget.obj
 0001:0008ccb0       ?TemplateMethod_LedUnmute@CLEDU702P@@UAAXXZ 0009dcb0 f   LED_U702P.obj
 0001:0008ccb0       ?HandleControlMSG@CPanelRadioWrapper@@MAAXKKKPAX@Z 0009dcb0 f   PanelRadioWrapper.obj
 0001:0008ccb0       ?OperateControl@CWidgetGL@@UAAXIIPAX@Z 0009dcb0 f   PanelWidget.obj
 0001:0008ccb0       ?OnTouchMove@CSmartBarTopBanner@@UAAXPAUtagPOINT@@@Z 0009dcb0 f   SmartBarTopBanner.obj
 0001:0008ccb0       ?onNotifyiPodNotify@IapIOSCommunicationListener@@UAAXG@Z 0009dcb0 f   PaneliPodWrapper.obj
 0001:0008ccb0       ?OnSRCChanged@CPanelEasyConnected@@UAAXI@Z 0009dcb0 f   PanelEasyConnected.obj
 0001:0008ccb0       ?OnUIChanged@CPanelGL@@UAAXI@Z 0009dcb0 f   PanelBluetoothA2dp.obj
 0001:0008ccb0       ?DrawChar@CSmartBarTopBanner@@MAAXPAUIDirectDrawSurface@@_WHHPAUtagSIZE@@@Z 0009dcb0 f   SmartBarTopBanner.obj
 0001:0008ccb0       ?OnTouchMove@CLabelGL@@UAAXPAUtagPOINT@@@Z 0009dcb0 f   FantasyLib:LabelGL.obj
 0001:0008ccb0       ?OnSpeechStart@CPanelGL@@UAAXXZ 0009dcb0 f   PanelBluetoothA2dp.obj
 0001:0008ccb0       ?onNotifyRetEAProtocolTokensString@IapIOSCommunicationListener@@UAAXEAAV?$basic_string@DU?$char_traits@D@std@@V?$allocator@D@2@@std@@@Z 0009dcb0 f   PaneliPodWrapper.obj
 0001:0008ccb0       ?OnPlaySoundEffect@CPanelCarPlay@@UAAXH@Z 0009dcb0 f   PanelCarPlay.obj
 0001:0008ccb0       ?OnWallpaperChanged@CGUI@@UAAXPB_W@Z 0009dcb0 f   FantasyLib:GUI.obj
 0001:0008ccb0       ?CommandProc@CGUI_Fantasy@@KAXPAEKPAX@Z 0009dcb0 f   GUI_Fantasy.obj
 0001:0008ccb0       ?OnPlaySoundEffect@CPanelGL@@UAAXH@Z 0009dcb0 f   PanelBluetoothA2dp.obj
 0001:0008ccb0       ?OnTouchMove@CSmartBarVol@@UAAXPAUtagPOINT@@@Z 0009dcb0 f   SmartBarVol.obj
 0001:0008ccb0       ?OnTouchMove@CClockBarGL@@UAAXPAUtagPOINT@@@Z 0009dcb0 f   FantasyLib:ClockBarGL.obj
 0001:0008ccb0       ?onNotifyVoiceOverparameter@NullRemoteControlListener@@UAAXEE@Z 0009dcb0 f   iAP_lib:RemoteControlMgr.obj
 0001:0008ccb0       ?OnHome@CPanelGL@@UAAXXZ   0009dcb0 f   PanelBluetoothA2dp.obj
 0001:0008ccb0       ?OnUIChanged@CPanelRadioWrapper@@UAAXI@Z 0009dcb0 f   PanelRadioWrapper.obj
 0001:0008ccb0       ?onNotifyiPodHIDReport@NullRemoteControlListener@@UAAXPAVHIDReport@iAP@@@Z 0009dcb0 f   iAP_lib:RemoteControlMgr.obj
 0001:0008ccb0       ?OnBack@CPanelPowerState@@UAAXXZ 0009dcb0 f   PanelPowerState.obj
 0001:0008ccb0       ?HandleControlMSG@CPanelPowerState@@MAAXKKKPAX@Z 0009dcb0 f   PanelPowerState.obj
 0001:0008ccb0       ?OnMCUCmd@CPanelSettingDisplay@@UAAXIJ@Z 0009dcb0 f   PanelSettingDisplay.obj
 0001:0008ccb0       ?getPlayingTrackName@NullPlayer@@UAAXI@Z 0009dcb0 f   IpodControl.obj
 0001:0008ccb0       ?OnDeviceRemovedReady@CPanelCarPlay@@UAAXPB_W@Z 0009dcb0 f   PanelCarPlay.obj
 0001:0008ccb0       ?onRecordReady@NullBrowserListener@@UAAXIW4TopLevelRecordID@iAP@@@Z 0009dcb0 f   iAP_lib:BrowsingMgr.obj
 0001:0008ccb0       ?getRecords@NullBrowser@@UAAXII@Z 0009dcb0 f   IpodControl.obj
 0001:0008ccb0       ?onReturnRepeat@NullPlayerListener@@UAAXAAVRepeatMode@iAP@@@Z 0009dcb0 f   iAP_lib:Player.obj
 0001:0008ccb0       ?OnTouchMove@CPanelPassword@@UAAXPAUtagPOINT@@@Z 0009dcb0 f   PanelPassword.obj
 0001:0008ccb0       ?TemplateMethod_LedMute@CLEDU702P@@UAAXXZ 0009dcb0 f   LED_U702P.obj
 0001:0008ccb0       ?onNotifyVoiceOverStatus@NullRemoteControlListener@@UAAXH@Z 0009dcb0 f   iAP_lib:RemoteControlMgr.obj
 0001:0008ccb0       ?OnVideoWndGesture@CPanelMHL@@SAXIJPAX@Z 0009dcb0 f   PanelMHL.obj
 0001:0008ccb0       ?OnGesture@CClockBarGL@@UAAXPAUtagGESTUREINFO@@@Z 0009dcb0 f   FantasyLib:ClockBarGL.obj
 0001:0008ccb0       ?OnTouchMove@CSmartBarPhone@@UAAXPAUtagPOINT@@@Z 0009dcb0 f   SmartBarPhone.obj
 0001:0008ccb0       ?OnGesture@CGUI@@UAAXIJ@Z  0009dcb0 f   FantasyLib:GUI.obj
 0001:0008ccb0       ?OnGesture@CPanelImageMain@@UAAXPAUtagGESTUREINFO@@@Z 0009dcb0 f   PanelImageMain.obj
 0001:0008ccb0       ?OnMCUCmd@CPanelGL@@UAAXIJ@Z 0009dcb0 f   PanelBluetoothA2dp.obj
 0001:0008ccb0       ?getPlayingTrackAlbumName@NullPlayer@@UAAXI@Z 0009dcb0 f   IpodControl.obj
 0001:0008ccb0       ?OnGesture@CIMBarGL@@UAAXPAUtagGESTUREINFO@@@Z 0009dcb0 f   FantasyLib:IMBarGL.obj
 0001:0008ccb0       ?OnSystemPowerStateDone@CPanelGL@@UAAXI@Z 0009dcb0 f   FantasyLib:PanelGL.obj
 0001:0008ccb0       ?OnSystemPowerOFF@CGUI@@UAAXXZ 0009dcb0 f   FantasyLib:GUI.obj
 0001:0008ccb0       ?root@NullBrowser@@UAAXXZ  0009dcb0 f   IpodControl.obj
 0001:0008ccb0       ?OnTouchMove@CSmartBarDrop@@UAAXPAUtagPOINT@@@Z 0009dcb0 f   SmartBarDrop.obj
 0001:0008ccb0       ?AccessorySetVoiceOverContext@RemoteControl@@UAAXXZ 0009dcb0 f   iAP_lib:RemoteControlMgr.obj
 0001:0008ccb0       ?getTotalTime@NullPlayer@@UAAXXZ 0009dcb0 f   IpodControl.obj
 0001:0008ccb0       ?OnGesture@CStatusBarEx@@UAAXPAUtagGESTUREINFO@@@Z 0009dcb0 f   StatusBarEx.obj
 0001:0008ccb0       ?startAuthentication@NullAuthentication@@UAAXXZ 0009dcb0 f   IpodControl.obj
 0001:0008ccb0       ?getPlayingTrackArtistName@NullPlayer@@UAAXI@Z 0009dcb0 f   IpodControl.obj
 0001:0008ccb0       ?onNotifyTrackTime@NullPlayerListener@@UAAXI@Z 0009dcb0 f   iAP_lib:Player.obj
 0001:0008ccb0       ?OnTouchMove@CPanelIdle@@UAAXPAUtagPOINT@@@Z 0009dcb0 f   PanelIdle.obj
 0001:0008ccb0       ?HandleControlMSG@CPanelVehicleInfoAC@@MAAXKKKPAX@Z 0009dcb0 f   PanelVehicleInfoAC.obj
 0001:0008ccb0       ?OnMcuUpdateMsg@CPanelUpdate@@QAAXIJ@Z 0009dcb0 f   PanelUpdate.obj
 0001:0008ccb0       ?OnTouchMove@CPanelDevConnectMgr@@UAAXPAUtagPOINT@@@Z 0009dcb0 f   PanelDevConnectMgr.obj
 0001:0008ccb0       ?onNotifyTrackLyric@NullPlayerListener@@UAAXPAVLyric@iAP@@@Z 0009dcb0 f   iAP_lib:Player.obj
 0001:0008ccb0       ?setShuffleMode@NullPlayer@@UAAXAAVShuffleMode@iAP@@@Z 0009dcb0 f   IpodControl.obj
 0001:0008ccb0       ?OnGesture@CSliderGL@@UAAXPAUtagGESTUREINFO@@@Z 0009dcb0 f   FantasyLib:SliderGL.obj
 0001:0008ccb0       ?onNotifyRetEAProtocolNum@NulliOSCommunicationListener@@UAAXPAE@Z 0009dcb0 f   iAP_lib:OSCommunication.obj
 0001:0008ccb0       ?OnSRStart@CPanelGL@@UAAXXZ 0009dcb0 f   PanelBluetoothA2dp.obj
 0001:0008ccb0       ?SwitchToMainPanel@CPanelGL@@UAAXXZ 0009dcb0 f   PanelBluetoothA2dp.obj
 0001:0008ccb0       ?OnGesture@CCalendarGL@@UAAXPAUtagGESTUREINFO@@@Z 0009dcb0 f   FantasyLib:CalendarGL.obj
 0001:0008ccb0       ??0CQR_Encode@@QAA@XZ      0009dcb0 f   FantasyLib:QR_Encode.obj
 0001:0008ccb0       ?onApplicationLaunched@NullBrowserListener@@UAAXH@Z 0009dcb0 f   iAP_lib:BrowsingMgr.obj
 0001:0008ccb0       ?DrawChar@CSmartBarDrop@@MAAXPAUIDirectDrawSurface@@_WHHPAUtagSIZE@@@Z 0009dcb0 f   SmartBarDrop.obj
 0001:0008ccb0       ?OnTouchUp@CSmartBarVol@@UAAXPAUtagPOINT@@@Z 0009dcb0 f   SmartBarVol.obj
 0001:0008ccb0       ?onNotifyPlayState@NullPlayerListener@@UAAXI@Z 0009dcb0 f   iAP_lib:Player.obj
 0001:0008ccb0       ?resumePlay@NullPlayer@@UAAXXZ 0009dcb0 f   IpodControl.obj
 0001:0008ccb0       ?OnMCUCmd@CPanelSettingConnectTest@@UAAXIJ@Z 0009dcb0 f   PanelSettingConnectTest.obj
 0001:0008ccb0       ?OnGesture@CLabelGL@@UAAXPAUtagGESTUREINFO@@@Z 0009dcb0 f   FantasyLib:LabelGL.obj
 0001:0008ccb0       ?prevPlay@NullPlayer@@UAAXXZ 0009dcb0 f   IpodControl.obj
 0001:0008ccb0       ?open@NullBrowser@@UAAXI@Z 0009dcb0 f   IpodControl.obj
 0001:0008ccb0       ?OnSRTerminate@CPanelGL@@UAAXXZ 0009dcb0 f   PanelBluetoothA2dp.obj
 0001:0008ccb0       ?setAccessoryInfo@NullAuthentication@@UAAXAAV?$basic_string@DU?$char_traits@D@std@@V?$allocator@D@2@@std@@AAU_AccessoryVer@iAP@@100@Z 0009dcb0 f   IpodControl.obj
 0001:0008ccb0       ??3@YAXPAX0@Z              0009dcb0 f   AudioCodecAK7738.obj
 0001:0008ccb0       ?onRecordReady@NullBrowserListener@@UAAXIW4RootRecordID@iAP@@@Z 0009dcb0 f   iAP_lib:BrowsingMgr.obj
 0001:0008ccb0       ?OnTouchMove@CKeyBoardGL@@UAAXPAUtagPOINT@@@Z 0009dcb0 f   FantasyLib:KeyBoardGL.obj
 0001:0008ccb0       ?onReturnShuffle@NullPlayerListener@@UAAXAAVShuffleMode@iAP@@@Z 0009dcb0 f   iAP_lib:Player.obj
 0001:0008ccb0       ?PrepareForFirstTime@CGUI_Fantasy@@EAAXXZ 0009dcb0 f   GUI_Fantasy.obj
 0001:0008ccb0       ?init@NullPlayer@@UAAXXZ   0009dcb0 f   IpodControl.obj
 0001:0008ccb0       ?OnSystemPowerStateDone@CPaneliPodWrapper@@UAAXI@Z 0009dcb0 f   PaneliPodWrapper.obj
 0001:0008ccb0       ?OnTouchDown@CSmartBarVol@@UAAXPAUtagPOINT@@@Z 0009dcb0 f   SmartBarVol.obj
 0001:0008ccb0       ?up@NullBrowser@@UAAXXZ    0009dcb0 f   IpodControl.obj
 0001:0008ccb0       ?OnSRCChanged@CPanelWebLink@@UAAXI@Z 0009dcb0 f   PanelWebLink.obj
 0001:0008ccb0       ?OnTouchUp@CQRBarGL@@UAAXPAUtagPOINT@@@Z 0009dcb0 f   FantasyLib:QRBarGL.obj
 0001:0008ccb0       ?OnGestureMsg@CPanelGL@@UAAXI@Z 0009dcb0 f   FantasyLib:PanelGL.obj
 0001:0008ccb0       ?startPlay@NullPlayer@@UAAXW4_PlaybackID@iAP@@I@Z 0009dcb0 f   IpodControl.obj
 0001:0008ccb0       ?OnTouchMove@CPanelUpdateARM@@UAAXPAUtagPOINT@@@Z 0009dcb0 f   PanelUpdateARM.obj
 0001:0008ccb0       ?HandleControlMSG@CPanelVehicleInfoBody@@MAAXKKKPAX@Z 0009dcb0 f   PanelVehicleInfoBody.obj
 0001:0008ccb0       ?UpdateControl@CPanelGL@@UAAXIIPAX@Z 0009dcb0 f   PanelBluetoothA2dp.obj
 0001:0008ccb0       ?GetCurParam@CProConfig@@QAAPAUtagConfigParam@@XZ 0009dcb0 f   FantasyLib:ProConfig.obj
 0001:0008ccb0       ?OnTouchMove@CIMBarGL@@UAAXPAUtagPOINT@@@Z 0009dcb0 f   FantasyLib:IMBarGL.obj
 0001:0008ccb0       ?getArtwork@NullPlayer@@UAAXIG@Z 0009dcb0 f   IpodControl.obj
 0001:0008ccb0       ?onNotifyRetEAProtocolNum@IapIOSCommunicationListener@@UAAXPAE@Z 0009dcb0 f   PaneliPodWrapper.obj
 0001:0008ccb0       ?OnVolumeFadeReday@CPanelBluetoothWrapper@@QAAXH@Z 0009dcb0 f   PanelBluetoothWrapper.obj
 0001:0008ccb0       ?OnTouchDown@CQRBarGL@@UAAXPAUtagPOINT@@@Z 0009dcb0 f   FantasyLib:QRBarGL.obj
 0001:0008ccb0       ?OnNotifySetupInI@CPanelBluetoothMain@@QAAXPAUstrSetupInI@@@Z 0009dcb0 f   PanelBluetoothMain.obj
 0001:0008ccb0       ?OperateWidget@CGUI@@UAAXIIIPAX@Z 0009dcb0 f   FantasyLib:GUI.obj
 0001:0008ccb0       ?registerListener@NullAuthentication@@UAAXPAVAuthenticationListener@iAP@@@Z 0009dcb0 f   IpodControl.obj
 0001:0008ccb0       ?OnBacklightChanged@CGUI_Fantasy@@QAAXH@Z 0009dcb0 f   GUI_Fantasy.obj
 0001:0008ccb0       ?onNotifyCloseDataSession@IapIOSCommunicationListener@@UAAXG@Z 0009dcb0 f   PaneliPodWrapper.obj
 0001:0008ccb0       ?OnGesture@CKeyBoardGL@@UAAXPAUtagGESTUREINFO@@@Z 0009dcb0 f   FantasyLib:KeyBoardGL.obj
 0001:0008ccb0       ?RestoreDefaultConfig@CSkinManagerGL@@UAAXXZ 0009dcb0 f   FantasyLib:SkinManagerGL.obj
 0001:0008ccb0       ?onNotifyiPodDataTransfer@NulliOSCommunicationListener@@UAAXPAEG@Z 0009dcb0 f   iAP_lib:OSCommunication.obj
 0001:0008ccb0       ?onNofityPlayingTrackNum@NullPlayerListener@@UAAXI@Z 0009dcb0 f   iAP_lib:Player.obj
 0001:0008ccb0       ?OnGesture@CQRBarGL@@UAAXPAUtagGESTUREINFO@@@Z 0009dcb0 f   FantasyLib:QRBarGL.obj
 0001:0008ccb0       ??1iAPLingoId@@QAA@XZ      0009dcb0 f   iAP_lib:iAPLingoId.obj
 0001:0008ccb0       ?stopPlay@NullPlayer@@UAAXXZ 0009dcb0 f   IpodControl.obj
 0001:0008ccb0       ?onNotifyiPodNotify@NulliOSCommunicationListener@@UAAXG@Z 0009dcb0 f   iAP_lib:OSCommunication.obj
 0001:0008ccb0       ?OnDeviceArrivedReady@CPanelGL@@UAAXPB_W@Z 0009dcb0 f   PanelBluetoothA2dp.obj
 0001:0008ccb0       ?start@NullBrowser@@UAAXXZ 0009dcb0 f   IpodControl.obj
 0001:0008ccb0       ?onNotifyArtworkStatus@NullPlayerListener@@UAAXH@Z 0009dcb0 f   iAP_lib:Player.obj
 0001:0008ccb0       ?OnAudioMuteTimeout@CGUI_Fantasy@@QAAXXZ 0009dcb0 f   GUI_Fantasy.obj
 0001:0008ccb0       ?onOpenFinished@NullBrowserListener@@UAAXI@Z 0009dcb0 f   iAP_lib:BrowsingMgr.obj
 0001:0008ccb0       ?pausePlay@NullPlayer@@UAAXXZ 0009dcb0 f   IpodControl.obj
 0001:0008ccb0       ?getArtworkStatus@NullPlayer@@UAAXI@Z 0009dcb0 f   IpodControl.obj
 0001:0008ccb0       ?OnTouchMove@CStatusBarEx@@UAAXPAUtagPOINT@@@Z 0009dcb0 f   StatusBarEx.obj
 0001:0008ccb0       ?OnMCUCmd@CPanelSettingIperfServer@@UAAXIJ@Z 0009dcb0 f   PanelSettingIperfServer.obj
 0001:0008ccb0       ?TemplateMethod_LedAnimFlash@CLEDU702P@@UAAXXZ 0009dcb0 f   LED_U702P.obj
 0001:0008ccb0       ?OnGesture@CGridGL@@UAAXPAUtagGESTUREINFO@@@Z 0009dcb0 f   GridGL.obj
 0001:0008ccb0       ?OnFactoryCmd@CPanelGL@@UAAXIJ@Z 0009dcb0 f   PanelBluetoothA2dp.obj
 0001:0008ccb0       ?OnTouchMove@CPanelUpdate@@UAAXPAUtagPOINT@@@Z 0009dcb0 f   PanelUpdate.obj
 0001:0008ccb0       ?setPlayState@NullPlayer@@UAAXW4PLAY_STATE@iAP@@@Z 0009dcb0 f   IpodControl.obj
 0001:0008ccb0       ?OnSRCChanged@CPanelVehicleInfoWrapper@@UAAXI@Z 0009dcb0 f   PanelVehicleInfoWrapper.obj
 0001:0008ccb0       ?OnMute@CPanelGL@@UAAXH@Z  0009dcb0 f   PanelBluetoothA2dp.obj
 0001:0008ccb0       ?OnTouchMove@CPanelNotification@@UAAXPAUtagPOINT@@@Z 0009dcb0 f   PanelNotification.obj
 0001:0008ccb0       ?getPlayingTrackIndexFromIpod@NullPlayer@@UAAXXZ 0009dcb0 f   IpodControl.obj
 0001:0008ccb0       ?OnRadarStatus@CGUI_Fantasy@@QAAXIJ@Z 0009dcb0 f   GUI_Fantasy.obj
 0001:0008ccb0       ?HandleControlMSG@CPanelGL@@UAAXKKKPAX@Z 0009dcb0 f   PanelHome.obj
 0001:0008ccb0       ?OnTouchUp@CRadarBar@@UAAXPAUtagPOINT@@@Z 0009dcb0 f   RadarBar.obj
 0001:0008ccb0       ?reversePlay@NullPlayer@@UAAXXZ 0009dcb0 f   IpodControl.obj
 0001:0008ccb0       ?onNofityTrackName@NullPlayerListener@@UAAXAAV?$basic_string@DU?$char_traits@D@std@@V?$allocator@D@2@@std@@@Z 0009dcb0 f   iAP_lib:Player.obj
 0001:0008ccb0       ?onNotifyAccessoryUnregisterHID@NullRemoteControlListener@@UAAXH@Z 0009dcb0 f   iAP_lib:RemoteControlMgr.obj
 0001:0008ccb0       ?OnSRCChanged@CPanelMHL@@UAAXI@Z 0009dcb0 f   PanelMHL.obj
 0001:0008ccb0       ?OnPhoneCallState@CPanelGL@@UAAXIJ@Z 0009dcb0 f   PanelBluetoothA2dp.obj
 0001:0008ccb0       ?HandleControlMSG@CPanelDevConnectMgr@@MAAXKKKPAX@Z 0009dcb0 f   PanelDevConnectMgr.obj
 0001:0008ccb0       ?OnTouchDown@CRadarBar@@UAAXPAUtagPOINT@@@Z 0009dcb0 f   RadarBar.obj
 0001:0008ccb0       ?onNofityTrackArtwork@NullPlayerListener@@UAAXPAVArtwork@iAP@@@Z 0009dcb0 f   iAP_lib:Player.obj
 0001:0008ccb0       ?OnTouchMove@CPanelPowerState@@UAAXPAUtagPOINT@@@Z 0009dcb0 f   PanelPowerState.obj
 0001:0008ccb0       ?testFunc@CGUI@@UAAXXZ     0009dcb0 f   FantasyLib:GUI.obj
 0001:0008ccb0       ?onNofityTrackAlbumName@NullPlayerListener@@UAAXAAV?$basic_string@DU?$char_traits@D@std@@V?$allocator@D@2@@std@@@Z 0009dcb0 f   iAP_lib:Player.obj
 0001:0008ccb0       ?setRepeatMode@NullPlayer@@UAAXAAVRepeatMode@iAP@@@Z 0009dcb0 f   IpodControl.obj
 0001:0008ccb0       ?GetNumPlayingTracks@NullPlayer@@UAAXXZ 0009dcb0 f   IpodControl.obj
 0001:0008ccb0       ?OnMCUCmd@CPanelSettingIperfClient@@UAAXIJ@Z 0009dcb0 f   PanelSettingIperfClient.obj
 0001:0008ccb0       ?OnBack@CPanelGL@@UAAXXZ   0009dcb0 f   PanelBluetoothA2dp.obj
 0001:0008ccb0       ?Serialize@CObject@@UAAXAAVCArchive@@@Z 0009dcb0 f   DIB:Dib.obj
 0001:0008ccb0       ?onNotifyAccessoryRegisterHID@NullRemoteControlListener@@UAAXHE@Z 0009dcb0 f   iAP_lib:RemoteControlMgr.obj
 0001:0008ccb0       ?getCurrentApplicationName@NullBrowser@@UAAXXZ 0009dcb0 f   IpodControl.obj
 0001:0008ccb0       ?OnSpeechTerminate@CPanelGL@@UAAXXZ 0009dcb0 f   PanelBluetoothA2dp.obj
 0001:0008ccb0       ?OnMCUCmd@CPanelSettingIperfTCPClient@@UAAXIJ@Z 0009dcb0 f   PanelSettingIperfTCPClient.obj
 0001:0008ccb0       ?HandleControlMSG@CPanelIdle@@MAAXKKKPAX@Z 0009dcb0 f   PanelIdle.obj
 0001:0008ccb0       ?OnAvailableSourceChanged@CPanelMediaMain@@QAAXIJ@Z 0009dcb0 f   PanelMediaMain.obj
 0001:0008ccb0       ?OnHandleSRMsg@CGUI_Fantasy@@QAAXIIJ@Z 0009dcb0 f   GUI_Fantasy.obj
 0001:0008ccb0       ?OnTouchMove@CRadarBar@@UAAXPAUtagPOINT@@@Z 0009dcb0 f   RadarBar.obj
 0001:0008ccb0       ?testFunc@CAspBase@@UAAXXZ 0009dcb0 f   AspAK7738.obj
 0001:0008ccb0       ?onNotifyiPodDataTransfer@IapIOSCommunicationListener@@UAAXPAEG@Z 0009dcb0 f   PaneliPodWrapper.obj
 0001:0008ccb0       ??1ShuffleMode@iAP@@QAA@XZ 0009dcb0 f   iAP_lib:iAPShuffleMode.obj
 0001:0008ccb0       ?endFFRewPlay@NullPlayer@@UAAXXZ 0009dcb0 f   IpodControl.obj
 0001:0008ccb0       ?OnMCUCmd@CPanelSettingFactory@@UAAXIJ@Z 0009dcb0 f   PanelSettingFactory.obj
 0001:0008ccb0       ?RemoveInvalidFile@CPanelMediaLibrary@@QAAXPB_W@Z 0009dcb0 f   PanelMediaLibrary.obj
 0001:0008ccb0       ??1TransportMode@iAP@@QAA@XZ 0009dcb0 f   iAP_lib:iAPTransportMode.obj
 0001:0008ccb0       ?onNofityTrackArtistName@NullPlayerListener@@UAAXAAV?$basic_string@DU?$char_traits@D@std@@V?$allocator@D@2@@std@@@Z 0009dcb0 f   iAP_lib:Player.obj
 0001:0008ccb0       ?OnMCUCmd@CPanelSettingIperfUDPClient@@UAAXIJ@Z 0009dcb0 f   PanelSettingIperfUDPClient.obj
 0001:0008ccb0       ?registerListener@NullPlayer@@UAAXPAVPlayerListener@iAP@@@Z 0009dcb0 f   IpodControl.obj
 0001:0008ccb0       ?AccessorySendVoiceOverOperation@RemoteControl@@UAAXXZ 0009dcb0 f   iAP_lib:RemoteControlMgr.obj
 0001:0008ccb0       ?OnGesture@CMediaPlayingFlagBar@@UAAXPAUtagGESTUREINFO@@@Z 0009dcb0 f   MediaPlayingFlagBar.obj
 0001:0008ccb0       ??1RepeatMode@iAP@@QAA@XZ  0009dcb0 f   iAP_lib:iAPRepeatMode.obj
 0001:0008ccb0       ?onNotifyRetEAProtocolTokensString@NulliOSCommunicationListener@@UAAXEAAV?$basic_string@DU?$char_traits@D@std@@V?$allocator@D@2@@std@@@Z 0009dcb0 f   iAP_lib:OSCommunication.obj
 0001:0008ccb0       ?TemplateMethod_SetLedParam@CLEDU702P@@UAAXHH@Z 0009dcb0 f   LED_U702P.obj
 0001:0008ccb0       ?OnDeviceArrivedReady@CPanelCarPlay@@UAAXPB_W@Z 0009dcb0 f   PanelCarPlay.obj
 0001:0008ccb0       ?onNotifyCloseDataSession@NulliOSCommunicationListener@@UAAXG@Z 0009dcb0 f   iAP_lib:OSCommunication.obj
 0001:0008ccb0       ?onExtendedUIModeReady@NullBrowserListener@@UAAXH@Z 0009dcb0 f   iAP_lib:BrowsingMgr.obj
 0001:0008ccb0       ?registerListener@NullBrowser@@UAAXPAVBrowserListener@iAP@@@Z 0009dcb0 f   IpodControl.obj
 0001:0008ccb0       ?HandleControlMSG@CPanelImageWrapper@@MAAXKKKPAX@Z 0009dcb0 f   PanelImageWrapper.obj
 0001:0008ccb4       ?SetLength@?$CSimpleStringT@_W$0A@@ATL@@AAAXH@Z 0009dcb4 f i PanelSettingConnectTest.obj
 0001:0008ccf4       ?ThrowMemoryException@?$CSimpleStringT@_W$0A@@ATL@@KAXXZ 0009dcf4 f i PanelSettingConnectTest.obj
 0001:0008cd04       ?Fork@?$CSimpleStringT@_W$0A@@ATL@@AAAXH@Z 0009dd04 f i PanelSettingConnectTest.obj
 0001:0008cd9c       ?Reallocate@?$CSimpleStringT@_W$0A@@ATL@@AAAXH@Z 0009dd9c f i PanelSettingConnectTest.obj
 0001:0008cdf4       ?Render@CPanelSettingConnectTest@@UAAXXZ 0009ddf4 f   PanelSettingConnectTest.obj
 0001:0008d0d8       ?Initialize@CPanelSettingConnectTest@@UAAHIPAVCPanelGL@@PAVCSkinManagerGL@@PAVCTextGL@@PAUHWND__@@U_TMODULEENTRY@@@Z 0009e0d8 f   PanelSettingConnectTest.obj
 0001:0008d740       ?Empty@?$CSimpleStringT@_W$0A@@ATL@@QAAXXZ 0009e740 f i PanelSettingConnectTest.obj
 0001:0008d7e0       ?PrepareWrite2@?$CSimpleStringT@_W$0A@@ATL@@AAAXH@Z 0009e7e0 f i PanelSettingConnectTest.obj
 0001:0008d84c       ??1CPanelSettingConnectTest@@UAA@XZ 0009e84c f   PanelSettingConnectTest.obj
 0001:0008d9f4       ?SetString@?$CSimpleStringT@_W$0A@@ATL@@QAAXPB_WH@Z 0009e9f4 f i PanelSettingConnectTest.obj
 0001:0008da8c       ?FormatV@?$CStringT@_WV?$StrTraitATL@_WV?$ChTraitsOS@_W@ATL@@@ATL@@@ATL@@QAAXPB_WPAD@Z 0009ea8c f i PanelSettingConnectTest.obj
 0001:0008db08       ??_ECPanelSettingConnectTest@@UAAPAXI@Z 0009eb08 f i PanelSettingConnectTest.obj
 0001:0008db08       ??_GCPanelSettingConnectTest@@UAAPAXI@Z 0009eb08 f i PanelSettingConnectTest.obj
 0001:0008db2c       ?Format@?$CStringT@_WV?$StrTraitATL@_WV?$ChTraitsOS@_W@ATL@@@ATL@@@ATL@@QAAXPB_WZZ 0009eb2c f i PanelSettingConnectTest.obj
 0001:0008db50       ??0CPanelSettingConnectTest@@QAA@XZ 0009eb50 f   PanelSettingConnectTest.obj
 0001:0008dd40       ?OnEnterPanel@CPanelSettingConnectTest@@UAAXIIPAX@Z 0009ed40 f   PanelSettingConnectTest.obj
 0001:0008dd70       ?HandleControlMSG@CPanelSettingConnectTest@@MAAXKKKPAX@Z 0009ed70 f   PanelSettingConnectTest.obj
 0001:0008deac       ??0CPanelSettingDAB@@QAA@XZ 0009eeac f   PanelSettingDAB.obj
 0001:0008dfd8       ??1CPanelSettingDAB@@UAA@XZ 0009efd8 f   PanelSettingDAB.obj
 0001:0008e0fc       ?Render@CPanelSettingDAB@@UAAXXZ 0009f0fc f   PanelSettingDAB.obj
 0001:0008e228       ?OnDabServiceStartReady@CPanelSettingDAB@@QAAXIJ@Z 0009f228 f   PanelSettingDAB.obj
 0001:0008e2c8       ?HandleControlMSG@CPanelSettingDAB@@MAAXKKKPAX@Z 0009f2c8 f   PanelSettingDAB.obj
 0001:0008e398       ??_ECPanelSettingDAB@@UAAPAXI@Z 0009f398 f i PanelSettingDAB.obj
 0001:0008e398       ??_GCPanelSettingDAB@@UAAPAXI@Z 0009f398 f i PanelSettingDAB.obj
 0001:0008e3bc       ?Initialize@CPanelSettingDAB@@UAAHIPAVCPanelGL@@PAVCSkinManagerGL@@PAVCTextGL@@PAUHWND__@@U_TMODULEENTRY@@@Z 0009f3bc f   PanelSettingDAB.obj
 0001:0008e97c       ??0CPanelSettingDate@@QAA@XZ 0009f97c f   PanelSettingDate.obj
 0001:0008ea34       ??1CPanelSettingDate@@UAA@XZ 0009fa34 f   PanelSettingDate.obj
 0001:0008eae4       ?OnEnterPanel@CPanelSettingDate@@UAAXIIPAX@Z 0009fae4 f   PanelSettingDate.obj
 0001:0008eafc       ?Render@CPanelSettingDate@@UAAXXZ 0009fafc f   PanelSettingDate.obj
 0001:0008ebac       ?HandleControlMSG@CPanelSettingDate@@MAAXKKKPAX@Z 0009fbac f   PanelSettingDate.obj
 0001:0008ec4c       ??_ECPanelSettingDate@@UAAPAXI@Z 0009fc4c f i PanelSettingDate.obj
 0001:0008ec4c       ??_GCPanelSettingDate@@UAAPAXI@Z 0009fc4c f i PanelSettingDate.obj
 0001:0008ec70       ?Initialize@CPanelSettingDate@@UAAHIPAVCPanelGL@@PAVCSkinManagerGL@@PAVCTextGL@@PAUHWND__@@U_TMODULEENTRY@@@Z 0009fc70 f   PanelSettingDate.obj
 0001:0008f088       ?EscapeCallCenter@@YAHHHPBDHPAD@Z 000a0088 f   PanelSettingDisplay.obj
 0001:0008f188       ?SetLCDGamma@@YAXN@Z       000a0188 f   PanelSettingDisplay.obj
 0001:0008f410       ??0CPanelSettingDisplay@@QAA@XZ 000a0410 f   PanelSettingDisplay.obj
 0001:0008fbc0       ??1CPanelSettingDisplay@@UAA@XZ 000a0bc0 f   PanelSettingDisplay.obj
 0001:00090358       ?Render@CPanelSettingDisplay@@UAAXXZ 000a1358 f   PanelSettingDisplay.obj
 0001:00090d04       ?SetGamma@CPanelSettingDisplay@@AAAXN@Z 000a1d04 f   PanelSettingDisplay.obj
 0001:00090d70       ?SetLedHue@CPanelSettingDisplay@@AAAXM@Z 000a1d70 f   PanelSettingDisplay.obj
 0001:00090e84       ?SetLedDayModeBrightness@CPanelSettingDisplay@@AAAXI@Z 000a1e84 f   PanelSettingDisplay.obj
 0001:00090f64       ?SetLedNightModeBrightness@CPanelSettingDisplay@@AAAXI@Z 000a1f64 f   PanelSettingDisplay.obj
 0001:00091034       ?FreshLedSilder@CPanelSettingDisplay@@QAAXXZ 000a2034 f   PanelSettingDisplay.obj
 0001:00091234       ?EnableLedAnimEffect@CPanelSettingDisplay@@QAAXH@Z 000a2234 f   PanelSettingDisplay.obj
 0001:000913c0       ?FreshLCDBrightnessSilder@CPanelSettingDisplay@@QAAXXZ 000a23c0 f   PanelSettingDisplay.obj
 0001:0009145c       ?SetLCDDayModeBrightness@CPanelSettingDisplay@@AAAXI@Z 000a245c f   PanelSettingDisplay.obj
 0001:000914bc       ?SetLCDNightModeBrightness@CPanelSettingDisplay@@AAAXI@Z 000a24bc f   PanelSettingDisplay.obj
 0001:0009151c       ??_GCPanelSettingDisplay@@UAAPAXI@Z 000a251c f i PanelSettingDisplay.obj
 0001:0009151c       ??_ECPanelSettingDisplay@@UAAPAXI@Z 000a251c f i PanelSettingDisplay.obj
 0001:00091540       ?Initialize@CPanelSettingDisplay@@UAAHIPAVCPanelGL@@PAVCSkinManagerGL@@PAVCTextGL@@PAUHWND__@@U_TMODULEENTRY@@@Z 000a2540 f   PanelSettingDisplay.obj
 0001:00093af0       ?HandleControlMSG@CPanelSettingDisplay@@MAAXKKKPAX@Z 000a4af0 f   PanelSettingDisplay.obj
 0001:0009432c       ??0CPanelSettingFactory@@QAA@XZ 000a532c f   PanelSettingFactory.obj
 0001:000950d0       ?TPAutoRecalibrateProc@CPanelSettingFactory@@IAAXXZ 000a60d0 f   PanelSettingFactory.obj
 0001:00095298       ?OnRearColorSignalChange@CPanelSettingFactory@@QAAXI@Z 000a6298 f   PanelSettingFactory.obj
 0001:000953a8       ?UpdateTime@CPanelSettingFactory@@IAAXXZ 000a63a8 f   PanelSettingFactory.obj
 0001:000954bc       ?SystemMonitorThread@CPanelSettingFactory@@KAKPAX@Z 000a64bc f   PanelSettingFactory.obj
 0001:000956c4       ?SetTestMode@CPanelSettingFactory@@AAAXH@Z 000a66c4 f   PanelSettingFactory.obj
 0001:00095980       ??1CPanelSettingFactory@@UAA@XZ 000a6980 f   PanelSettingFactory.obj
 0001:000966c0       ?Render@CPanelSettingFactory@@UAAXXZ 000a76c0 f   PanelSettingFactory.obj
 0001:000973dc       ?HandleControlMSG@CPanelSettingFactory@@MAAXKKKPAX@Z 000a83dc f   PanelSettingFactory.obj
 0001:00097ef4       ?TPAutoRecalibrateThread@CPanelSettingFactory@@KAKPAX@Z 000a8ef4 f   PanelSettingFactory.obj
 0001:00097f18       ??_ECPanelSettingFactory@@UAAPAXI@Z 000a8f18 f i PanelSettingFactory.obj
 0001:00097f18       ??_GCPanelSettingFactory@@UAAPAXI@Z 000a8f18 f i PanelSettingFactory.obj
 0001:00097f44       ?Initialize@CPanelSettingFactory@@UAAHIPAVCPanelGL@@PAVCSkinManagerGL@@PAVCTextGL@@PAUHWND__@@U_TMODULEENTRY@@@Z 000a8f44 f   PanelSettingFactory.obj
 0001:0009b770       ??0CPanelSettingGeneral@@QAA@XZ 000ac770 f   PanelSettingGeneral.obj
 0001:0009c0f4       ??1CPanelSettingGeneral@@UAA@XZ 000ad0f4 f   PanelSettingGeneral.obj
 0001:0009ca78       ?Render@CPanelSettingGeneral@@UAAXXZ 000ada78 f   PanelSettingGeneral.obj
 0001:0009d248       ?OnMCUCmd@CPanelSettingGeneral@@UAAXIJ@Z 000ae248 f   PanelSettingGeneral.obj
 0001:0009d2a8       ?ClearFilesInFolder@CPanelSettingGeneral@@AAAXPB_W@Z 000ae2a8 f   PanelSettingGeneral.obj
 0001:0009d394       ?ConfigNaviSpeech@CPanelSettingGeneral@@AAAHW4NAVI_SPEECH_CONFIG@@@Z 000ae394 f   PanelSettingGeneral.obj
 0001:0009d424       ?LinkPages@CPanelSettingGeneral@@QAAXPAX@Z 000ae424 f   PanelSettingGeneral.obj
 0001:0009d434       ?OnBackgroundChanged@CPanelSettingGeneral@@QAAXIJ@Z 000ae434 f   PanelSettingGeneral.obj
 0001:0009d7ac       ?OnDeviceArrivedReady@CPanelSettingGeneral@@UAAXPB_W@Z 000ae7ac f   PanelSettingGeneral.obj
 0001:0009d7d8       ?OnDeviceRemovedReady@CPanelSettingGeneral@@UAAXPB_W@Z 000ae7d8 f   PanelSettingGeneral.obj
 0001:0009d804       ??_GCPanelSettingGeneral@@UAAPAXI@Z 000ae804 f i PanelSettingGeneral.obj
 0001:0009d804       ??_ECPanelSettingGeneral@@UAAPAXI@Z 000ae804 f i PanelSettingGeneral.obj
 0001:0009d830       ?OnEnterPanel@CPanelSettingGeneral@@UAAXIIPAX@Z 000ae830 f   PanelSettingGeneral.obj
 0001:0009d934       ?Initialize@CPanelSettingGeneral@@UAAHIPAVCPanelGL@@PAVCSkinManagerGL@@PAVCTextGL@@PAUHWND__@@U_TMODULEENTRY@@@Z 000ae934 f   PanelSettingGeneral.obj
 0001:0009fd70       ?RestoreTimeZone@CPanelSettingGeneral@@AAAHXZ 000b0d70 f   PanelSettingGeneral.obj
 0001:000a000c       ?RestoreBTReg@CPanelSettingGeneral@@AAAHXZ 000b100c f   PanelSettingGeneral.obj
 0001:000a00d0       ?OnDSTChanged@CPanelSettingGeneral@@QAAXXZ 000b10d0 f   PanelSettingGeneral.obj
 0001:000a0278       ?RestoreRegSetting@CPanelSettingGeneral@@AAAHXZ 000b1278 f   PanelSettingGeneral.obj
 0001:000a0a00       ?RestoreFactorySetting@CPanelSettingGeneral@@AAAXXZ 000b1a00 f   PanelSettingGeneral.obj
 0001:000a0bb8       ?HandleControlMSG@CPanelSettingGeneral@@MAAXKKKPAX@Z 000b1bb8 f   PanelSettingGeneral.obj
 0001:000a158c       ??0CPanelSettingIperfClient@@QAA@XZ 000b258c f   PanelSettingIperfClient.obj
 0001:000a1bf0       ??1CPanelSettingIperfClient@@UAA@XZ 000b2bf0 f   PanelSettingIperfClient.obj
 0001:000a2240       ?Render@CPanelSettingIperfClient@@UAAXXZ 000b3240 f   PanelSettingIperfClient.obj
 0001:000a28d0       ?UpdateSwitchStatus@CPanelSettingIperfClient@@AAAXXZ 000b38d0 f   PanelSettingIperfClient.obj
 0001:000a2920       ?UpdateRunTestStatus@CPanelSettingIperfClient@@AAAXXZ 000b3920 f   PanelSettingIperfClient.obj
 0001:000a2a94       ??_ECPanelSettingIperfClient@@UAAPAXI@Z 000b3a94 f i PanelSettingIperfClient.obj
 0001:000a2a94       ??_GCPanelSettingIperfClient@@UAAPAXI@Z 000b3a94 f i PanelSettingIperfClient.obj
 0001:000a2ab8       ?OnEnterPanel@CPanelSettingIperfClient@@UAAXIIPAX@Z 000b3ab8 f   PanelSettingIperfClient.obj
 0001:000a2ad8       ?OnCarPlayMsg@CPanelSettingIperfClient@@QAAXIJ@Z 000b3ad8 f   PanelSettingIperfClient.obj
 0001:000a2ae8       ?Initialize@CPanelSettingIperfClient@@UAAHIPAVCPanelGL@@PAVCSkinManagerGL@@PAVCTextGL@@PAUHWND__@@U_TMODULEENTRY@@@Z 000b3ae8 f   PanelSettingIperfClient.obj
 0001:000a4dbc       ?HandleControlMSG@CPanelSettingIperfClient@@MAAXKKKPAX@Z 000b5dbc f   PanelSettingIperfClient.obj
 0001:000a50bc       ??0CPanelSettingIperfServer@@QAA@XZ 000b60bc f   PanelSettingIperfServer.obj
 0001:000a53d4       ??1CPanelSettingIperfServer@@UAA@XZ 000b63d4 f   PanelSettingIperfServer.obj
 0001:000a56e4       ?ServerIPAddressUpdate@CPanelSettingIperfServer@@AAAXXZ 000b66e4 f   PanelSettingIperfServer.obj
 0001:000a592c       ?OnCarPlayMsg@CPanelSettingIperfServer@@QAAXIJ@Z 000b692c f   PanelSettingIperfServer.obj
 0001:000a5940       ?Render@CPanelSettingIperfServer@@UAAXXZ 000b6940 f   PanelSettingIperfServer.obj
 0001:000a5cb8       ?HandleControlMSG@CPanelSettingIperfServer@@MAAXKKKPAX@Z 000b6cb8 f   PanelSettingIperfServer.obj
 0001:000a5d10       ??_GCPanelSettingIperfServer@@UAAPAXI@Z 000b6d10 f i PanelSettingIperfServer.obj
 0001:000a5d10       ??_ECPanelSettingIperfServer@@UAAPAXI@Z 000b6d10 f i PanelSettingIperfServer.obj
 0001:000a5d34       ?OnEnterPanel@CPanelSettingIperfServer@@UAAXIIPAX@Z 000b6d34 f   PanelSettingIperfServer.obj
 0001:000a5d4c       ?Initialize@CPanelSettingIperfServer@@UAAHIPAVCPanelGL@@PAVCSkinManagerGL@@PAVCTextGL@@PAUHWND__@@U_TMODULEENTRY@@@Z 000b6d4c f   PanelSettingIperfServer.obj
 0001:000a6cf4       ?OnQuitPanel@CPanelSettingIperfTCPClient@@UAAXIIPAX@Z 000b7cf4 f   PanelSettingIperfTCPClient.obj
 0001:000a6d0c       ?HandleControlMSG@CPanelSettingIperfTCPClient@@MAAXKKKPAX@Z 000b7d0c f   PanelSettingIperfTCPClient.obj
 0001:000a6d64       ?TimerProc@CPanelSettingIperfTCPClient@@CAXIIKKK@Z 000b7d64 f   PanelSettingIperfTCPClient.obj
 0001:000a6d98       ?UpdateButtonsStatus@CPanelSettingIperfTCPClient@@AAAXXZ 000b7d98 f   PanelSettingIperfTCPClient.obj
 0001:000a6ee0       ?Render@CPanelSettingIperfTCPClient@@UAAXXZ 000b7ee0 f   PanelSettingIperfTCPClient.obj
 0001:000a72b4       ?Initialize@CPanelSettingIperfTCPClient@@UAAHIPAVCPanelGL@@PAVCSkinManagerGL@@PAVCTextGL@@PAUHWND__@@U_TMODULEENTRY@@@Z 000b82b4 f   PanelSettingIperfTCPClient.obj
 0001:000a7ed8       ?GetManager@?$CStringT@_WV?$StrTraitATL@_WV?$ChTraitsOS@_W@ATL@@@ATL@@@ATL@@QBAPAUIAtlStringMgr@2@XZ 000b8ed8 f i PanelSettingIperfTCPClient.obj
 0001:000a7f1c       ??0?$CSimpleStringT@_W$0A@@ATL@@QAA@PB_WHPAUIAtlStringMgr@1@@Z 000b8f1c f i PanelSettingIperfTCPClient.obj
 0001:000a7fb0       ?CloneData@?$CSimpleStringT@_W$0A@@ATL@@CAPAUCStringData@2@PAU32@@Z 000b8fb0 f i PanelSettingIperfTCPClient.obj
 0001:000a804c       ?Find@?$CStringT@_WV?$StrTraitATL@_WV?$ChTraitsOS@_W@ATL@@@ATL@@@ATL@@QBAH_WH@Z 000b904c f i PanelSettingIperfTCPClient.obj
 0001:000a80b8       ??0CPanelSettingIperfTCPClient@@QAA@XZ 000b90b8 f   PanelSettingIperfTCPClient.obj
 0001:000a836c       ??1CPanelSettingIperfTCPClient@@UAA@XZ 000b936c f   PanelSettingIperfTCPClient.obj
 0001:000a861c       ??_ECPanelSettingIperfTCPClient@@UAAPAXI@Z 000b961c f i PanelSettingIperfTCPClient.obj
 0001:000a861c       ??_GCPanelSettingIperfTCPClient@@UAAPAXI@Z 000b961c f i PanelSettingIperfTCPClient.obj
 0001:000a8640       ?Left@?$CStringT@_WV?$StrTraitATL@_WV?$ChTraitsOS@_W@ATL@@@ATL@@@ATL@@QBA?AV12@H@Z 000b9640 f i PanelSettingIperfTCPClient.obj
 0001:000a86a0       ??4?$CSimpleStringT@_W$0A@@ATL@@QAAAAV01@ABV01@@Z 000b96a0 f i PanelSettingIperfTCPClient.obj
 0001:000a873c       ?OnEnterPanel@CPanelSettingIperfTCPClient@@UAAXIIPAX@Z 000b973c f   PanelSettingIperfTCPClient.obj
 0001:000a880c       ?OnCarPlayMsg@CPanelSettingIperfTCPClient@@QAAXIJ@Z 000b980c f   PanelSettingIperfTCPClient.obj
 0001:000a89c0       ?OnTimer@CPanelSettingIperfTCPClient@@AAAXIIKK@Z 000b99c0 f   PanelSettingIperfTCPClient.obj
 0001:000a8aa4       ?OnQuitPanel@CPanelSettingIperfUDPClient@@UAAXIIPAX@Z 000b9aa4 f   PanelSettingIperfUDPClient.obj
 0001:000a8abc       ?HandleControlMSG@CPanelSettingIperfUDPClient@@MAAXKKKPAX@Z 000b9abc f   PanelSettingIperfUDPClient.obj
 0001:000a8b14       ?TimerProc@CPanelSettingIperfUDPClient@@CAXIIKKK@Z 000b9b14 f   PanelSettingIperfUDPClient.obj
 0001:000a8b48       ?UpdateButtonsStatus@CPanelSettingIperfUDPClient@@AAAXPB_W@Z 000b9b48 f   PanelSettingIperfUDPClient.obj
 0001:000a8c98       ?Render@CPanelSettingIperfUDPClient@@UAAXXZ 000b9c98 f   PanelSettingIperfUDPClient.obj
 0001:000a9148       ?Initialize@CPanelSettingIperfUDPClient@@UAAHIPAVCPanelGL@@PAVCSkinManagerGL@@PAVCTextGL@@PAUHWND__@@U_TMODULEENTRY@@@Z 000ba148 f   PanelSettingIperfUDPClient.obj
 0001:000aa154       ??0CPanelSettingIperfUDPClient@@QAA@XZ 000bb154 f   PanelSettingIperfUDPClient.obj
 0001:000aa4f4       ??1CPanelSettingIperfUDPClient@@UAA@XZ 000bb4f4 f   PanelSettingIperfUDPClient.obj
 0001:000aa8ac       ??_ECPanelSettingIperfUDPClient@@UAAPAXI@Z 000bb8ac f i PanelSettingIperfUDPClient.obj
 0001:000aa8ac       ??_GCPanelSettingIperfUDPClient@@UAAPAXI@Z 000bb8ac f i PanelSettingIperfUDPClient.obj
 0001:000aa8d0       ?OnEnterPanel@CPanelSettingIperfUDPClient@@UAAXIIPAX@Z 000bb8d0 f   PanelSettingIperfUDPClient.obj
 0001:000aa98c       ?OnCarPlayMsg@CPanelSettingIperfUDPClient@@QAAXIJ@Z 000bb98c f   PanelSettingIperfUDPClient.obj
 0001:000aabd8       ?StartUDPTest@CPanelSettingIperfUDPClient@@AAAXXZ 000bbbd8 f   PanelSettingIperfUDPClient.obj
 0001:000aad2c       ?OnTimer@CPanelSettingIperfUDPClient@@AAAXIIKK@Z 000bbd2c f   PanelSettingIperfUDPClient.obj
 0001:000aaf40       ??0CPanelSettingLanguage@@QAA@XZ 000bbf40 f   PanelSettingLanguage.obj
 0001:000ab02c       ??1CPanelSettingLanguage@@UAA@XZ 000bc02c f   PanelSettingLanguage.obj
 0001:000ab100       ?OnEnterPanel@CPanelSettingLanguage@@UAAXIIPAX@Z 000bc100 f   PanelSettingLanguage.obj
 0001:000ab158       ?OnQuitPanel@CPanelSettingLanguage@@UAAXIIPAX@Z 000bc158 f   PanelSettingLanguage.obj
 0001:000ab19c       ?HandleControlMSG@CPanelSettingLanguage@@MAAXKKKPAX@Z 000bc19c f   PanelSettingLanguage.obj
 0001:000ab3c4       ??_GCPanelSettingLanguage@@UAAPAXI@Z 000bc3c4 f i PanelSettingLanguage.obj
 0001:000ab3c4       ??_ECPanelSettingLanguage@@UAAPAXI@Z 000bc3c4 f i PanelSettingLanguage.obj
 0001:000ab3f0       ?Initialize@CPanelSettingLanguage@@UAAHIPAVCPanelGL@@PAVCSkinManagerGL@@PAVCTextGL@@PAUHWND__@@U_TMODULEENTRY@@@Z 000bc3f0 f   PanelSettingLanguage.obj
 0001:000aba44       ??0CPanelSettingRadio@@QAA@XZ 000bca44 f   PanelSettingRadio.obj
 0001:000abdf0       ??1CPanelSettingRadio@@UAA@XZ 000bcdf0 f   PanelSettingRadio.obj
 0001:000ac18c       ?Render@CPanelSettingRadio@@UAAXXZ 000bd18c f   PanelSettingRadio.obj
 0001:000ac4c8       ?UpdateRegionDisplay@CPanelSettingRadio@@AAAXK@Z 000bd4c8 f   PanelSettingRadio.obj
 0001:000ac860       ?UpdateRDS@CPanelSettingRadio@@AAAXH@Z 000bd860 f   PanelSettingRadio.obj
 0001:000ac924       ?UpdateAFStopLevel@CPanelSettingRadio@@AAAXK@Z 000bd924 f   PanelSettingRadio.obj
 0001:000ac95c       ?SetRDS@CPanelSettingRadio@@AAAXH@Z 000bd95c f   PanelSettingRadio.obj
 0001:000aca08       ??_ECPanelSettingRadio@@UAAPAXI@Z 000bda08 f i PanelSettingRadio.obj
 0001:000aca08       ??_GCPanelSettingRadio@@UAAPAXI@Z 000bda08 f i PanelSettingRadio.obj
 0001:000aca2c       ?OnEnterPanel@CPanelSettingRadio@@UAAXIIPAX@Z 000bda2c f   PanelSettingRadio.obj
 0001:000aca54       ?Initialize@CPanelSettingRadio@@UAAHIPAVCPanelGL@@PAVCSkinManagerGL@@PAVCTextGL@@PAUHWND__@@U_TMODULEENTRY@@@Z 000bda54 f   PanelSettingRadio.obj
 0001:000adcb8       ?HandleControlMSG@CPanelSettingRadio@@MAAXKKKPAX@Z 000becb8 f   PanelSettingRadio.obj
 0001:000adeec       ?OnMCUCmd@CPanelSettingRadio@@UAAXIJ@Z 000beeec f   PanelSettingRadio.obj
 0001:000ae078       ??0CPanelSettingRadioRegion@@QAA@XZ 000bf078 f   PanelSettingRadioRegion.obj
 0001:000ae160       ??1CPanelSettingRadioRegion@@UAA@XZ 000bf160 f   PanelSettingRadioRegion.obj
 0001:000ae234       ?OnEnterPanel@CPanelSettingRadioRegion@@UAAXIIPAX@Z 000bf234 f   PanelSettingRadioRegion.obj
 0001:000ae290       ?SetRadioRegion@CPanelSettingRadioRegion@@IAAXK@Z 000bf290 f   PanelSettingRadioRegion.obj
 0001:000ae31c       ??_GCPanelSettingRadioRegion@@UAAPAXI@Z 000bf31c f i PanelSettingRadioRegion.obj
 0001:000ae31c       ??_ECPanelSettingRadioRegion@@UAAPAXI@Z 000bf31c f i PanelSettingRadioRegion.obj
 0001:000ae348       ?Initialize@CPanelSettingRadioRegion@@UAAHIPAVCPanelGL@@PAVCSkinManagerGL@@PAVCTextGL@@PAUHWND__@@U_TMODULEENTRY@@@Z 000bf348 f   PanelSettingRadioRegion.obj
 0001:000af1a4       ?HandleControlMSG@CPanelSettingRadioRegion@@MAAXKKKPAX@Z 000c01a4 f   PanelSettingRadioRegion.obj
 0001:000af27c       ??0CPanelSettingRdsPTY@@QAA@XZ 000c027c f   PanelSettingRdsPTY.obj
 0001:000af358       ??1CPanelSettingRdsPTY@@UAA@XZ 000c0358 f   PanelSettingRdsPTY.obj
 0001:000af42c       ?OnQuitPanel@CPanelSettingDAB@@UAAXIIPAX@Z 000c042c f   PanelSettingDAB.obj
 0001:000af42c       ?OnQuitPanel@CPanelSettingRadio@@UAAXIIPAX@Z 000c042c f   PanelSettingRadio.obj
 0001:000af42c       ?OnQuitPanel@CPanelSettingBluetooth@@UAAXIIPAX@Z 000c042c f   PanelSettingBluetooth.obj
 0001:000af42c       ?OnQuitPanel@CPanelSettingIperfClient@@UAAXIIPAX@Z 000c042c f   PanelSettingIperfClient.obj
 0001:000af42c       ?OnQuitPanel@CPanelSettingDate@@UAAXIIPAX@Z 000c042c f   PanelSettingDate.obj
 0001:000af42c       ?OnQuitPanel@CPanelSettingFactory@@UAAXIIPAX@Z 000c042c f   PanelSettingFactory.obj
 0001:000af42c       ?OnQuitPanel@CPanelSettingDisplay@@UAAXIIPAX@Z 000c042c f   PanelSettingDisplay.obj
 0001:000af42c       ?OnQuitPanel@CPanelSettingConnectTest@@UAAXIIPAX@Z 000c042c f   PanelSettingConnectTest.obj
 0001:000af42c       ?OnQuitPanel@CPanelSettingGeneral@@UAAXIIPAX@Z 000c042c f   PanelSettingGeneral.obj
 0001:000af42c       ?OnQuitPanel@CPanelSettingIperfServer@@UAAXIIPAX@Z 000c042c f   PanelSettingIperfServer.obj
 0001:000af42c       ?OnQuitPanel@CPanelSettingAudio@@UAAXIIPAX@Z 000c042c f   PanelSettingAudio.obj
 0001:000af42c       ?OnQuitPanel@CPanelSettingTimeZone@@UAAXIIPAX@Z 000c042c f   PanelSettingTimeZone.obj
 0001:000af42c       ?OnQuitPanel@CPanelSettingRdsPTY@@UAAXIIPAX@Z 000c042c f   PanelSettingRdsPTY.obj
 0001:000af42c       ?OnQuitPanel@CPanelSettingRadioRegion@@UAAXIIPAX@Z 000c042c f   PanelSettingRadioRegion.obj
 0001:000af430       ?Render@CPanelSettingLanguage@@UAAXXZ 000c0430 f   PanelSettingLanguage.obj
 0001:000af430       ?Render@CPanelSettingTimeZone@@UAAXXZ 000c0430 f   PanelSettingTimeZone.obj
 0001:000af430       ?Render@CPanelSettingRadioRegion@@UAAXXZ 000c0430 f   PanelSettingRadioRegion.obj
 0001:000af430       ?Render@CPanelSettingRdsPTY@@UAAXXZ 000c0430 f   PanelSettingRdsPTY.obj
 0001:000af4d8       ?HandleControlMSG@CPanelSettingRdsPTY@@MAAXKKKPAX@Z 000c04d8 f   PanelSettingRdsPTY.obj
 0001:000af5c4       ??_GCPanelSettingRdsPTY@@UAAPAXI@Z 000c05c4 f i PanelSettingRdsPTY.obj
 0001:000af5c4       ??_ECPanelSettingRdsPTY@@UAAPAXI@Z 000c05c4 f i PanelSettingRdsPTY.obj
 0001:000af5f0       ?Initialize@CPanelSettingRdsPTY@@UAAHIPAVCPanelGL@@PAVCSkinManagerGL@@PAVCTextGL@@PAUHWND__@@U_TMODULEENTRY@@@Z 000c05f0 f   PanelSettingRdsPTY.obj
 0001:000afb6c       ??0CPanelSettingTime@@QAA@XZ 000c0b6c f   PanelSettingTime.obj
 0001:000afc1c       ??1CPanelSettingTime@@UAA@XZ 000c0c1c f   PanelSettingTime.obj
 0001:000afcc4       ?OnEnterPanel@CPanelSettingRdsPTY@@UAAXIIPAX@Z 000c0cc4 f   PanelSettingRdsPTY.obj
 0001:000afcc4       ?OnEnterPanel@CPanelSettingAbout@@UAAXIIPAX@Z 000c0cc4 f   PanelSettingAbout.obj
 0001:000afcc4       ?OnEnterPanel@CPanelSettingFactory@@UAAXIIPAX@Z 000c0cc4 f   PanelSettingFactory.obj
 0001:000afcc4       ?OnEnterPanel@CPanelSettingDAB@@UAAXIIPAX@Z 000c0cc4 f   PanelSettingDAB.obj
 0001:000afcc4       ?OnEnterPanel@CPanelSettingAdvanced@@UAAXIIPAX@Z 000c0cc4 f   PanelSettingAdvanced.obj
 0001:000afcc4       ?OnEnterPanel@CPanelSettingBluetooth@@UAAXIIPAX@Z 000c0cc4 f   PanelSettingBluetooth.obj
 0001:000afcc4       ?OnEnterPanel@CPanelSettingDisplay@@UAAXIIPAX@Z 000c0cc4 f   PanelSettingDisplay.obj
 0001:000afcc4       ?OnEnterPanel@CPanelSettingTime@@UAAXIIPAX@Z 000c0cc4 f   PanelSettingTime.obj
 0001:000afcc4       ?OnEnterPanel@CPanelSettingAudio@@UAAXIIPAX@Z 000c0cc4 f   PanelSettingAudio.obj
 0001:000afcc8       ?OnQuitPanel@CPanelSettingTime@@UAAXIIPAX@Z 000c0cc8 f   PanelSettingTime.obj
 0001:000afce0       ?Render@CPanelSettingTime@@UAAXXZ 000c0ce0 f   PanelSettingTime.obj
 0001:000afd88       ?OnNotify@CPanelSettingIperfClient@@KAXKKKPAX0@Z 000c0d88 f   PanelSettingIperfClient.obj
 0001:000afd88       ?OnNotify@CPanelSettingBackground@@KAXKKKPAX0@Z 000c0d88 f   PanelSettingBackground.obj
 0001:000afd88       ?OnNotify@CPanelSettingTime@@KAXKKKPAX0@Z 000c0d88 f   PanelSettingTime.obj
 0001:000afd88       ?OnNotify@CPanelSettingConnectTest@@KAXKKKPAX0@Z 000c0d88 f   PanelSettingConnectTest.obj
 0001:000afd88       ?OnNotify@CPanelBluetoothA2dp@@KAXKKKPAX0@Z 000c0d88 f   PanelBluetoothA2dp.obj
 0001:000afd88       ?OnNotify@CPanelVehicleInfoWrapper@@KAXKKKPAX0@Z 000c0d88 f   PanelVehicleInfoWrapper.obj
 0001:000afd88       ?OnNotify@CPanelSettingRdsPTY@@KAXKKKPAX0@Z 000c0d88 f   PanelSettingRdsPTY.obj
 0001:000afd88       ?OnNotify@CPanelSettingGeneral@@KAXKKKPAX0@Z 000c0d88 f   PanelSettingGeneral.obj
 0001:000afd88       ?OnNotify@CPanelSetMAC@@SAXKKKPAX0@Z 000c0d88 f   PanelSetMAC.obj
 0001:000afd88       ?OnNotify@CPanelRadioLibrary@@KAXKKKPAX0@Z 000c0d88 f   PanelRadioLibrary.obj
 0001:000afd88       ?OnNotify@CPanelSettingAdvanced@@KAXKKKPAX0@Z 000c0d88 f   PanelSettingAdvanced.obj
 0001:000afd88       ?OnNotify@CPanelSettingRadio@@KAXKKKPAX0@Z 000c0d88 f   PanelSettingRadio.obj
 0001:000afd88       ?OnNotify@CPanelSettingTimeZone@@KAXKKKPAX0@Z 000c0d88 f   PanelSettingTimeZone.obj
 0001:000afd88       ?OnNotify@CPanelPassword@@SAXKKKPAX0@Z 000c0d88 f   PanelPassword.obj
 0001:000afd88       ?OnNotify@CPanelMHL@@SAXKKKPAX0@Z 000c0d88 f   PanelMHL.obj
 0001:000afd88       ?OnNotify@CPanelSettingDisplay@@KAXKKKPAX0@Z 000c0d88 f   PanelSettingDisplay.obj
 0001:000afd88       ?OnNotify@CPanelSettingIperfUDPClient@@KAXKKKPAX0@Z 000c0d88 f   PanelSettingIperfUDPClient.obj
 0001:000afd88       ?OnNotify@CPanelSettingAbout@@KAXKKKPAX0@Z 000c0d88 f   PanelSettingAbout.obj
 0001:000afd88       ?OnNotify@CPanelSettingRadioRegion@@KAXKKKPAX0@Z 000c0d88 f   PanelSettingRadioRegion.obj
 0001:000afd88       ?OnNotify@CPanelImageMain@@KAXKKKPAX0@Z 000c0d88 f   PanelImageMain.obj
 0001:000afd88       ?OnNotify@CPanelSettingLanguage@@KAXKKKPAX0@Z 000c0d88 f   PanelSettingLanguage.obj
 0001:000afd88       ?OnNotify@CPaneliPodLibrary@@KAXKKKPAX0@Z 000c0d88 f   PaneliPodLibrary.obj
 0001:000afd88       ?OnNotify@CPanelSettingFactory@@KAXKKKPAX0@Z 000c0d88 f   PanelSettingFactory.obj
 0001:000afd88       ?OnNotify@CPanelSettingDAB@@KAXKKKPAX0@Z 000c0d88 f   PanelSettingDAB.obj
 0001:000afd88       ?OnNotify@CPanelNotification@@SAXKKKPAX0@Z 000c0d88 f   PanelNotification.obj
 0001:000afd88       ?OnNotify@CPanelWidget@@SAXKKKPAX0@Z 000c0d88 f   PanelWidget.obj
 0001:000afd88       ?OnNotify@CPaneliPodMain@@KAXKKKPAX0@Z 000c0d88 f   PaneliPodMain.obj
 0001:000afd88       ?OnNotify@CPanelMediaMain@@KAXKKKPAX0@Z 000c0d88 f   PanelMediaMain.obj
 0001:000afd88       ?OnNotify@CPanelSettingAudio@@KAXKKKPAX0@Z 000c0d88 f   PanelSettingAudio.obj
 0001:000afd88       ?OnNotify@CPanelSettingIperfTCPClient@@KAXKKKPAX0@Z 000c0d88 f   PanelSettingIperfTCPClient.obj
 0001:000afd88       ?OnNotify@CPanelSettingIperfServer@@KAXKKKPAX0@Z 000c0d88 f   PanelSettingIperfServer.obj
 0001:000afd88       ?OnNotify@CPanelSettingDate@@KAXKKKPAX0@Z 000c0d88 f   PanelSettingDate.obj
 0001:000afd88       ?OnNotify@CPanelSettingBluetooth@@KAXKKKPAX0@Z 000c0d88 f   PanelSettingBluetooth.obj
 0001:000afd88       ?OnNotify@CPanelNaviSimulate@@SAXKKKPAX0@Z 000c0d88 f   PanelNaviSimulate.obj
 0001:000afdc8       ?HandleControlMSG@CPanelSettingTime@@MAAXKKKPAX@Z 000c0dc8 f   PanelSettingTime.obj
 0001:000afe68       ??_GCPanelSettingTime@@UAAPAXI@Z 000c0e68 f i PanelSettingTime.obj
 0001:000afe68       ??_ECPanelSettingTime@@UAAPAXI@Z 000c0e68 f i PanelSettingTime.obj
 0001:000afe8c       ?Initialize@CPanelSettingTime@@UAAHIPAVCPanelGL@@PAVCSkinManagerGL@@PAVCTextGL@@PAUHWND__@@U_TMODULEENTRY@@@Z 000c0e8c f   PanelSettingTime.obj
 0001:000b02c0       ?EnumKey@CReg@@QAAHPA_WK@Z 000c12c0 f i PanelSettingTimeZone.obj
 0001:000b0334       ??0CPanelSettingTimeZone@@QAA@XZ 000c1334 f   PanelSettingTimeZone.obj
 0001:000b041c       ??1CPanelSettingTimeZone@@UAA@XZ 000c141c f   PanelSettingTimeZone.obj
 0001:000b04f0       ??_ECPanelSettingTimeZone@@UAAPAXI@Z 000c14f0 f i PanelSettingTimeZone.obj
 0001:000b04f0       ??_GCPanelSettingTimeZone@@UAAPAXI@Z 000c14f0 f i PanelSettingTimeZone.obj
 0001:000b051c       ?OnEnterPanel@CPanelSettingTimeZone@@UAAXIIPAX@Z 000c151c f   PanelSettingTimeZone.obj
 0001:000b0768       ?Initialize@CPanelSettingTimeZone@@UAAHIPAVCPanelGL@@PAVCSkinManagerGL@@PAVCTextGL@@PAUHWND__@@U_TMODULEENTRY@@@Z 000c1768 f   PanelSettingTimeZone.obj
 0001:000b0f7c       ?TimeZoneChanged@CPanelSettingTimeZone@@AAAXXZ 000c1f7c f   PanelSettingTimeZone.obj
 0001:000b1310       ?HandleControlMSG@CPanelSettingTimeZone@@MAAXKKKPAX@Z 000c2310 f   PanelSettingTimeZone.obj
 0001:000b13d0       ??0CPanelSettingWrapper@@QAA@XZ 000c23d0 f   PanelSettingWrapper.obj
 0001:000b1bcc       ??1CPanelSettingWrapper@@UAA@XZ 000c2bcc f   PanelSettingWrapper.obj
 0001:000b23b8       ?IsReady@CPanelSettingWrapper@@UAAHXZ 000c33b8 f   PanelSettingWrapper.obj
 0001:000b2410       ?OnEnterPanel@CPanelSettingWrapper@@UAAXIIPAX@Z 000c3410 f   PanelSettingWrapper.obj
 0001:000b24d4       ?OnQuitPanel@CPanelSettingWrapper@@UAAXIIPAX@Z 000c34d4 f   PanelSettingWrapper.obj
 0001:000b2590       ?OnTouchDown@CPanelSettingWrapper@@UAAXPAUtagPOINT@@@Z 000c3590 f   PanelSettingWrapper.obj
 0001:000b25c4       ?OnTouchUp@CPanelSettingWrapper@@UAAXPAUtagPOINT@@@Z 000c35c4 f   PanelSettingWrapper.obj
 0001:000b25f8       ?OnTouchMove@CPanelSettingWrapper@@UAAXPAUtagPOINT@@@Z 000c35f8 f   PanelSettingWrapper.obj
 0001:000b262c       ?OnGesture@CPanelSettingWrapper@@UAAXPAUtagGESTUREINFO@@@Z 000c362c f   PanelSettingWrapper.obj
 0001:000b2668       ?Render@CPanelSettingWrapper@@UAAXXZ 000c3668 f   PanelSettingWrapper.obj
 0001:000b28dc       ?OnNotify@CPanelSettingWrapper@@KAXKKKPAX0@Z 000c38dc f   PanelSettingWrapper.obj
 0001:000b293c       ?HandleControlMSG@CPanelSettingWrapper@@MAAXKKKPAX@Z 000c393c f   PanelSettingWrapper.obj
 0001:000b2a04       ?OnMCUCmd@CPanelSettingWrapper@@UAAXIJ@Z 000c3a04 f   PanelSettingWrapper.obj
 0001:000b2ae8       ?OnDeviceChanged@CPanelSettingWrapper@@QAAXXZ 000c3ae8 f   PanelSettingWrapper.obj
 0001:000b2b14       ?OnMACChanged@CPanelSettingWrapper@@QAAXXZ 000c3b14 f   PanelSettingWrapper.obj
 0001:000b2b24       ?OnCarPlayMsg@CPanelSettingWrapper@@QAAXIJ@Z 000c3b24 f   PanelSettingWrapper.obj
 0001:000b2ba8       ?OnPhoneHFState@CPanelSettingWrapper@@QAAXIJ@Z 000c3ba8 f   PanelSettingWrapper.obj
 0001:000b2bb8       ?OnPhoneCallState@CPanelSettingWrapper@@UAAXIJ@Z 000c3bb8 f   PanelSettingWrapper.obj
 0001:000b2be4       ?OnBluetoothSetupStatus@CPanelSettingWrapper@@QAAXIJ@Z 000c3be4 f   PanelSettingWrapper.obj
 0001:000b2bf4       ?OnCameraTypeChange@CPanelSettingWrapper@@QAAXI@Z 000c3bf4 f   PanelSettingWrapper.obj
 0001:000b2c04       ?OnRearColorSignalChange@CPanelSettingWrapper@@QAAXI@Z 000c3c04 f   PanelSettingWrapper.obj
 0001:000b2c14       ?OnBackgroundChanged@CPanelSettingWrapper@@QAAXIJ@Z 000c3c14 f   PanelSettingWrapper.obj
 0001:000b2c24       ?OnDeviceArrivedReady@CPanelSettingWrapper@@UAAXPB_W@Z 000c3c24 f   PanelSettingWrapper.obj
 0001:000b2c48       ?OnDeviceRemovedReady@CPanelSettingWrapper@@UAAXPB_W@Z 000c3c48 f   PanelSettingWrapper.obj
 0001:000b2c84       ?OnVolumeConfigMsg@CPanelSettingWrapper@@QAAXIJ@Z 000c3c84 f   PanelSettingWrapper.obj
 0001:000b2c8c       ?OnPanelLightChange@CPanelSettingWrapper@@QAAXXZ 000c3c8c f   PanelSettingWrapper.obj
 0001:000b2c9c       ?OnHeadLightOn@CPanelSettingWrapper@@QAAXHI@Z 000c3c9c f   PanelSettingWrapper.obj
 0001:000b2cac       ?OnLCDBrightnessChange@CPanelSettingWrapper@@QAAXXZ 000c3cac f   PanelSettingWrapper.obj
 0001:000b2cbc       ?OnSetPasswordBox@CPanelSettingWrapper@@QAAXPAU_NBMSG@@@Z 000c3cbc f   PanelSettingWrapper.obj
 0001:000b2ccc       ?OnPasswordBoxCmd@CPanelSettingWrapper@@QAAXIJ@Z 000c3ccc f   PanelSettingWrapper.obj
 0001:000b2cdc       ?OnDabServiceStartReady@CPanelSettingWrapper@@QAAXIJ@Z 000c3cdc f   PanelSettingWrapper.obj
 0001:000b2cec       ??_ECPanelSettingWrapper@@UAAPAXI@Z 000c3cec f i PanelSettingWrapper.obj
 0001:000b2cec       ??_GCPanelSettingWrapper@@UAAPAXI@Z 000c3cec f i PanelSettingWrapper.obj
 0001:000b2d18       ?Initialize@CPanelSettingWrapper@@UAAHIPAVCPanelGL@@PAVCSkinManagerGL@@PAVCTextGL@@PAUHWND__@@U_TMODULEENTRY@@@Z 000c3d18 f   PanelSettingWrapper.obj
 0001:000b4318       ?SendImageCommand@@YAXIJ@Z 000c5318 f   ImageCommon.obj
 0001:000b4354       ??0CPanelImageLibrary@@QAA@XZ 000c5354 f   PanelImageLibrary.obj
 0001:000b4ae8       ??1CPanelImageLibrary@@UAA@XZ 000c5ae8 f   PanelImageLibrary.obj
 0001:000b522c       ?OnEnterPanel@CPanelImageLibrary@@UAAXIIPAX@Z 000c622c f   PanelImageLibrary.obj
 0001:000b52b0       ?OnQuitPanel@CPanelImageLibrary@@UAAXIIPAX@Z 000c62b0 f   PanelImageLibrary.obj
 0001:000b5310       ?OnNotify@CPanelImageLibrary@@KAXKKKPAX0@Z 000c6310 f   PanelImageLibrary.obj
 0001:000b5384       ?IsImageFile@CPanelImageLibrary@@AAAHPB_W@Z 000c6384 f   PanelImageLibrary.obj
 0001:000b5444       ?ExploreImageFiles@CPanelImageLibrary@@AAAHPB_W@Z 000c6444 f   PanelImageLibrary.obj
 0001:000b56b0       ?ExploreThreadPro@CPanelImageLibrary@@CAKPAX@Z 000c66b0 f   PanelImageLibrary.obj
 0001:000b575c       ?IsOnRoot@CPanelImageLibrary@@AAAHXZ 000c675c f   PanelImageLibrary.obj
 0001:000b57a8       ?ExplorePath@CPanelImageLibrary@@AAAXPB_W@Z 000c67a8 f   PanelImageLibrary.obj
 0001:000b5b94       ?RefreshLibrary@CPanelImageLibrary@@AAAXXZ 000c6b94 f   PanelImageLibrary.obj
 0001:000b5c30       ?ClearList@CPanelImageLibrary@@QAAXXZ 000c6c30 f   PanelImageLibrary.obj
 0001:000b5c40       ?GetIndexValue@CPanelImageLibrary@@QAAPB_WHH@Z 000c6c40 f   PanelImageLibrary.obj
 0001:000b5c90       ?GetNextValue@CPanelImageLibrary@@QAAPB_WXZ 000c6c90 f   PanelImageLibrary.obj
 0001:000b5d7c       ?GetPreviousValue@CPanelImageLibrary@@QAAPB_WXZ 000c6d7c f   PanelImageLibrary.obj
 0001:000b5e64       ??_GCPanelImageLibrary@@UAAPAXI@Z 000c6e64 f i PanelImageLibrary.obj
 0001:000b5e64       ??_ECPanelImageLibrary@@UAAPAXI@Z 000c6e64 f i PanelImageLibrary.obj
 0001:000b5e88       ?Initialize@CPanelImageLibrary@@UAAHIPAVCPanelGL@@PAVCSkinManagerGL@@PAVCTextGL@@PAUHWND__@@U_TMODULEENTRY@@@Z 000c6e88 f   PanelImageLibrary.obj
 0001:000b7668       ?GotoParent@CPanelImageLibrary@@AAAXXZ 000c8668 f   PanelImageLibrary.obj
 0001:000b7724       ?SetCurPath@CPanelImageLibrary@@AAAXPB_W@Z 000c8724 f   PanelImageLibrary.obj
 0001:000b7794       ?SelectDevice@CPanelImageLibrary@@QAAXI@Z 000c8794 f   PanelImageLibrary.obj
 0001:000b791c       ?OnAvailableSourceChanged@CPanelImageLibrary@@QAAXIJ@Z 000c891c f   PanelImageLibrary.obj
 0001:000b7c5c       ?SetBrowseType@CPanelImageLibrary@@QAAXW4MEDIA_LIBRARY_TYPE@@@Z 000c8c5c f   PanelImageLibrary.obj
 0001:000b7dc8       ?Render@CPanelImageLibrary@@UAAXXZ 000c8dc8 f   PanelImageLibrary.obj
 0001:000b8598       ?EnterCurPath@CPanelImageLibrary@@AAAXXZ 000c9598 f   PanelImageLibrary.obj
 0001:000b869c       ?HandleControlMSG@CPanelImageLibrary@@MAAXKKKPAX@Z 000c969c f   PanelImageLibrary.obj
 0001:000b8a58       ??0CPanelImageMain@@QAA@XZ 000c9a58 f   PanelImageMain.obj
 0001:000b8fa4       ?IsReady@CPanelImageMain@@UAAHXZ 000c9fa4 f   PanelImageMain.obj
 0001:000b8fcc       ?OnEnterPanel@CPanelImageMain@@UAAXIIPAX@Z 000c9fcc f   PanelImageMain.obj
 0001:000b9050       ?OnQuitPanel@CPanelImageMain@@UAAXIIPAX@Z 000ca050 f   PanelImageMain.obj
 0001:000b909c       ?Render@CPanelImageMain@@UAAXXZ 000ca09c f   PanelImageMain.obj
 0001:000b944c       ?LoadImageFile@CPanelImageMain@@QAAHPB_W@Z 000ca44c f   PanelImageMain.obj
 0001:000b9810       ?ZoomIn@CPanelImageMain@@AAAXXZ 000ca810 f   PanelImageMain.obj
 0001:000b9a90       ?ZoomOut@CPanelImageMain@@AAAXXZ 000caa90 f   PanelImageMain.obj
 0001:000b9bc0       ?OnTimerProc@CPanelImageMain@@SAXPAUHWND__@@IIK@Z 000cabc0 f   PanelImageMain.obj
 0001:000b9c28       ?ImageAutoPlayTimerProc@CPanelImageMain@@KAXPAUHWND__@@IIK@Z 000cac28 f   PanelImageMain.obj
 0001:000b9c40       ?ImagePlayAbort@CPanelImageMain@@QAAXXZ 000cac40 f   PanelImageMain.obj
 0001:000b9cec       ??1CPanelImageMain@@UAA@XZ 000cacec f   PanelImageMain.obj
 0001:000ba1d0       ?OnGestureMsg@CPanelImageMain@@UAAXI@Z 000cb1d0 f   PanelImageMain.obj
 0001:000ba274       ?Initialize@CPanelImageMain@@UAAHIPAVCPanelGL@@PAVCSkinManagerGL@@PAVCTextGL@@PAUHWND__@@U_TMODULEENTRY@@@Z 000cb274 f   PanelImageMain.obj
 0001:000bae8c       ?HandleControlMSG@CPanelImageMain@@MAAXKKKPAX@Z 000cbe8c f   PanelImageMain.obj
 0001:000bb61c       ?OnTouchMsg@CPanelImageMain@@QAAXPAU_MULTI_POINT_COORDINATE_@@@Z 000cc61c f   PanelImageMain.obj
 0001:000bc42c       ??_ECPanelImageMain@@UAAPAXI@Z 000cd42c f i PanelImageMain.obj
 0001:000bc42c       ??_GCPanelImageMain@@UAAPAXI@Z 000cd42c f i PanelImageMain.obj
 0001:000bc450       ??0CPanelImageWrapper@@QAA@XZ 000cd450 f   PanelImageWrapper.obj
 0001:000bc480       ?Initialize@CPanelImageWrapper@@UAAHIPAVCPanelGL@@PAVCSkinManagerGL@@PAVCTextGL@@PAUHWND__@@U_TMODULEENTRY@@@Z 000cd480 f   PanelImageWrapper.obj
 0001:000bc4d0       ?OnAvailableSourceChanged@CPanelImageWrapper@@QAAXIJ@Z 000cd4d0 f   PanelImageWrapper.obj
 0001:000bc4e8       ?LinkPages@CPanelImageWrapper@@QAAXPAVCPanelImageMain@@PAVCPanelImageLibrary@@@Z 000cd4e8 f   PanelImageWrapper.obj
 0001:000bc4f4       ?PlayIndex@CPanelImageWrapper@@AAAHH@Z 000cd4f4 f   PanelImageWrapper.obj
 0001:000bc534       ?PlayNext@CPanelImageWrapper@@AAAHXZ 000cd534 f   PanelImageWrapper.obj
 0001:000bc570       ?PlayPrevious@CPanelImageWrapper@@AAAHXZ 000cd570 f   PanelImageWrapper.obj
 0001:000bc5ac       ?OnDeviceArrivedReady@CPanelImageWrapper@@UAAXPB_W@Z 000cd5ac f   PanelImageWrapper.obj
 0001:000bc5c4       ?OnDeviceRemovedReady@CPanelImageWrapper@@UAAXPB_W@Z 000cd5c4 f   PanelImageWrapper.obj
 0001:000bc6f0       ??_ECPanelImageWrapper@@UAAPAXI@Z 000cd6f0 f i PanelImageWrapper.obj
 0001:000bc6f0       ??_GCPanelImageWrapper@@UAAPAXI@Z 000cd6f0 f i PanelImageWrapper.obj
 0001:000bc720       ?OnImagePlayerCommand@CPanelImageWrapper@@QAAHIJ@Z 000cd720 f   PanelImageWrapper.obj
 0001:000bc80c       ??0CPanelAUX@@QAA@XZ       000cd80c f   PanelAUX.obj
 0001:000bcab4       ??1CPanelAUX@@UAA@XZ       000cdab4 f   PanelAUX.obj
 0001:000bcd40       ?OnEnterPanel@CPanelAUX@@UAAXIIPAX@Z 000cdd40 f   PanelAUX.obj
 0001:000bcdec       ?Render@CPanelAUX@@UAAXXZ  000cddec f   PanelAUX.obj
 0001:000bd7e4       ?OnNotify@CPanelAUX@@SAXKKKPAX0@Z 000ce7e4 f   PanelAUX.obj
 0001:000bd844       ?HandleControlMSG@CPanelAUX@@MAAXKKKPAX@Z 000ce844 f   PanelAUX.obj
 0001:000bd940       ?OnKey@CPanelAUX@@UAAHII@Z 000ce940 f   PanelAUX.obj
 0001:000bd988       ?OnSpeechStart@CPanelAUX@@UAAXXZ 000ce988 f   PanelAUX.obj
 0001:000bd998       ?OnSpeechTerminate@CPanelAUX@@UAAXXZ 000ce998 f   PanelAUX.obj
 0001:000bd9a8       ?OnPhoneCallState@CPanelAUX@@UAAXIJ@Z 000ce9a8 f   PanelAUX.obj
 0001:000bd9f8       ??_ECPanelAUX@@UAAPAXI@Z   000ce9f8 f i PanelAUX.obj
 0001:000bd9f8       ??_GCPanelAUX@@UAAPAXI@Z   000ce9f8 f i PanelAUX.obj
 0001:000bda1c       ?Initialize@CPanelAUX@@UAAHIPAVCPanelGL@@PAVCSkinManagerGL@@PAVCTextGL@@PAUHWND__@@U_TMODULEENTRY@@@Z 000cea1c f   PanelAUX.obj
 0001:000be36c       ??0CPanelUpdate@@QAA@XZ    000cf36c f   PanelUpdate.obj
 0001:000be430       ?Render@CPanelUpdate@@UAAXXZ 000cf430 f   PanelUpdate.obj
 0001:000be6e0       ?Initialize@CPanelUpdate@@UAAHIPAVCPanelGL@@PAVCSkinManagerGL@@PAVCTextGL@@PAUHWND__@@U_TMODULEENTRY@@@Z 000cf6e0 f   PanelUpdate.obj
 0001:000be864       ?HandleControlMSG@CPanelUpdate@@MAAXKKKPAX@Z 000cf864 f   PanelUpdate.obj
 0001:000be87c       ?OnBack@CPanelUpdate@@UAAXXZ 000cf87c f   PanelUpdate.obj
 0001:000be87c       ?OnBack@CPanelUpdateARM@@UAAXXZ 000cf87c f   PanelUpdateARM.obj
 0001:000be87c       ?OnBack@CPanelKeyboard@@UAAXXZ 000cf87c f   PanelKeyboard.obj
 0001:000be87c       ?OnBack@CPanelIdle@@UAAXXZ 000cf87c f   PanelIdle.obj
 0001:000be8b4       ?OnMCUCmd@CPanelUpdate@@UAAXIJ@Z 000cf8b4 f   PanelUpdate.obj
 0001:000be92c       ?OnMcuUpdateACK@CPanelUpdate@@QAAXH@Z 000cf92c f   PanelUpdate.obj
 0001:000be94c       ?RequestUpdate@CPanelUpdate@@AAAHXZ 000cf94c f   PanelUpdate.obj
 0001:000be98c       ?CancelUpdate@CPanelUpdate@@AAAHXZ 000cf98c f   PanelUpdate.obj
 0001:000be9c8       ?PushPack@CPanelUpdate@@AAAHPAEHH@Z 000cf9c8 f   PanelUpdate.obj
 0001:000bea88       ?UpdateMcuProc@CPanelUpdate@@AAAXXZ 000cfa88 f   PanelUpdate.obj
 0001:000bed50       ??1CPanelUpdate@@UAA@XZ    000cfd50 f   PanelUpdate.obj
 0001:000bee58       ?UpdateMcuThreadPro@CPanelUpdate@@CAKPAX@Z 000cfe58 f   PanelUpdate.obj
 0001:000bee94       ??_GCPanelUpdate@@UAAPAXI@Z 000cfe94 f i PanelUpdate.obj
 0001:000bee94       ??_ECPanelUpdate@@UAAPAXI@Z 000cfe94 f i PanelUpdate.obj
 0001:000beeb8       ?StartMcuUpdate@CPanelUpdate@@AAAXXZ 000cfeb8 f   PanelUpdate.obj
 0001:000bef18       ?OnEnterPanel@CPanelUpdate@@UAAXIIPAX@Z 000cff18 f   PanelUpdate.obj
 0001:000beff0       ?UPDProxyOpen@@YAPAXXZ     000cfff0 f i PanelUpdateARM.obj
 0001:000bf030       ?CRC32@@YAKKPBXI@Z         000d0030 f   PanelUpdateARM.obj
 0001:000bf078       ??0CPanelUpdateARM@@QAA@XZ 000d0078 f   PanelUpdateARM.obj
 0001:000bf368       ??1CPanelUpdateARM@@UAA@XZ 000d0368 f   PanelUpdateARM.obj
 0001:000bf63c       ?OnNotify@CPanelUpdateARM@@SAXKKKPAX0@Z 000d063c f   PanelUpdateARM.obj
 0001:000bf6a4       ?CheckPackageHeader@CPanelUpdateARM@@AAAHPB_W@Z 000d06a4 f   PanelUpdateARM.obj
 0001:000bf760       ?CheckResHeader@CPanelUpdateARM@@AAAHPB_W@Z 000d0760 f   PanelUpdateARM.obj
 0001:000bf814       ?IsUpdateFile@CPanelUpdateARM@@AAAHPB_W@Z 000d0814 f   PanelUpdateARM.obj
 0001:000bf8a4       ?DownloadFile@CPanelUpdateARM@@AAAHPB_WI@Z 000d08a4 f   PanelUpdateARM.obj
 0001:000bfa34       ?UpdateCfg@CPanelUpdateARM@@AAAHPAEK@Z 000d0a34 f   PanelUpdateARM.obj
 0001:000bfcf4       ?DownloadCfg@CPanelUpdateARM@@AAAHXZ 000d0cf4 f   PanelUpdateARM.obj
 0001:000c0288       ?IsFileExists@CPanelUpdateARM@@AAAHPB_W@Z 000d1288 f   PanelUpdateARM.obj
 0001:000c0288       ?IsFileExists@CGUI_Fantasy@@AAAHPB_W@Z 000d1288 f   GUI_Fantasy.obj
 0001:000c0288       ?IsFileExists@CPanelDevConnectMgr@@AAAHPB_W@Z 000d1288 f   PanelDevConnectMgr.obj
 0001:000c0288       ?IsFileExists@CPanelSettingFactory@@AAAHPB_W@Z 000d1288 f   PanelSettingFactory.obj
 0001:000c0288       ?IsFileExists@CPanelSettingAbout@@AAAHPB_W@Z 000d1288 f   PanelSettingAbout.obj
 0001:000c0288       ?IsMediaFileExists@CPanelMediaWrapper@@AAAHPB_W@Z 000d1288 f   PanelMediaWrapper.obj
 0001:000c0288       ?IsFileExists@CPanelMediaLibrary@@AAAHPB_W@Z 000d1288 f   PanelMediaLibrary.obj
 0001:000c02d0       ?SetUpdateStatus@CPanelUpdateARM@@AAAXE@Z 000d12d0 f   PanelUpdateARM.obj
 0001:000c03d0       ?InstallRes@CPanelUpdateARM@@AAAHPB_W@Z 000d13d0 f   PanelUpdateARM.obj
 0001:000c055c       ??_ECPanelUpdateARM@@UAAPAXI@Z 000d155c f i PanelUpdateARM.obj
 0001:000c055c       ??_GCPanelUpdateARM@@UAAPAXI@Z 000d155c f i PanelUpdateARM.obj
 0001:000c0580       ?IsReady@CPanelUpdateARM@@UAAHXZ 000d1580 f   PanelUpdateARM.obj
 0001:000c05b8       ?Render@CPanelUpdateARM@@UAAXXZ 000d15b8 f   PanelUpdateARM.obj
 0001:000c0c80       ?Initialize@CPanelUpdateARM@@UAAHIPAVCPanelGL@@PAVCSkinManagerGL@@PAVCTextGL@@PAUHWND__@@U_TMODULEENTRY@@@Z 000d1c80 f   PanelUpdateARM.obj
 0001:000c13cc       ?ProgressThreadPro@CPanelUpdateARM@@CAKPAX@Z 000d23cc f   PanelUpdateARM.obj
 0001:000c1478       ?UpdateResProc@CPanelUpdateARM@@AAAXXZ 000d2478 f   PanelUpdateARM.obj
 0001:000c152c       ?UpdateLogoProc@CPanelUpdateARM@@AAAXXZ 000d252c f   PanelUpdateARM.obj
 0001:000c1a30       ?InstallPackage@CPanelUpdateARM@@AAAHPB_W@Z 000d2a30 f   PanelUpdateARM.obj
 0001:000c231c       ?OnDeviceChanged@CPanelUpdateARM@@QAAXXZ 000d331c f   PanelUpdateARM.obj
 0001:000c2450       ?OnEnterPanel@CPanelUpdateARM@@UAAXIIPAX@Z 000d3450 f   PanelUpdateARM.obj
 0001:000c24d8       ?UpdateProc@CPanelUpdateARM@@AAAXXZ 000d34d8 f   PanelUpdateARM.obj
 0001:000c2608       ?UpdateThreadPro@CPanelUpdateARM@@CAKPAX@Z 000d3608 f   PanelUpdateARM.obj
 0001:000c2754       ?StartUpdate@CPanelUpdateARM@@AAAXE@Z 000d3754 f   PanelUpdateARM.obj
 0001:000c28ec       ?HandleControlMSG@CPanelUpdateARM@@MAAXKKKPAX@Z 000d38ec f   PanelUpdateARM.obj
 0001:000c2bb0       ??0CPanelEasyConnected@@QAA@XZ 000d3bb0 f   PanelEasyConnected.obj
 0001:000c2ce8       ?IsReady@CPanelEasyConnected@@UAAHXZ 000d3ce8 f   PanelEasyConnected.obj
 0001:000c2d20       ?OnEnterPanel@CPanelEasyConnected@@UAAXIIPAX@Z 000d3d20 f   PanelEasyConnected.obj
 0001:000c2e64       ?OnGestureMsg@CPanelEasyConnected@@UAAXI@Z 000d3e64 f   PanelEasyConnected.obj
 0001:000c2eb0       ?OnDeviceRemovedReady@CPanelEasyConnected@@UAAXPB_W@Z 000d3eb0 f   PanelEasyConnected.obj
 0001:000c2f34       ?EasyConnectedRunApp@CPanelEasyConnected@@AAAHH@Z 000d3f34 f   PanelEasyConnected.obj
 0001:000c3210       ?EasyConnectedDeinitSrv@CPanelEasyConnected@@AAAXXZ 000d4210 f   PanelEasyConnected.obj
 0001:000c3248       ?EasyConnectedShowWindow@CPanelEasyConnected@@AAAXH@Z 000d4248 f   PanelEasyConnected.obj
 0001:000c332c       ?EasyConnectedDeviceStatusCheck@CPanelEasyConnected@@AAAIXZ 000d432c f   PanelEasyConnected.obj
 0001:000c3410       ?OnBack@CPanelEasyConnected@@UAAXXZ 000d4410 f   PanelEasyConnected.obj
 0001:000c344c       ?PostMsgToClient@CPanelEasyConnected@@IAAHIIJ@Z 000d444c f   PanelEasyConnected.obj
 0001:000c34a8       ?OnKey@CPanelEasyConnected@@UAAHII@Z 000d44a8 f   PanelEasyConnected.obj
 0001:000c35d8       ?OnSpeechStart@CPanelEasyConnected@@UAAXXZ 000d45d8 f   PanelEasyConnected.obj
 0001:000c35e4       ?OnSpeechTerminate@CPanelEasyConnected@@UAAXXZ 000d45e4 f   PanelEasyConnected.obj
 0001:000c35f0       ?OnPlaySoundEffect@CPanelEasyConnected@@UAAXH@Z 000d45f0 f   PanelEasyConnected.obj
 0001:000c3628       ?OnSystemPowerStatePrepare@CPanelEasyConnected@@UAAXI@Z 000d4628 f   PanelEasyConnected.obj
 0001:000c3668       ?OnDeviceChange@CPanelEasyConnected@@QAAXPA_WH@Z 000d4668 f   PanelEasyConnected.obj
 0001:000c3744       ?AutoResume@CPanelEasyConnected@@AAAHXZ 000d4744 f   PanelEasyConnected.obj
 0001:000c382c       ??1CPanelEasyConnected@@UAA@XZ 000d482c f   PanelEasyConnected.obj
 0001:000c3914       ?OnQuitPanel@CPanelEasyConnected@@UAAXIIPAX@Z 000d4914 f   PanelEasyConnected.obj
 0001:000c399c       ?OnDeviceArrivedReady@CPanelEasyConnected@@UAAXPB_W@Z 000d499c f   PanelEasyConnected.obj
 0001:000c3a24       ?EasyConnectedSetLanguage@CPanelEasyConnected@@AAAXXZ 000d4a24 f   PanelEasyConnected.obj
 0001:000c3b10       ?OnEasyConnectedMsg@CPanelEasyConnected@@QAAXIIJ@Z 000d4b10 f   PanelEasyConnected.obj
 0001:000c3e34       ?EasyConnectedWndProc@CPanelEasyConnected@@SAJPAUHWND__@@IIJ@Z 000d4e34 f   PanelEasyConnected.obj
 0001:000c3f2c       ??_GCPanelEasyConnected@@UAAPAXI@Z 000d4f2c f i PanelEasyConnected.obj
 0001:000c3f2c       ??_ECPanelEasyConnected@@UAAPAXI@Z 000d4f2c f i PanelEasyConnected.obj
 0001:000c3f58       ?EasyConnectedInitSrv@CPanelEasyConnected@@AAAHXZ 000d4f58 f   PanelEasyConnected.obj
 0001:000c40d0       ?Render@CPanelEasyConnected@@UAAXXZ 000d50d0 f   PanelEasyConnected.obj
 0001:000c4310       ?Initialize@CPanelEasyConnected@@UAAHIPAVCPanelGL@@PAVCSkinManagerGL@@PAVCTextGL@@PAUHWND__@@U_TMODULEENTRY@@@Z 000d5310 f   PanelEasyConnected.obj
 0001:000c45b8       ??1CPanelWebLink@@UAA@XZ   000d55b8 f   PanelWebLink.obj
 0001:000c46a4       ?OnGestureMsg@CPanelWebLink@@UAAXI@Z 000d56a4 f   PanelWebLink.obj
 0001:000c46f0       ?OnDeviceArrivedReady@CPanelWebLink@@UAAXPB_W@Z 000d56f0 f   PanelWebLink.obj
 0001:000c46fc       ?OnDeviceRemovedReady@CPanelWebLink@@UAAXPB_W@Z 000d56fc f   PanelWebLink.obj
 0001:000c47cc       ?WeblinkRunApp@CPanelWebLink@@AAAHH@Z 000d57cc f   PanelWebLink.obj
 0001:000c48f4       ?WeblinkShowWindow@CPanelWebLink@@AAAXH@Z 000d58f4 f   PanelWebLink.obj
 0001:000c4984       ?HandleControlMSG@CPanelWebLink@@MAAXKKKPAX@Z 000d5984 f   PanelWebLink.obj
 0001:000c4984       ?HandleControlMSG@CPanelEasyConnected@@MAAXKKKPAX@Z 000d5984 f   PanelEasyConnected.obj
 0001:000c49cc       ?OnBack@CPanelWebLink@@UAAXXZ 000d59cc f   PanelWebLink.obj
 0001:000c4a08       ?OnKey@CPanelWebLink@@UAAHII@Z 000d5a08 f   PanelWebLink.obj
 0001:000c4b90       ?OnSpeechStart@CPanelWebLink@@UAAXXZ 000d5b90 f   PanelWebLink.obj
 0001:000c4b9c       ?OnSpeechTerminate@CPanelWebLink@@UAAXXZ 000d5b9c f   PanelWebLink.obj
 0001:000c4ba8       ?OnInit@CPanelWebLink@@UAAX_N@Z 000d5ba8 f   PanelWebLink.obj
 0001:000c4bc8       ?OnConnect@CPanelWebLink@@UAAX_N@Z 000d5bc8 f   PanelWebLink.obj
 0001:000c4c94       ?OnWindowStatus@CPanelWebLink@@UAAX_N@Z 000d5c94 f   PanelWebLink.obj
 0001:000c4d68       ?OnPlaySoundEffect@CPanelWebLink@@UAAXH@Z 000d5d68 f   PanelWebLink.obj
 0001:000c4da0       ?OnSystemPowerStatePrepare@CPanelWebLink@@UAAXI@Z 000d5da0 f   PanelWebLink.obj
 0001:000c4dd4       ?AutoResume@CPanelWebLink@@AAAHXZ 000d5dd4 f   PanelWebLink.obj
 0001:000c4eb8       ??0CPanelWebLink@@QAA@XZ   000d5eb8 f   PanelWebLink.obj
 0001:000c4fe8       ??_GCPanelWebLink@@UAAPAXI@Z 000d5fe8 f i PanelWebLink.obj
 0001:000c4fe8       ??_ECPanelWebLink@@UAAPAXI@Z 000d5fe8 f i PanelWebLink.obj
 0001:000c500c       ?OnQuitPanel@CPanelWebLink@@UAAXIIPAX@Z 000d600c f   PanelWebLink.obj
 0001:000c50ac       ?Render@CPanelWebLink@@UAAXXZ 000d60ac f   PanelWebLink.obj
 0001:000c51d4       ?Initialize@CPanelWebLink@@UAAHIPAVCPanelGL@@PAVCSkinManagerGL@@PAVCTextGL@@PAUHWND__@@U_TMODULEENTRY@@@Z 000d61d4 f   PanelWebLink.obj
 0001:000c5468       ?AutoResumeTimer@CPanelWebLink@@AAAXXZ 000d6468 f   PanelWebLink.obj
 0001:000c54cc       ?AutoResumeTimerProc@CPanelWebLink@@CAXIIKKK@Z 000d64cc f   PanelWebLink.obj
 0001:000c54e0       ?OnEnterPanel@CPanelWebLink@@UAAXIIPAX@Z 000d64e0 f   PanelWebLink.obj
 0001:000c5648       ??0CPaneliPodLibrary@@QAA@XZ 000d6648 f   PaneliPodLibrary.obj
 0001:000c5d18       ??1CPaneliPodLibrary@@UAA@XZ 000d6d18 f   PaneliPodLibrary.obj
 0001:000c62b0       ?OnEnterPanel@CPaneliPodLibrary@@UAAXIIPAX@Z 000d72b0 f   PaneliPodLibrary.obj
 0001:000c6334       ?OnGestureMsg@CPaneliPodLibrary@@UAAXI@Z 000d7334 f   PaneliPodLibrary.obj
 0001:000c6334       ?OnGestureMsg@CPanelRadioLibrary@@UAAXI@Z 000d7334 f   PanelRadioLibrary.obj
 0001:000c6370       ?Render@CPaneliPodLibrary@@UAAXXZ 000d7370 f   PaneliPodLibrary.obj
 0001:000c6574       ?HandleControlMSG@CPaneliPodLibrary@@MAAXKKKPAX@Z 000d7574 f   PaneliPodLibrary.obj
 0001:000c67d0       ?onOpenFinish@CPaneliPodLibrary@@QAAXKH@Z 000d77d0 f   PaneliPodLibrary.obj
 0001:000c67e0       ?SetBrowserLevel@CPaneliPodLibrary@@QAAXH@Z 000d77e0 f   PaneliPodLibrary.obj
 0001:000c6868       ?OnAvailableSourceChanged@CPaneliPodLibrary@@QAAXIJ@Z 000d7868 f   PaneliPodLibrary.obj
 0001:000c6c7c       ?onRecordReady@CPaneliPodLibrary@@QAAXIW4TopLevelRecordID@iAP@@@Z 000d7c7c f   PaneliPodLibrary.obj
 0001:000c70f8       ??_GCPaneliPodLibrary@@UAAPAXI@Z 000d80f8 f i PaneliPodLibrary.obj
 0001:000c70f8       ??_ECPaneliPodLibrary@@UAAPAXI@Z 000d80f8 f i PaneliPodLibrary.obj
 0001:000c711c       ?Initialize@CPaneliPodLibrary@@UAAHIPAVCPanelGL@@PAVCSkinManagerGL@@PAVCTextGL@@PAUHWND__@@U_TMODULEENTRY@@@Z 000d811c f   PaneliPodLibrary.obj
 0001:000c819c       ?onRecordReady@CPaneliPodLibrary@@QAAXIV?$basic_string@DU?$char_traits@D@std@@V?$allocator@D@2@@std@@@Z 000d919c f   PaneliPodLibrary.obj
 0001:000c8448       ??0CPaneliPodMain@@QAA@XZ  000d9448 f   PaneliPodMain.obj
 0001:000c8950       ??1CPaneliPodMain@@UAA@XZ  000d9950 f   PaneliPodMain.obj
 0001:000c8e08       ?IsReady@CPaneliPodMain@@UAAHXZ 000d9e08 f   PaneliPodMain.obj
 0001:000c8e68       ?OnGesture@CPaneliPodMain@@UAAXPAUtagGESTUREINFO@@@Z 000d9e68 f   PaneliPodMain.obj
 0001:000c8ee8       ?OnQuitPanel@CPaneliPodMain@@UAAXIIPAX@Z 000d9ee8 f   PaneliPodMain.obj
 0001:000c8f34       ?OnEnterPanel@CPaneliPodMain@@UAAXIIPAX@Z 000d9f34 f   PaneliPodMain.obj
 0001:000c9104       ?SetRemainTime@CPaneliPodMain@@QAAXH@Z 000da104 f   PaneliPodMain.obj
 0001:000c9194       ?SetTitle@CPaneliPodMain@@QAAXPB_W@Z 000da194 f   PaneliPodMain.obj
 0001:000c921c       ?SetArtist@CPaneliPodMain@@QAAXPB_W@Z 000da21c f   PaneliPodMain.obj
 0001:000c9268       ?SetAlbum@CPaneliPodMain@@QAAXPB_W@Z 000da268 f   PaneliPodMain.obj
 0001:000c92b4       ?SetNowPlayingTitle@CPaneliPodMain@@QAAXPB_W@Z 000da2b4 f   PaneliPodMain.obj
 0001:000c9314       ?SetElapsedTime@CPaneliPodMain@@QAAXH@Z 000da314 f   PaneliPodMain.obj
 0001:000c93a0       ?HandleControlMSG@CPaneliPodMain@@MAAXKKKPAX@Z 000da3a0 f   PaneliPodMain.obj
 0001:000c94ac       ?PlayInfoFlyOut@CPaneliPodMain@@QAAXI@Z 000da4ac f   PaneliPodMain.obj
 0001:000c96cc       ?PlayInfoFlyIn@CPaneliPodMain@@QAAXXZ 000da6cc f   PaneliPodMain.obj
 0001:000c9ac0       ?UpdateWidget@CPaneliPodMain@@QAAXXZ 000daac0 f   PaneliPodMain.obj
 0001:000c9c08       ?SetPlayMode@CPaneliPodMain@@QAAXI@Z 000dac08 f   PaneliPodMain.obj
 0001:000c9c88       ?SetPlayState@CPaneliPodMain@@QAAXH@Z 000dac88 f   PaneliPodMain.obj
 0001:000c9de4       ??_GCPaneliPodMain@@UAAPAXI@Z 000dade4 f i PaneliPodMain.obj
 0001:000c9de4       ??_ECPaneliPodMain@@UAAPAXI@Z 000dade4 f i PaneliPodMain.obj
 0001:000c9e10       ?Render@CPaneliPodMain@@UAAXXZ 000dae10 f   PaneliPodMain.obj
 0001:000ca718       ?Initialize@CPaneliPodMain@@UAAHIPAVCPanelGL@@PAVCSkinManagerGL@@PAVCTextGL@@PAUHWND__@@U_TMODULEENTRY@@@Z 000db718 f   PaneliPodMain.obj
 0001:000cbe3c       ??0CPaneliPodWrapper@@QAA@XZ 000dce3c f   PaneliPodWrapper.obj
 0001:000cbf14       ?Render@CPanelRadioWrapper@@UAAXXZ 000dcf14 f   PanelRadioWrapper.obj
 0001:000cbf14       ?Render@CPanelBluetoothWrapper@@UAAXXZ 000dcf14 f   PanelBluetoothWrapper.obj
 0001:000cbf14       ?Render@CPanelMediaWrapper@@UAAXXZ 000dcf14 f   PanelMediaWrapper.obj
 0001:000cbf14       ?Render@CPaneliPodWrapper@@UAAXXZ 000dcf14 f   PaneliPodWrapper.obj
 0001:000cbf14       ?Render@CPanelMediaDevice@@UAAXXZ 000dcf14 f   PanelMediaDevice.obj
 0001:000cbf14       ?Render@CPanelImageWrapper@@UAAXXZ 000dcf14 f   PanelImageWrapper.obj
 0001:000cbf38       ?OnDeviceArrivedReady@CPaneliPodWrapper@@UAAXPB_W@Z 000dcf38 f   PaneliPodWrapper.obj
 0001:000cbfb0       ?LinkPages@CPaneliPodWrapper@@QAAXPAVCPaneliPodMain@@PAVCPaneliPodLibrary@@@Z 000dcfb0 f   PaneliPodWrapper.obj
 0001:000cbfc4       ?IniAPPlayer@CPaneliPodWrapper@@AAAXXZ 000dcfc4 f   PaneliPodWrapper.obj
 0001:000cc188       ?plugInDetection@CPaneliPodWrapper@@AAAXXZ 000dd188 f   PaneliPodWrapper.obj
 0001:000cc1cc       ?IsPlaying@CPaneliPodWrapper@@QAAHXZ 000dd1cc f   PaneliPodWrapper.obj
 0001:000cc1f0       ?Play@CPaneliPodWrapper@@QAAXXZ 000dd1f0 f   PaneliPodWrapper.obj
 0001:000cc280       ?Pause@CPaneliPodWrapper@@QAAXXZ 000dd280 f   PaneliPodWrapper.obj
 0001:000cc2b8       ?Stop@CPaneliPodWrapper@@QAAXXZ 000dd2b8 f   PaneliPodWrapper.obj
 0001:000cc374       ?PlayFF@CPaneliPodWrapper@@QAAXXZ 000dd374 f   PaneliPodWrapper.obj
 0001:000cc3a8       ?PlayRW@CPaneliPodWrapper@@QAAXXZ 000dd3a8 f   PaneliPodWrapper.obj
 0001:000cc3dc       ?EndFFRPlay@CPaneliPodWrapper@@QAAXXZ 000dd3dc f   PaneliPodWrapper.obj
 0001:000cc410       ?OnSpeechStart@CPaneliPodWrapper@@UAAXXZ 000dd410 f   PaneliPodWrapper.obj
 0001:000cc41c       ?OnSpeechTerminate@CPaneliPodWrapper@@UAAXXZ 000dd41c f   PaneliPodWrapper.obj
 0001:000cc428       ?OnSRStart@CPaneliPodWrapper@@UAAXXZ 000dd428 f   PaneliPodWrapper.obj
 0001:000cc44c       ?OnSRTerminate@CPaneliPodWrapper@@UAAXXZ 000dd44c f   PaneliPodWrapper.obj
 0001:000cc480       ?OnSRCChanged@CPaneliPodWrapper@@UAAXI@Z 000dd480 f   PaneliPodWrapper.obj
 0001:000cc4a0       ?OnPhoneCallState@CPaneliPodWrapper@@UAAXIJ@Z 000dd4a0 f   PaneliPodWrapper.obj
 0001:000cc4f4       ?OnBrowserUp@CPaneliPodWrapper@@QAAXXZ 000dd4f4 f   PaneliPodWrapper.obj
 0001:000cc54c       ?OnAvailableSourceChanged@CPaneliPodWrapper@@QAAXIJ@Z 000dd54c f   PaneliPodWrapper.obj
 0001:000cc578       ?OnSelectItem@CPaneliPodWrapper@@QAAXH@Z 000dd578 f   PaneliPodWrapper.obj
 0001:000cc618       ?OnKey@CPaneliPodWrapper@@UAAHII@Z 000dd618 f   PaneliPodWrapper.obj
 0001:000cc78c       ?OnSystemPowerStatePrepare@CPaneliPodWrapper@@UAAXI@Z 000dd78c f   PaneliPodWrapper.obj
 0001:000cc7a8       ??_GCPaneliPodWrapper@@UAAPAXI@Z 000dd7a8 f i PaneliPodWrapper.obj
 0001:000cc7a8       ??_ECPaneliPodWrapper@@UAAPAXI@Z 000dd7a8 f i PaneliPodWrapper.obj
 0001:000cc7d8       ?Initialize@CPaneliPodWrapper@@UAAHIPAVCPanelGL@@PAVCSkinManagerGL@@PAVCTextGL@@PAUHWND__@@U_TMODULEENTRY@@@Z 000dd7d8 f   PaneliPodWrapper.obj
 0001:000cc83c       ?OniPodCommand@CPaneliPodWrapper@@QAAXIJ@Z 000dd83c f   PaneliPodWrapper.obj
 0001:000ccb60       ?plugOutDetection@CPaneliPodWrapper@@AAAXXZ 000ddb60 f   PaneliPodWrapper.obj
 0001:000ccc24       ?OnDeviceRemovedReady@CPaneliPodWrapper@@UAAXPB_W@Z 000ddc24 f   PaneliPodWrapper.obj
 0001:000ccd68       ?OniPodMsg@CPaneliPodWrapper@@QAAXIJ@Z 000ddd68 f   PaneliPodWrapper.obj
 0001:000cd620       ??0CPanelTouch@@QAA@XZ     000de620 f   PanelTouch.obj
 0001:000cd760       ??1CPanelTouch@@UAA@XZ     000de760 f   PanelTouch.obj
 0001:000cd88c       ?Render@CPanelTouch@@UAAXXZ 000de88c f   PanelTouch.obj
 0001:000cd9cc       ?Initialize@CPanelTouch@@UAAHIPAVCPanelGL@@PAVCSkinManagerGL@@PAVCTextGL@@PAUHWND__@@U_TMODULEENTRY@@@Z 000de9cc f   PanelTouch.obj
 0001:000cda2c       ?OnFactoryCmd@CPanelTouch@@UAAXIJ@Z 000dea2c f   PanelTouch.obj
 0001:000cdacc       ?TouchWndProc@CPanelTouch@@KAJPAUHWND__@@IIJ@Z 000deacc f   PanelTouch.obj
 0001:000cdcc0       ?ShowTouchWindow@CPanelTouch@@IAAXH@Z 000decc0 f   PanelTouch.obj
 0001:000cddd4       ??_ECPanelTouch@@UAAPAXI@Z 000dedd4 f i PanelTouch.obj
 0001:000cddd4       ??_GCPanelTouch@@UAAPAXI@Z 000dedd4 f i PanelTouch.obj
 0001:000cddf8       ?OnQuitPanel@CPanelTouch@@UAAXIIPAX@Z 000dedf8 f   PanelTouch.obj
 0001:000cdeb0       ?CreateTouchWindow@CPanelTouch@@IAAHPA_W@Z 000deeb0 f   PanelTouch.obj
 0001:000cdfc8       ?LaunchTouchPro@CPanelTouch@@QAAHXZ 000defc8 f   PanelTouch.obj
 0001:000ce03c       ?OnEnterPanel@CPanelTouch@@UAAXIIPAX@Z 000df03c f   PanelTouch.obj
 0001:000ce0c8       ?HandleControlMSG@CPanelTouch@@MAAXKKKPAX@Z 000df0c8 f   PanelTouch.obj
 0001:000ce31c       ?OnEnterPanel@CPanelSetMAC@@UAAXIIPAX@Z 000df31c f   PanelSetMAC.obj
 0001:000ce374       ?OnQuitPanel@CPanelIdle@@UAAXIIPAX@Z 000df374 f   PanelIdle.obj
 0001:000ce374       ?OnQuitPanel@CPanelNaviSimulate@@UAAXIIPAX@Z 000df374 f   PanelNaviSimulate.obj
 0001:000ce374       ?OnQuitPanel@CPanelSetMAC@@UAAXIIPAX@Z 000df374 f   PanelSetMAC.obj
 0001:000ce39c       ?Render@CPanelSetMAC@@UAAXXZ 000df39c f   PanelSetMAC.obj
 0001:000ce86c       ?Initialize@CPanelSetMAC@@UAAHIPAVCPanelGL@@PAVCSkinManagerGL@@PAVCTextGL@@PAUHWND__@@U_TMODULEENTRY@@@Z 000df86c f   PanelSetMAC.obj
 0001:000cfa54       ?SetMAC@CPanelSetMAC@@AAAXXZ 000e0a54 f   PanelSetMAC.obj
 0001:000cfaf4       ??0CPanelSetMAC@@QAA@XZ    000e0af4 f   PanelSetMAC.obj
 0001:000cfe58       ??1CPanelSetMAC@@UAA@XZ    000e0e58 f   PanelSetMAC.obj
 0001:000d01b8       ?Delete@?$CStringT@_WV?$StrTraitATL@_WV?$ChTraitsOS@_W@ATL@@@ATL@@@ATL@@QAAHHH@Z 000e11b8 f i PanelSetMAC.obj
 0001:000d0274       ?AppendChar@?$CSimpleStringT@_W$0A@@ATL@@QAAX_W@Z 000e1274 f i PanelSetMAC.obj
 0001:000d02c8       ??_GCPanelSetMAC@@UAAPAXI@Z 000e12c8 f i PanelSetMAC.obj
 0001:000d02c8       ??_ECPanelSetMAC@@UAAPAXI@Z 000e12c8 f i PanelSetMAC.obj
 0001:000d02ec       ?AppendMACChar@CPanelSetMAC@@AAAX_W@Z 000e12ec f   PanelSetMAC.obj
 0001:000d0330       ?HandleControlMSG@CPanelSetMAC@@MAAXKKKPAX@Z 000e1330 f   PanelSetMAC.obj
 0001:000d0480       ?ForceTerminated@CMiniThread@@QAAHXZ 000e1480 f i PanelAndroidAuto.obj
 0001:000d04d0       ?ThreadProc@CMiniThread@@CAKPAX@Z 000e14d0 f i PanelAndroidAuto.obj
 0001:000d04f8       ?OnSRCChanged@CPanelAndroidAuto@@UAAXI@Z 000e14f8 f   PanelAndroidAuto.obj
 0001:000d05b4       ?OnQuitPanel@CPanelAndroidAuto@@UAAXIIPAX@Z 000e15b4 f   PanelAndroidAuto.obj
 0001:000d061c       ?OnEnterPanel@CPanelAndroidAuto@@UAAXIIPAX@Z 000e161c f   PanelAndroidAuto.obj
 0001:000d0694       ?Render@CPanelAndroidAuto@@UAAXXZ 000e1694 f   PanelAndroidAuto.obj
 0001:000d0a04       ?OnNotifyRdsTAStatus@CPanelAndroidAuto@@QAAXIJ@Z 000e1a04 f   PanelAndroidAuto.obj
 0001:000d0a0c       ?OnNativeNaviMsg@CPanelAndroidAuto@@QAAXIJ@Z 000e1a0c f   PanelAndroidAuto.obj
 0001:000d0ac4       ?IsPlaying@CPanelAndroidAuto@@QAAHXZ 000e1ac4 f   PanelAndroidAuto.obj
 0001:000d0acc       ?HandleControlMSG@CPanelPhoneLink@@MAAXKKKPAX@Z 000e1acc f   PanelPhoneLink.obj
 0001:000d0acc       ?HandleControlMSG@CPanelAndroidAuto@@MAAXKKKPAX@Z 000e1acc f   PanelAndroidAuto.obj
 0001:000d0b14       ?IsEnableQuit@CPanelAndroidAuto@@UAAHXZ 000e1b14 f   PanelAndroidAuto.obj
 0001:000d0b68       ?OnKey@CPanelAndroidAuto@@UAAHII@Z 000e1b68 f   PanelAndroidAuto.obj
 0001:000d0e4c       ?OnSpeechStart@CPanelAndroidAuto@@UAAXXZ 000e1e4c f   PanelAndroidAuto.obj
 0001:000d0e6c       ?OnSpeechTerminate@CPanelAndroidAuto@@UAAXXZ 000e1e6c f   PanelAndroidAuto.obj
 0001:000d0e8c       ?OnSystemPowerStatePrepare@CPanelAndroidAuto@@UAAXI@Z 000e1e8c f   PanelAndroidAuto.obj
 0001:000d0f50       ?EnterAASourceMode@CPanelAndroidAuto@@AAAHXZ 000e1f50 f   PanelAndroidAuto.obj
 0001:000d1010       ?QuitAASourceMode@CPanelAndroidAuto@@AAAHXZ 000e2010 f   PanelAndroidAuto.obj
 0001:000d10ac       ?QuitAASourceModeTimerProc@CPanelAndroidAuto@@CAXIIKKK@Z 000e20ac f   PanelAndroidAuto.obj
 0001:000d10d4       ?EnterAASourceModeTimerProc@CPanelAndroidAuto@@CAXIIKKK@Z 000e20d4 f   PanelAndroidAuto.obj
 0001:000d10fc       ?videoFocusCallback@CPanelAndroidAuto@@EAAXW4VideoFocusMode@AndroidAutoAPI@@H@Z 000e20fc f   PanelAndroidAuto.obj
 0001:000d124c       ?microphoneRequestCallback@CPanelAndroidAuto@@EAAX_N00H@Z 000e224c f   PanelAndroidAuto.obj
 0001:000d1288       ?FirstConnectionTimerProc@CPanelAndroidAuto@@CAXIIKKK@Z 000e2288 f   PanelAndroidAuto.obj
 0001:000d12f4       ?AutoShowAAPTelTimerProc@CPanelAndroidAuto@@CAXIIKKK@Z 000e22f4 f   PanelAndroidAuto.obj
 0001:000d131c       ?KillAAPVideoFocusTimerProc@CPanelAndroidAuto@@CAXIIKKK@Z 000e231c f   PanelAndroidAuto.obj
 0001:000d1390       ?vedioPlaybackStartCallback@CPanelAndroidAuto@@EAAXXZ 000e2390 f   PanelAndroidAuto.obj
 0001:000d1468       ?vedioPlaybackStopCallback@CPanelAndroidAuto@@EAAXXZ 000e2468 f   PanelAndroidAuto.obj
 0001:000d14a0       ?EnterVoiceMode@CPanelAndroidAuto@@AAAHXZ 000e24a0 f   PanelAndroidAuto.obj
 0001:000d153c       ?QuitVoiceMode@CPanelAndroidAuto@@AAAHXZ 000e253c f   PanelAndroidAuto.obj
 0001:000d15c0       ?naviFocusCallback@CPanelAndroidAuto@@EAAXW4NavFocusType@AndroidAutoAPI@@@Z 000e25c0 f   PanelAndroidAuto.obj
 0001:000d1630       ?OnNightModeChanged@CPanelAndroidAuto@@QAAXH@Z 000e2630 f   PanelAndroidAuto.obj
 0001:000d165c       ?OnBrakeStatusChanged@CPanelAndroidAuto@@UAAXH@Z 000e265c f   PanelAndroidAuto.obj
 0001:000d16c0       ??0CMiniThread@@QAA@KH@Z   000e26c0 f i PanelAndroidAuto.obj
 0001:000d1728       ??1CMiniThread@@QAA@XZ     000e2728 f i PanelAndroidAuto.obj
 0001:000d1744       ??0CPanelAndroidAuto@@QAA@XZ 000e2744 f   PanelAndroidAuto.obj
 0001:000d1890       ??1CPanelAndroidAuto@@UAA@XZ 000e2890 f   PanelAndroidAuto.obj
 0001:000d1994       ?ActiveOnce@CPanelAndroidAuto@@AAAHPB_W@Z 000e2994 f   PanelAndroidAuto.obj
 0001:000d1aa8       ?connectCallback@CPanelAndroidAuto@@EAAX_N@Z 000e2aa8 f   PanelAndroidAuto.obj
 0001:000d1d18       ?OnPhoneCallState@CPanelAndroidAuto@@UAAXIJ@Z 000e2d18 f   PanelAndroidAuto.obj
 0001:000d1e44       ?PrepareEnterAASourceMode@CPanelAndroidAuto@@AAAXXZ 000e2e44 f   PanelAndroidAuto.obj
 0001:000d1e88       ?PrepareQuitAASourceMode@CPanelAndroidAuto@@AAAXXZ 000e2e88 f   PanelAndroidAuto.obj
 0001:000d1ecc       ?QuitVoiceModeTimerProc@CPanelAndroidAuto@@CAXIIKKK@Z 000e2ecc f   PanelAndroidAuto.obj
 0001:000d1ef4       ?EnterVoiceModeTimerProc@CPanelAndroidAuto@@CAXIIKKK@Z 000e2ef4 f   PanelAndroidAuto.obj
 0001:000d1f1c       ?PrepareEnterVoiceMode@CPanelAndroidAuto@@AAAXXZ 000e2f1c f   PanelAndroidAuto.obj
 0001:000d1f84       ?PrepareQuitVoiceMode@CPanelAndroidAuto@@AAAXXZ 000e2f84 f   PanelAndroidAuto.obj
 0001:000d1ff4       ?GenerateId@CPanelAndroidAuto@@AAA_NXZ 000e2ff4 f   PanelAndroidAuto.obj
 0001:000d21ac       ??_ECPanelAndroidAuto@@UAAPAXI@Z 000e31ac f i PanelAndroidAuto.obj
 0001:000d21ac       ??_GCPanelAndroidAuto@@UAAPAXI@Z 000e31ac f i PanelAndroidAuto.obj
 0001:000d21d0       ?audioFocusRequestCallback@CPanelAndroidAuto@@EAAXW4AudioFocusRequestType@AndroidAutoAPI@@@Z 000e31d0 f   PanelAndroidAuto.obj
 0001:000d231c       ?onPairingRequest@CPanelAndroidAuto@@EAAXABV?$basic_string@DU?$char_traits@D@std@@V?$allocator@D@2@@std@@W4BluetoothPairingMethod@AndroidAutoAPI@@@Z 000e331c f   PanelAndroidAuto.obj
 0001:000d2408       ?voiceSessionNotificationCallback@CPanelAndroidAuto@@EAAXW4VoiceSessionStatus@AndroidAutoAPI@@@Z 000e3408 f   PanelAndroidAuto.obj
 0001:000d24a0       ?audioPlaybackStartCallback@CPanelAndroidAuto@@EAAXW4AudioStreamType@AndroidAutoAPI@@@Z 000e34a0 f   PanelAndroidAuto.obj
 0001:000d2554       ?audioPlaybackStopCallback@CPanelAndroidAuto@@EAAXW4AudioStreamType@AndroidAutoAPI@@@Z 000e3554 f   PanelAndroidAuto.obj
 0001:000d25c0       ?_Tidy@?$basic_string@_WU?$char_traits@_W@std@@V?$allocator@_W@2@@std@@IAAX_NI@Z 000e35c0 f i PanelAndroidAuto.obj
 0001:000d2624       ??1?$basic_string@_WU?$char_traits@_W@std@@V?$allocator@_W@2@@std@@QAA@XZ 000e3624 f i PanelAndroidAuto.obj
 0001:000d2638       ?Initialize@CPanelAndroidAuto@@QAAHIPAVCPanelGL@@PAVCSkinManagerGL@@PAVCTextGL@@PAUHWND__@@U_TMODULEENTRY@@P6AXPAXH@Z5@Z 000e3638 f   PanelAndroidAuto.obj
 0001:000d28dc       ?onBluetoothPairRequestCallback@CPanelAndroidAuto@@CAXPB_W0PAX@Z 000e38dc f   PanelAndroidAuto.obj
 0001:000d2a98       ?getId@CPanelAndroidAuto@@AAA?AV?$basic_string@DU?$char_traits@D@std@@V?$allocator@D@2@@std@@XZ 000e3a98 f   PanelAndroidAuto.obj
 0001:000d2c34       ?StartClient@CPanelAndroidAuto@@AAAHXZ 000e3c34 f   PanelAndroidAuto.obj
 0001:000d3260       ?ThreadRun@CPanelAndroidAuto@@MAAKXZ 000e4260 f   PanelAndroidAuto.obj
 0001:000d361c       ?LinkBluetoothPanel@CPanelAndroidAuto@@QAAXPAVCPanelBluetoothWrapper@@@Z 000e461c f   PanelAndroidAuto.obj
 0001:000d364c       ??0CPanelISDB@@QAA@XZ      000e464c f   PanelISDB.obj
 0001:000d378c       ??1CPanelISDB@@UAA@XZ      000e478c f   PanelISDB.obj
 0001:000d38c4       ?OnEnterPanel@CPanelISDB@@UAAXIIPAX@Z 000e48c4 f   PanelISDB.obj
 0001:000d3938       ?Render@CPanelISDB@@UAAXXZ 000e4938 f   PanelISDB.obj
 0001:000d3dc0       ?OnNotify@CPanelISDB@@SAXKKKPAX0@Z 000e4dc0 f   PanelISDB.obj
 0001:000d3e20       ?HandleControlMSG@CPanelISDB@@MAAXKKKPAX@Z 000e4e20 f   PanelISDB.obj
 0001:000d3f40       ??_GCPanelISDB@@UAAPAXI@Z  000e4f40 f i PanelISDB.obj
 0001:000d3f40       ??_ECPanelISDB@@UAAPAXI@Z  000e4f40 f i PanelISDB.obj
 0001:000d3f6c       ?Initialize@CPanelISDB@@UAAHIPAVCPanelGL@@PAVCSkinManagerGL@@PAVCTextGL@@PAUHWND__@@U_TMODULEENTRY@@@Z 000e4f6c f   PanelISDB.obj
 0001:000d49f8       ?BKL_SetBackLight@@YAXHHH@Z 000e59f8 f   Backlight.obj
 0001:000d4af4       I2COpen                    000e5af4 f i AudioCodecI2C.obj
 0001:000d4b5c       I2CTransact                000e5b5c f i AudioCodecI2C.obj
 0001:000d4bac       AudioCodec_I2C_Open        000e5bac f   AudioCodecI2C.obj
 0001:000d4c1c       AudioCodec_I2C_Write       000e5c1c f   AudioCodecI2C.obj
 0001:000d4d28       ?SetPriority@CmdSender@@QAAHH@Z 000e5d28 f   CmdSender.obj
 0001:000d4d4c       ?IsCmdListEmpty@CmdSender@@QAAHXZ 000e5d4c f   CmdSender.obj
 0001:000d4d60       ?WaitSendFinish@CmdSender@@QAAHXZ 000e5d60 f   CmdSender.obj
 0001:000d4da8       ?SkipCmd@CmdSender@@QAAXK@Z 000e5da8 f   CmdSender.obj
 0001:000d4e00       ?QueueCmdBuff@CmdSender@@QAAHKPAEHH@Z 000e5e00 f   CmdSender.obj
 0001:000d4ee0       ?SendCmdPro@CmdSender@@IAAXXZ 000e5ee0 f   CmdSender.obj
 0001:000d4fdc       ??1CmdSender@@QAA@XZ       000e5fdc f   CmdSender.obj
 0001:000d506c       ?SendCommandThreadPro@CmdSender@@KAKPAX@Z 000e606c f   CmdSender.obj
 0001:000d5080       ??0CmdSender@@QAA@XZ       000e6080 f   CmdSender.obj
 0001:000d5158       ??0CmdSender_CanBus@@QAA@XZ 000e6158 f   CmdSender_CanBus.obj
 0001:000d5194       ??1CmdSender_CanBus@@QAA@XZ 000e6194 f   CmdSender_CanBus.obj
 0001:000d51c0       ?WaitACK@CmdSender_CanBus@@AAAHPAEI@Z 000e61c0 f   CmdSender_CanBus.obj
 0001:000d5208       ?DoSendCmd@CmdSender_CanBus@@UAAHPAU_TAG_CMD_BUFF@@@Z 000e6208 f   CmdSender_CanBus.obj
 0001:000d5360       ??0CmdSender_I2C_AudioCodec@@QAA@XZ 000e6360 f   CmdSender_I2C_AudioCodec.obj
 0001:000d539c       ?DoSendCmd@CmdSender_I2C_AudioCodec@@UAAHPAU_TAG_CMD_BUFF@@@Z 000e639c f   CmdSender_I2C_AudioCodec.obj
 0001:000d5410       ??0CmdSender_McuUpdate@@QAA@XZ 000e6410 f   CmdSender_McuUpdate.obj
 0001:000d544c       ??1CmdSender_McuUpdate@@QAA@XZ 000e644c f   CmdSender_McuUpdate.obj
 0001:000d5484       ?WaitACK@CmdSender_McuUpdate@@AAAHPAEI@Z 000e6484 f   CmdSender_McuUpdate.obj
 0001:000d54d0       ?DoSendCmd@CmdSender_McuUpdate@@UAAHPAU_TAG_CMD_BUFF@@@Z 000e64d0 f   CmdSender_McuUpdate.obj
 0001:000d563c       ??0CCommanderEx@@QAA@XZ    000e663c f   CommanderEx.obj
 0001:000d56b0       ??1CCommanderEx@@QAA@XZ    000e66b0 f   CommanderEx.obj
 0001:000d56e4       ?PreProcess@CCommanderEx@@EAAXPAEK@Z 000e66e4 f   CommanderEx.obj
 0001:000d5ee4       ?IniMCU@CCommanderEx@@QAAXXZ 000e6ee4 f   CommanderEx.obj
 0001:000d5f34       ?GetItemData@CCommanderEx@@UAAEH@Z 000e6f34 f   CommanderEx.obj
 0001:000d5f50       ?VIPDump@@YAXPBUtagRECT@@@Z 000e6f50 f   CVideoWindow.obj
 0001:000d5f8c       ?VIPdderr2str@@YAPA_WJ@Z   000e6f8c f   CVideoWindow.obj
 0001:000d6a9c       ?VIPEnumVideoCallback@@YAJPAU_DDVIDEOPORTCAPS@@PAX@Z 000e7a9c f   CVideoWindow.obj
 0001:000d6abc       ??0CVideoWindow@@QAA@XZ    000e7abc f   CVideoWindow.obj
 0001:000d6b34       ?IsCodecIni@CAudioCodec@@QAAHXZ 000e7b34 f   AudioCodec.obj
 0001:000d6b34       ?IsRunning@CVideoWindow@@QAAHXZ 000e7b34 f   CVideoWindow.obj
 0001:000d6b34       ?GetGUI@CSkinManagerGL@@QAAPAVCGUI@@XZ 000e7b34 f   FantasyLib:SkinManagerGL.obj
 0001:000d6b3c       ?ShowVideoWindow@CVideoWindow@@IAAHH@Z 000e7b3c f   CVideoWindow.obj
 0001:000d6c90       ?SetGestureFunc@CVideoWindow@@QAAXP6AXIJPAX@Z0@Z 000e7c90 f   CVideoWindow.obj
 0001:000d6c9c       ?GetWindowPos@CVideoWindow@@QAAXPAH000@Z 000e7c9c f   CVideoWindow.obj
 0001:000d6cd8       ?UpdateColorSystemParam@CVideoWindow@@IAAXXZ 000e7cd8 f   CVideoWindow.obj
 0001:000d6d58       ?ReleaseAllObject@CVideoWindow@@QAAXXZ 000e7d58 f   CVideoWindow.obj
 0001:000d6e30       ?StartVideo@CVideoWindow@@QAAXXZ 000e7e30 f   CVideoWindow.obj
 0001:000d78cc       ?GetVideoSignalStatus@CVideoWindow@@IAAHPAK@Z 000e88cc f   CVideoWindow.obj
 0001:000d7908       ?SetDeinterlaceMode@CVideoWindow@@IAAXW4DEINTERLACING_MODE@@@Z 000e8908 f   CVideoWindow.obj
 0001:000d793c       ?StopVideo@CVideoWindow@@QAAXXZ 000e893c f   CVideoWindow.obj
 0001:000d79b4       ??1CVideoWindow@@UAA@XZ    000e89b4 f   CVideoWindow.obj
 0001:000d79fc       ?SetColorSystem@CVideoWindow@@QAAXW4COLOY_SYS@@@Z 000e89fc f   CVideoWindow.obj
 0001:000d7ad8       ?SetVideoChannel@CVideoWindow@@QAAXI@Z 000e8ad8 f   CVideoWindow.obj
 0001:000d7b80       ?SetPos@CVideoWindow@@IAAXHHHH@Z 000e8b80 f   CVideoWindow.obj
 0001:000d7bf0       ??_GCVideoWindow@@UAAPAXI@Z 000e8bf0 f i CVideoWindow.obj
 0001:000d7bf0       ??_ECVideoWindow@@UAAPAXI@Z 000e8bf0 f i CVideoWindow.obj
 0001:000d7c14       ?OnSignalDetect@CVideoWindow@@IAAXXZ 000e8c14 f   CVideoWindow.obj
 0001:000d7d84       ?SetWindowMode@CVideoWindow@@QAAXI@Z 000e8d84 f   CVideoWindow.obj
 0001:000d7ed0       ?VideoWndProc@CVideoWindow@@SAJPAUHWND__@@IIJ@Z 000e8ed0 f   CVideoWindow.obj
 0001:000d821c       ?Initialize@CVideoWindow@@QAAHPAUHINSTANCE__@@PAVCProConfig@@@Z 000e921c f   CVideoWindow.obj
 0001:000d8434       ??0CLED@@QAA@EEEEHH@Z      000e9434 f   LED.obj
 0001:000d84ec       ?SetLedParam@CLED@@QAAXHH@Z 000e94ec f   LED.obj
 0001:000d8508       ?EnableAnimShade@CLED@@QAAXHH@Z 000e9508 f   LED.obj
 0001:000d8540       ?GetLedHSB@CLED@@QAAXPAU_LEDHSB_@@@Z 000e9540 f   LED.obj
 0001:000d8578       ?GetLedRGB@CLED@@QAAXPAU_LEDRGB_@@@Z 000e9578 f   LED.obj
 0001:000d85a8       ?SetLedHSB@CLED@@QAAXPAU_LEDHSB_@@@Z 000e95a8 f   LED.obj
 0001:000d85c4       ?SetLedRGB@CLED@@QAAXPAU_LEDRGB_@@@Z 000e95c4 f   LED.obj
 0001:000d85e0       ?SetLedState@CLED@@QAAXE@Z 000e95e0 f   LED.obj
 0001:000d85f8       ?SetLedBrightness@CLED@@QAAXM@Z 000e95f8 f   LED.obj
 0001:000d8614       ?RefreshLED@CLED@@QAAHXZ   000e9614 f   LED.obj
 0001:000d863c       ??1CLED@@QAA@XZ            000e963c f   LED.obj
 0001:000d866c       ?GetNearBYTE@@YAEM@Z       000e966c f i LEDBase.obj
 0001:000d86d8       ?ArrayInsertSort@@YAXQAEE@Z 000e96d8 f i LEDBase.obj
 0001:000d874c       ?RGB2HSB@@YAXPAU_LEDRGB_@@PAU_LEDHSB_@@@Z 000e974c f i LEDBase.obj
 0001:000d8aa8       ?HSB2RGB@@YAXPAU_LEDHSB_@@PAU_LEDRGB_@@@Z 000e9aa8 f i LEDBase.obj
 0001:000d8cf0       ?LEDApi_Open@@YAPAXXZ      000e9cf0 f i LEDBase.obj
 0001:000d8d48       ?GetLedCurrentRGB@CLEDBase@@QAAPAU_LEDRGB_@@XZ 000e9d48 f   LEDBase.obj
 0001:000d8d50       ?GetLedCurrentHSB@CLEDBase@@QAAPAU_LEDHSB_@@XZ 000e9d50 f   LEDBase.obj
 0001:000d8d58       ?GetLedSaveHSB@CLEDBase@@QAAPAU_LEDHSB_@@XZ 000e9d58 f   LEDBase.obj
 0001:000d8d60       ?getPlayer@PlayerBuilder@@UAAPAViPlayer@iAP@@XZ 000e9d60 f   iAP_lib:iAPPlayerBuilder.obj
 0001:000d8d60       ?GetLedBreathEnable@CLEDBase@@QAAHXZ 000e9d60 f   LEDBase.obj
 0001:000d8d68       ?SetWorkMode@CLEDBase@@QAAHPAU_LEDMODE_@@@Z 000e9d68 f   LEDBase.obj
 0001:000d8de0       ?SetGroupLed@CLEDBase@@QAAHPAU_LEDGROUPOPERATION_@@@Z 000e9de0 f   LEDBase.obj
 0001:000d8e58       ?SetLed@CLEDBase@@QAAHPAU_LEDNOPERATION_@@@Z 000e9e58 f   LEDBase.obj
 0001:000d8ed0       ?EnableAnimPowerOn@CLEDBase@@QAAXXZ 000e9ed0 f   LEDBase.obj
 0001:000d8f18       ?EnableAnimShade@CLEDBase@@QAAXHH@Z 000e9f18 f   LEDBase.obj
 0001:000d8f7c       ?LedAnimationRun@CLEDBase@@AAAXXZ 000e9f7c f   LEDBase.obj
 0001:000d9060       ?LedAnimationThread@CLEDBase@@CAKPAX@Z 000ea060 f   LEDBase.obj
 0001:000d90a0       ?LedShadeRun@CLEDBase@@QAAXXZ 000ea0a0 f   LEDBase.obj
 0001:000d9114       ??0CLEDBase@@QAA@XZ        000ea114 f   LEDBase.obj
 0001:000d9214       ??1CLEDBase@@QAA@XZ        000ea214 f   LEDBase.obj
 0001:000d9290       ?ActionPowerOff@CLEDBase@@AAAXXZ 000ea290 f   LEDBase.obj
 0001:000d935c       ?ActionPowerOn@CLEDBase@@AAAXXZ 000ea35c f   LEDBase.obj
 0001:000d93c0       ?ActionPowerIdle@CLEDBase@@AAAXXZ 000ea3c0 f   LEDBase.obj
 0001:000d948c       ?ActionMute@CLEDBase@@AAAXXZ 000ea48c f   LEDBase.obj
 0001:000d94f8       ?ActionUnMute@CLEDBase@@AAAXXZ 000ea4f8 f   LEDBase.obj
 0001:000d9590       ?SetLedHSB@CLEDBase@@QAAXPAU_LEDHSB_@@H@Z 000ea590 f   LEDBase.obj
 0001:000d95fc       ?SetLedRGB@CLEDBase@@QAAXPAU_LEDRGB_@@H@Z 000ea5fc f   LEDBase.obj
 0001:000d965c       ?SetLedBrightness@CLEDBase@@QAAXMH@Z 000ea65c f   LEDBase.obj
 0001:000d9744       ?SetLedState@CLEDBase@@QAAXE@Z 000ea744 f   LEDBase.obj
 0001:000d97f4       ??0CLEDU702P@@QAA@EEEEHH@Z 000ea7f4 f   LED_U702P.obj
 0001:000d99b4       ?TemplateMethod_LedRefresh@CLEDU702P@@UAAHXZ 000ea9b4 f   LED_U702P.obj
 0001:000d9a4c       ?TemplateMethod_LedAnimBreath@CLEDU702P@@UAAXXZ 000eaa4c f   LED_U702P.obj
 0001:000d9b5c       ?TemplateMethod_LedAnimShade@CLEDU702P@@UAAXXZ 000eab5c f   LED_U702P.obj
 0001:000d9b60       ?OnLedPowerOn@CLEDU702P@@AAAXXZ 000eab60 f   LED_U702P.obj
 0001:000d9bc4       ?OnLedPowerIdle@CLEDU702P@@AAAXXZ 000eabc4 f   LED_U702P.obj
 0001:000d9bf8       ?TemplateMethod_LedAnimPowerOn@CLEDU702P@@UAAXXZ 000eabf8 f   LED_U702P.obj
 0001:000d9c2c       ?TemplateMethod_LedAnimPowerOff@CLEDU702P@@UAAXXZ 000eac2c f   LED_U702P.obj
 0001:000d9c48       ?TemplateMethod_LedAnimPowerIdle@CLEDU702P@@UAAXXZ 000eac48 f   LED_U702P.obj
 0001:000d9c54       ??0CMobileData@@QAA@XZ     000eac54 f   MobileData.obj
 0001:000d9d14       ??1CMobileData@@QAA@XZ     000ead14 f   MobileData.obj
 0001:000d9d9c       ??_GAuthenticationListener@iAP@@UAAPAXI@Z 000ead9c f i IapAuthenticationListener.obj
 0001:000d9d9c       ??_EAuthenticationListener@iAP@@UAAPAXI@Z 000ead9c f i IapAuthenticationListener.obj
 0001:000d9d9c       ??_GIapAuthenticationListener@@UAAPAXI@Z 000ead9c f i IapAuthenticationListener.obj
 0001:000d9d9c       ??_GPlugListener@@UAAPAXI@Z 000ead9c f i iAP_lib:PlugMonitor.obj
 0001:000d9d9c       ??_EIapAuthenticationListener@@UAAPAXI@Z 000ead9c f i IapAuthenticationListener.obj
 0001:000d9d9c       ??_EPlugListener@@UAAPAXI@Z 000ead9c f i iAP_lib:PlugMonitor.obj
 0001:000d9dc0       ??0IapAuthenticationListener@@QAA@PAUHWND__@@J@Z 000eadc0 f   IapAuthenticationListener.obj
 0001:000d9dd8       ?OnAuthenticationFinished@IapAuthenticationListener@@UAAXH@Z 000eadd8 f   IapAuthenticationListener.obj
 0001:000d9df0       ??0IapBrowserListener@@QAA@PAUHWND__@@J@Z 000eadf0 f   IapBrowserListener.obj
 0001:000d9e14       ?onRecordReady@IapBrowserListener@@UAAXIW4RootRecordID@iAP@@@Z 000eae14 f   IapBrowserListener.obj
 0001:000d9e7c       ?onRecordReady@IapBrowserListener@@UAAXIW4TopLevelRecordID@iAP@@@Z 000eae7c f   IapBrowserListener.obj
 0001:000d9ee4       ?onOpenFinished@IapBrowserListener@@UAAXI@Z 000eaee4 f   IapBrowserListener.obj
 0001:000d9f18       ?onExtendedUIModeReady@IapBrowserListener@@UAAXH@Z 000eaf18 f   IapBrowserListener.obj
 0001:000d9f30       ?onApplicationLaunched@IapBrowserListener@@UAAXH@Z 000eaf30 f   IapBrowserListener.obj
 0001:000d9f50       ?onRecordReady@IapBrowserListener@@UAAXIV?$basic_string@DU?$char_traits@D@std@@V?$allocator@D@2@@std@@@Z 000eaf50 f   IapBrowserListener.obj
 0001:000da02c       ??0IapPlayerListener@@QAA@PAUHWND__@@J@Z 000eb02c f   IapPlayerListener.obj
 0001:000da044       ?onNotifyPlayState@IapPlayerListener@@UAAXI@Z 000eb044 f   IapPlayerListener.obj
 0001:000da05c       ?onNotifyTrackLength@IapPlayerListener@@UAAXI@Z 000eb05c f   IapPlayerListener.obj
 0001:000da074       ?onNotifyTrackTime@IapPlayerListener@@UAAXI@Z 000eb074 f   IapPlayerListener.obj
 0001:000da08c       ?onNotifyTrackIndex@IapPlayerListener@@UAAXI@Z 000eb08c f   IapPlayerListener.obj
 0001:000da0a4       ?onNofityTrackArtwork@IapPlayerListener@@UAAXPAVArtwork@iAP@@@Z 000eb0a4 f   IapPlayerListener.obj
 0001:000da0bc       ?onNotifyArtworkStatus@IapPlayerListener@@UAAXH@Z 000eb0bc f   IapPlayerListener.obj
 0001:000da0dc       ?onReturnShuffle@IapPlayerListener@@UAAXAAVShuffleMode@iAP@@@Z 000eb0dc f   IapPlayerListener.obj
 0001:000da1d0       ?onReturnRepeat@IapPlayerListener@@UAAXAAVRepeatMode@iAP@@@Z 000eb1d0 f   IapPlayerListener.obj
 0001:000da2bc       ?onNotifyTrackLyric@IapPlayerListener@@UAAXPAVLyric@iAP@@@Z 000eb2bc f   IapPlayerListener.obj
 0001:000da2d0       ?onNofityPlayingTrackNum@IapPlayerListener@@UAAXI@Z 000eb2d0 f   IapPlayerListener.obj
 0001:000da310       ??_EPlayerListener@iAP@@UAAPAXI@Z 000eb310 f i IapPlayerListener.obj
 0001:000da310       ??_GNullPlayerListener@@UAAPAXI@Z 000eb310 f i iAP_lib:Player.obj
 0001:000da310       ??_GIapPlayerListener@@UAAPAXI@Z 000eb310 f i IapPlayerListener.obj
 0001:000da310       ??_ENullPlayerListener@@UAAPAXI@Z 000eb310 f i iAP_lib:Player.obj
 0001:000da310       ??_EIapPlayerListener@@UAAPAXI@Z 000eb310 f i IapPlayerListener.obj
 0001:000da310       ??_GPlayerListener@iAP@@UAAPAXI@Z 000eb310 f i IapPlayerListener.obj
 0001:000da334       ?onNofityTrackName@IapPlayerListener@@UAAXAAV?$basic_string@DU?$char_traits@D@std@@V?$allocator@D@2@@std@@@Z 000eb334 f   IapPlayerListener.obj
 0001:000da358       ?onNofityTrackArtistName@IapPlayerListener@@UAAXAAV?$basic_string@DU?$char_traits@D@std@@V?$allocator@D@2@@std@@@Z 000eb358 f   IapPlayerListener.obj
 0001:000da37c       ?onNofityTrackAlbumName@IapPlayerListener@@UAAXAAV?$basic_string@DU?$char_traits@D@std@@V?$allocator@D@2@@std@@@Z 000eb37c f   IapPlayerListener.obj
 0001:000da3a0       ??0IapRemoteControlListener@@QAA@PAUHWND__@@J@Z 000eb3a0 f   IapRemoteControl.obj
 0001:000da3b8       ?onNotifyAccessoryRegisterHID@IapRemoteControlListener@@UAAXHE@Z 000eb3b8 f   IapRemoteControl.obj
 0001:000da3d4       ?onNotifyAccessoryUnregisterHID@IapRemoteControlListener@@UAAXH@Z 000eb3d4 f   IapRemoteControl.obj
 0001:000da3ec       ?onNotifyiPodHIDReport@IapRemoteControlListener@@UAAXPAVHIDReport@iAP@@@Z 000eb3ec f   IapRemoteControl.obj
 0001:000da404       ?onNotifyVoiceOverparameter@IapRemoteControlListener@@UAAXEE@Z 000eb404 f   IapRemoteControl.obj
 0001:000da420       ?onNotifyVoiceOverItemProperty@IapRemoteControlListener@@UAAXE@Z 000eb420 f   IapRemoteControl.obj
 0001:000da438       ?onNotifyVoiceOverStatus@IapRemoteControlListener@@UAAXH@Z 000eb438 f   IapRemoteControl.obj
 0001:000da450       ??1NullPlayer@@UAA@XZ      000eb450 f i IpodControl.obj
 0001:000da464       ?getPlayState@NullPlayer@@UBA?AW4PLAY_STATE@iAP@@XZ 000eb464 f i IpodControl.obj
 0001:000da46c       ?getRepeatMode@NullPlayer@@UAA?AVRepeatMode@iAP@@XZ 000eb46c f i IpodControl.obj
 0001:000da46c       ?getShuffleMode@NullPlayer@@UAA?AVShuffleMode@iAP@@XZ 000eb46c f i IpodControl.obj
 0001:000da484       ??_GNullPlayer@@UAAPAXI@Z  000eb484 f i IpodControl.obj
 0001:000da484       ??_ENullPlayer@@UAAPAXI@Z  000eb484 f i IpodControl.obj
 0001:000da4b4       ??_GNullAuthentication@@UAAPAXI@Z 000eb4b4 f i IpodControl.obj
 0001:000da4b4       ??_ENullAuthentication@@UAAPAXI@Z 000eb4b4 f i IpodControl.obj
 0001:000da4e4       ??1NullBrowser@@UAA@XZ     000eb4e4 f i IpodControl.obj
 0001:000da4f8       ??_GNullBrowser@@UAAPAXI@Z 000eb4f8 f i IpodControl.obj
 0001:000da4f8       ??_ENullBrowser@@UAAPAXI@Z 000eb4f8 f i IpodControl.obj
 0001:000da530       ??0IpodControl@@QAA@XZ     000eb530 f   IpodControl.obj
 0001:000da5f0       ?setUp@IpodControl@@QAAXW4SUPPORT_TYPE@@PAVAuthenticationListener@iAP@@PAVBrowserListener@4@PAVPlayerListener@4@PAViOSCommunicationListener@4@PAVRemoteControlListener@4@@Z 000eb5f0 f   IpodControl.obj
 0001:000da6c4       ?constructBuilder@IpodControl@@QAA_NXZ 000eb6c4 f   IpodControl.obj
 0001:000da784       ?releaseListener@IpodControl@@QAAXXZ 000eb784 f   IpodControl.obj
 0001:000da79c       ?plugOutDetect@IpodControl@@QAAHXZ 000eb79c f   IpodControl.obj
 0001:000da7b4       ?startAuthentication@IpodControl@@QAAXXZ 000eb7b4 f   IpodControl.obj
 0001:000da7d8       ?browserStart@IpodControl@@QAAXXZ 000eb7d8 f   IpodControl.obj
 0001:000da7fc       ?browserOpen@IpodControl@@QAAXI@Z 000eb7fc f   IpodControl.obj
 0001:000da820       ?browserUp@IpodControl@@QAAXXZ 000eb820 f   IpodControl.obj
 0001:000da844       ?browserRoot@IpodControl@@QAAXXZ 000eb844 f   IpodControl.obj
 0001:000da868       ?browserGetRecords@IpodControl@@QAAXII@Z 000eb868 f   IpodControl.obj
 0001:000da88c       ?browserIsPlayable@IpodControl@@QAA_NXZ 000eb88c f   IpodControl.obj
 0001:000da8bc       ?browserIsTrack@IpodControl@@QAA_NXZ 000eb8bc f   IpodControl.obj
 0001:000da8ec       ?browserGetHierarchyType@IpodControl@@QAAEXZ 000eb8ec f   IpodControl.obj
 0001:000da910       ?playerInit@IpodControl@@QAAXXZ 000eb910 f   IpodControl.obj
 0001:000da934       ?playerStartPlay@IpodControl@@QAAXW4_PlaybackID@iAP@@I@Z 000eb934 f   IpodControl.obj
 0001:000da958       ?playerPausePlay@IpodControl@@QAAXXZ 000eb958 f   IpodControl.obj
 0001:000da97c       ?playerResumePlay@IpodControl@@QAAXXZ 000eb97c f   IpodControl.obj
 0001:000da9a0       ?playerNextPlay@IpodControl@@QAAXXZ 000eb9a0 f   IpodControl.obj
 0001:000da9c4       ?playerPreviousPlay@IpodControl@@QAAXXZ 000eb9c4 f   IpodControl.obj
 0001:000da9e8       ?playerFReversePlay@IpodControl@@QAAXXZ 000eb9e8 f   IpodControl.obj
 0001:000daa0c       ?playerFForwordPlay@IpodControl@@QAAXXZ 000eba0c f   IpodControl.obj
 0001:000daa30       ?playerEndFFRewPlay@IpodControl@@QAAXXZ 000eba30 f   IpodControl.obj
 0001:000daa54       ?playerGetPlayState@IpodControl@@QAA?AW4PLAY_STATE@iAP@@XZ 000eba54 f   IpodControl.obj
 0001:000daa78       ?playerGetPlayingTrackIndexFromIpod@IpodControl@@QAAXXZ 000eba78 f   IpodControl.obj
 0001:000daaa4       ?playerSetShuffleMode@IpodControl@@QAAXVShuffleMode@iAP@@@Z 000ebaa4 f   IpodControl.obj
 0001:000dab04       ?playerSetRepeatMode@IpodControl@@QAAXVRepeatMode@iAP@@@Z 000ebb04 f   IpodControl.obj
 0001:000dab5c       ?playerGetPlayingTrackName@IpodControl@@QAAXI@Z 000ebb5c f   IpodControl.obj
 0001:000dab80       ?playerGetPlayingTrackArtistName@IpodControl@@QAAXI@Z 000ebb80 f   IpodControl.obj
 0001:000daba4       ?playerGetPlayingTrackAlbumName@IpodControl@@QAAXI@Z 000ebba4 f   IpodControl.obj
 0001:000dabc8       ?playerGetArtwork@IpodControl@@QAAXI@Z 000ebbc8 f   IpodControl.obj
 0001:000dac48       ?playerGetTotalTime@IpodControl@@QAAXXZ 000ebc48 f   IpodControl.obj
 0001:000dac6c       ?playerGetPlayingTrackNum@IpodControl@@QAAXXZ 000ebc6c f   IpodControl.obj
 0001:000dac90       ??0CAppConfigProxy@@QAA@XZ 000ebc90 f   AppConfigProxy.obj
 0001:000dacf0       ??1CAppConfigProxy@@QAA@XZ 000ebcf0 f   AppConfigProxy.obj
 0001:000dad04       ?SetOemSector@CAppConfigProxy@@QAAHXZ 000ebd04 f   AppConfigProxy.obj
 0001:000daf38       ?GetOemSector@CAppConfigProxy@@QAAHXZ 000ebf38 f   AppConfigProxy.obj
 0001:000db054       ?SaveAppConfig@CAppConfigProxy@@QAAHXZ 000ec054 f   AppConfigProxy.obj
 0001:000db070       ??1CLockObject@@QAA@XZ     000ec070 f i CarplayAdapter.obj
 0001:000db074       ?GetInstance@CCarplayAdapter@@SAPAV1@XZ 000ec074 f   CarplayAdapter.obj
 0001:000db08c       ?IsFileExists@CPanelAndroidAuto@@SAHPB_W@Z 000ec08c f   PanelAndroidAuto.obj
 0001:000db08c       ?IsFileExists@CCarplayAdapter@@SAHPB_W@Z 000ec08c f   CarplayAdapter.obj
 0001:000db0e8       ?StoreCa@CCarplayAdapter@@CAHPB_WPBXI@Z 000ec0e8 f   CarplayAdapter.obj
 0001:000db178       ?StoreCaProc@CCarplayAdapter@@CAHPBXI@Z 000ec178 f   CarplayAdapter.obj
 0001:000db2d4       ?InstallCA@CCarplayAdapter@@CAHPB_WPAH@Z 000ec2d4 f   CarplayAdapter.obj
 0001:000db3dc       ?InstallCAToCPCA@CCarplayAdapter@@CAHPB_W@Z 000ec3dc f   CarplayAdapter.obj
 0001:000db504       ?DeleteCAFromCPCA@CCarplayAdapter@@CAHXZ 000ec504 f   CarplayAdapter.obj
 0001:000db570       ?ControlStreams@CCarplayAdapter@@AAAXH@Z 000ec570 f   CarplayAdapter.obj
 0001:000db5c8       ?UpdateStreams@CCarplayAdapter@@AAAXHHH@Z 000ec5c8 f   CarplayAdapter.obj
 0001:000db650       ?IAP2ConnectState@CCarplayAdapter@@AAAXH@Z 000ec650 f   CarplayAdapter.obj
 0001:000db69c       ?ModesChanged@CCarplayAdapter@@AAAXPBUAirPlayModeState@@@Z 000ec69c f   CarplayAdapter.obj
 0001:000db6d8       ?DuckAudio@CCarplayAdapter@@AAAXNN@Z 000ec6d8 f   CarplayAdapter.obj
 0001:000db73c       ?GetDeviceName@CCarplayAdapter@@QAAPA_WXZ 000ec73c f   CarplayAdapter.obj
 0001:000db744       ?SetTestMode@CCarplayAdapter@@QAAXH@Z 000ec744 f   CarplayAdapter.obj
 0001:000db770       ?GetTestMode@CCarplayAdapter@@QAAHXZ 000ec770 f   CarplayAdapter.obj
 0001:000db770       ?GetIcon@CListBoxItemGL@@QAAPAVCLabelGL@@XZ 000ec770 f   FantasyLib:ListBoxGL.obj
 0001:000db778       ?GetModeState@CCarplayAdapter@@QAAPBUAirPlayModeState@@XZ 000ec778 f   CarplayAdapter.obj
 0001:000db780       ?SetUSBTestMode@CCarplayAdapter@@QAAHW4CarplayAPITestModeType@@@Z 000ec780 f   CarplayAdapter.obj
 0001:000db788       ?MACAddressToCString@CCarplayAdapter@@SAPADQBEPADH@Z 000ec788 f   CarplayAdapter.obj
 0001:000db7ec       ?CStringToMACAddress@CCarplayAdapter@@SAHPBXIIPAX@Z 000ec7ec f   CarplayAdapter.obj
 0001:000db8d4       ?DisableBluetooth@CCarplayAdapter@@AAAXQBE@Z 000ec8d4 f   CarplayAdapter.obj
 0001:000db9d4       ?GetRightHand@CCarplayAdapter@@AAAXPAH@Z 000ec9d4 f   CarplayAdapter.obj
 0001:000dba0c       ?GetInitialModes@CCarplayAdapter@@AAAXPAUAirPlayModeChanges@@@Z 000eca0c f   CarplayAdapter.obj
 0001:000dbc7c       ?DeviceInformationUpdate@CCarplayAdapter@@AAAXPB_W@Z 000ecc7c f   CarplayAdapter.obj
 0001:000dbd44       ?DeviceTimeUpdate@CCarplayAdapter@@AAAX_KFD@Z 000ecd44 f   CarplayAdapter.obj
 0001:000dbd94       ?SetMacToCPMAC@CCarplayAdapter@@AAAHPAEI@Z 000ecd94 f   CarplayAdapter.obj
 0001:000dbe08       ?DeleteCA@CCarplayAdapter@@QAAHXZ 000ece08 f   CarplayAdapter.obj
 0001:000dbe20       ?OnNightModeChanged@CCarplayAdapter@@QAAXH@Z 000ece20 f   CarplayAdapter.obj
 0001:000dbe28       ?SetUserSelectAudioSRC@CCarplayAdapter@@QAAXH@Z 000ece28 f   CarplayAdapter.obj
 0001:000dbe48       ?SetUserSelectNativeUI@CCarplayAdapter@@QAAXH@Z 000ece48 f   CarplayAdapter.obj
 0001:000dbe68       ?SetUserSelectNativeNavi@CCarplayAdapter@@QAAXH@Z 000ece68 f   CarplayAdapter.obj
 0001:000dbe90       ?StartIperfServer@CCarplayAdapter@@QAAXXZ 000ece90 f   CarplayAdapter.obj
 0001:000dbfbc       ?UpdateSessionAddress@CCarplayAdapter@@QAAXXZ 000ecfbc f   CarplayAdapter.obj
 0001:000dc06c       ?isSessionAddressValid@CCarplayAdapter@@QAAHXZ 000ed06c f   CarplayAdapter.obj
 0001:000dc128       ?GetSessionAddressFamily@CCarplayAdapter@@QAAGXZ 000ed128 f   CarplayAdapter.obj
 0001:000dc134       ?GetSessionAddressStr@CCarplayAdapter@@QAAPB_WXZ 000ed134 f   CarplayAdapter.obj
 0001:000dc144       ?InputSessionAddress@CCarplayAdapter@@QAAXH@Z 000ed144 f   CarplayAdapter.obj
 0001:000dc19c       ?DeleteSessionAddress@CCarplayAdapter@@QAAXH@Z 000ed19c f   CarplayAdapter.obj
 0001:000dc1fc       ?StartTCPClient@CCarplayAdapter@@QAAXXZ 000ed1fc f   CarplayAdapter.obj
 0001:000dc378       ?StartUDPClient@CCarplayAdapter@@QAAXPB_W@Z 000ed378 f   CarplayAdapter.obj
 0001:000dc550       ?GetIperfReport@CCarplayAdapter@@QAAAAV?$CStringT@_WV?$StrTraitATL@_WV?$ChTraitsOS@_W@ATL@@@ATL@@@ATL@@XZ 000ed550 f   CarplayAdapter.obj
 0001:000dc55c       ?GetIperfResults@CCarplayAdapter@@QAAAAV?$CStringT@_WV?$StrTraitATL@_WV?$ChTraitsOS@_W@ATL@@@ATL@@@ATL@@XZ 000ed55c f   CarplayAdapter.obj
 0001:000dc568       ?NeedShowTopBanner@CCarplayAdapter@@QAAHXZ 000ed568 f   CarplayAdapter.obj
 0001:000dc578       ?StartH264Test@CCarplayAdapter@@QAAXPB_W0@Z 000ed578 f   CarplayAdapter.obj
 0001:000dc62c       ?LimitedUI@CCarplayAdapter@@QAAXH@Z 000ed62c f   CarplayAdapter.obj
 0001:000dc63c       ?SetReverseMode@CCarplayAdapter@@QAAXH@Z 000ed63c f   CarplayAdapter.obj
 0001:000dc644       ?SetSystemPowerState@CCarplayAdapter@@QAAXI@Z 000ed644 f   CarplayAdapter.obj
 0001:000dc64c       ?SetBluetoothPhoneStatus@CCarplayAdapter@@QAAXH@Z 000ed64c f   CarplayAdapter.obj
 0001:000dc730       ?ConnectTester@CCarplayAdapter@@QAAHPAXI@Z 000ed730 f   CarplayAdapter.obj
 0001:000dc73c       ?Restart@CCarplayAdapter@@QAAXXZ 000ed73c f   CarplayAdapter.obj
 0001:000dc740       ??0CLocationInfo@@QAA@XZ   000ed740 f   CarplayAdapter.obj
 0001:000dc874       ?StopLocationInformation@CLocationInfo@@QAAXXZ 000ed874 f   CarplayAdapter.obj
 0001:000dc8b8       ?ForceTerminated@CLocationInfo@@AAAHXZ 000ed8b8 f   CarplayAdapter.obj
 0001:000dc90c       ?ThreadRun@CLocationInfo@@AAAKXZ 000ed90c f   CarplayAdapter.obj
 0001:000dcac8       ?OnSpeedSample@CLocationInfo@@QAAXN@Z 000edac8 f   CarplayAdapter.obj
 0001:000dccfc       ?OnTransmissionState@CLocationInfo@@QAAXD@Z 000edcfc f   CarplayAdapter.obj
 0001:000dcd48       ??E?$_Const_iterator@$00@?$list@PAEV?$allocator@PAE@std@@@std@@QAAAAV012@XZ 000edd48 f i CarplayAdapter.obj
 0001:000dcd84       ??$_Allocate@U_Node@?$_List_nod@PAEV?$allocator@PAE@std@@@std@@@std@@YAPAU_Node@?$_List_nod@PAEV?$allocator@PAE@std@@@0@IPAU120@@Z 000edd84 f i CarplayAdapter.obj
 0001:000dcdf4       ?ControlStreamsProc@CCarplayAdapter@@CAXPAXH@Z 000eddf4 f   CarplayAdapter.obj
 0001:000dce04       ?UpdateStreamsProc@CCarplayAdapter@@CAXPAXHHH@Z 000ede04 f   CarplayAdapter.obj
 0001:000dce14       ?IAP2ConnectStateProc@CCarplayAdapter@@CAXPAXH@Z 000ede14 f   CarplayAdapter.obj
 0001:000dce24       ?ModesChangedProc@CCarplayAdapter@@CAXPAXPBUAirPlayModeState@@@Z 000ede24 f   CarplayAdapter.obj
 0001:000dce34       ?RequestUIProc@CCarplayAdapter@@CAXPAXPBD@Z 000ede34 f   CarplayAdapter.obj
 0001:000dce64       ?DuckAudioProc@CCarplayAdapter@@CAXPAXNN@Z 000ede64 f   CarplayAdapter.obj
 0001:000dce8c       ?UnduckAudioProc@CCarplayAdapter@@CAXPAXN@Z 000ede8c f   CarplayAdapter.obj
 0001:000dceb0       ?DisableBluetoothProc@CCarplayAdapter@@CAXPAXQBE@Z 000edeb0 f   CarplayAdapter.obj
 0001:000dcec0       ?TelephonyAudioFormatProc@CCarplayAdapter@@CAXPAX_K@Z 000edec0 f   CarplayAdapter.obj
 0001:000dcee4       ?SpeechAudioFormatProc@CCarplayAdapter@@CAXPAX_K@Z 000edee4 f   CarplayAdapter.obj
 0001:000dcf08       ?GetRightHandProc@CCarplayAdapter@@CAXPAXPAH@Z 000edf08 f   CarplayAdapter.obj
 0001:000dcf18       ?GetInitialModesProc@CCarplayAdapter@@CAXPAXPAUAirPlayModeChanges@@@Z 000edf18 f   CarplayAdapter.obj
 0001:000dcf28       ?DeviceInformationUpdateProc@CCarplayAdapter@@CAXPAXPB_W@Z 000edf28 f   CarplayAdapter.obj
 0001:000dcf38       ?DeviceTimeUpdateProc@CCarplayAdapter@@CAXPAX_KFD@Z 000edf38 f   CarplayAdapter.obj
 0001:000dcf58       ?DeviceUUIDUpdateProc@CCarplayAdapter@@CAXPAXPB_W@Z 000edf58 f   CarplayAdapter.obj
 0001:000dcf74       ?GetBluetoothIDCount@CCarplayAdapter@@QAAIXZ 000edf74 f   CarplayAdapter.obj
 0001:000dcfa0       ?SetMacToReg@CCarplayAdapter@@AAAHPAD@Z 000edfa0 f   CarplayAdapter.obj
 0001:000dd0b4       ?DeleteMAC@CCarplayAdapter@@QAAHXZ 000ee0b4 f   CarplayAdapter.obj
 0001:000dd1d4       ?OnSpeedSample@CCarplayAdapter@@QAAXN@Z 000ee1d4 f   CarplayAdapter.obj
 0001:000dd1dc       ?OnTransmissionState@CCarplayAdapter@@QAAXD@Z 000ee1dc f   CarplayAdapter.obj
 0001:000dd1e4       ??1CLocationInfo@@QAA@XZ   000ee1e4 f   CarplayAdapter.obj
 0001:000dd20c       ?ThreadProc@CLocationInfo@@CAKPAX@Z 000ee20c f   CarplayAdapter.obj
 0001:000dd22c       ?StopLocationInformationProc@CCarplayAdapter@@CAXPAX@Z 000ee22c f   CarplayAdapter.obj
 0001:000dd240       ?ConnectState@CCarplayAdapter@@AAAXH@Z 000ee240 f   CarplayAdapter.obj
 0001:000dd3d8       ?DeviceSetMac@CCarplayAdapter@@AAAHPAEI@Z 000ee3d8 f   CarplayAdapter.obj
 0001:000dd4a0       ?DeviceSetMac@CCarplayAdapter@@QAAHPAD@Z 000ee4a0 f   CarplayAdapter.obj
 0001:000dd54c       ?CheckMAC@CCarplayAdapter@@QAAHXZ 000ee54c f   CarplayAdapter.obj
 0001:000dd684       ?SetMACFromFile@CCarplayAdapter@@QAAHPB_W@Z 000ee684 f   CarplayAdapter.obj
 0001:000dd778       ?StartLocationInformation@CLocationInfo@@QAAXPBTLocationInfo_t@@@Z 000ee778 f   CarplayAdapter.obj
 0001:000dd7d8       ?clear@?$list@PAEV?$allocator@PAE@std@@@std@@QAAXXZ 000ee7d8 f i CarplayAdapter.obj
 0001:000dd81c       ?_Buynode@?$list@PAEV?$allocator@PAE@std@@@std@@IAAPAU_Node@?$_List_nod@PAEV?$allocator@PAE@std@@@2@XZ 000ee81c f i CarplayAdapter.obj
 0001:000dd840       ?_Buynode@?$list@PAEV?$allocator@PAE@std@@@std@@IAAPAU_Node@?$_List_nod@PAEV?$allocator@PAE@std@@@2@PAU342@0ABQAE@Z 000ee840 f i CarplayAdapter.obj
 0001:000dd87c       ?ConnectStateProc@CCarplayAdapter@@CAXPAXH@Z 000ee87c f   CarplayAdapter.obj
 0001:000dd88c       ?DeviceSetMacProc@CCarplayAdapter@@CAHPAXPAEI@Z 000ee88c f   CarplayAdapter.obj
 0001:000dd8a4       ?GetBluetoothIDs@CCarplayAdapter@@AAAXPAPAEIPAI@Z 000ee8a4 f   CarplayAdapter.obj
 0001:000dd9a4       ?CheckMACFromFile@CCarplayAdapter@@QAAHXZ 000ee9a4 f   CarplayAdapter.obj
 0001:000dda4c       ??1?$list@PAEV?$allocator@PAE@std@@@std@@QAA@XZ 000eea4c f i CarplayAdapter.obj
 0001:000dda6c       ?Append@?$CSimpleStringT@_W$0A@@ATL@@QAAXPB_WH@Z 000eea6c f i CarplayAdapter.obj
 0001:000ddae0       ?StartLocationInformationProc@CCarplayAdapter@@CAXPAXPBTLocationInfo_t@@@Z 000eeae0 f   CarplayAdapter.obj
 0001:000ddaf4       ?GetBluetoothIDsProc@CCarplayAdapter@@CAXPAXPAPAEIPAI@Z 000eeaf4 f   CarplayAdapter.obj
 0001:000ddb0c       ?ThreadRun@CCarplayAdapter@@MAAKXZ 000eeb0c f   CarplayAdapter.obj
 0001:000ddef4       ?Insert@?$CStringT@_WV?$StrTraitATL@_WV?$ChTraitsOS@_W@ATL@@@ATL@@@ATL@@QAAHH_W@Z 000eeef4 f i CarplayAdapter.obj
 0001:000ddf84       ??0CCarplayAdapter@@AAA@XZ 000eef84 f   CarplayAdapter.obj
 0001:000de1d0       ?_Incsize@?$list@PAEV?$allocator@PAE@std@@@std@@IAAXI@Z 000ef1d0 f i CarplayAdapter.obj
 0001:000de278       ?IperfReport@CCarplayAdapter@@AAAXPA_W@Z 000ef278 f   CarplayAdapter.obj
 0001:000de2c0       ?IperfResults@CCarplayAdapter@@AAAXPA_W@Z 000ef2c0 f   CarplayAdapter.obj
 0001:000de328       ?GetMAC@CCarplayAdapter@@QAAPB_WXZ 000ef328 f   CarplayAdapter.obj
 0001:000de44c       ?ClearIperfReport@CCarplayAdapter@@QAAXXZ 000ef44c f   CarplayAdapter.obj
 0001:000de464       ?IperfReportProc@CCarplayAdapter@@CAXPAXPA_W@Z 000ef464 f   CarplayAdapter.obj
 0001:000de474       ?IperfResultsProc@CCarplayAdapter@@CAXPAXPA_W@Z 000ef474 f   CarplayAdapter.obj
 0001:000de484       ?AddBluetoothID@CCarplayAdapter@@QAAXQBE@Z 000ef484 f   CarplayAdapter.obj
 0001:000de538       ?AddBluetoothID@CCarplayAdapter@@QAAXPB_W@Z 000ef538 f   CarplayAdapter.obj
 0001:000de5cc       ?Initialize@CCarplayAdapter@@QAAXPAVCSkinManagerGL@@PAUHWND__@@P6AXPAXH@Z32@Z 000ef5cc f   CarplayAdapter.obj
 0001:000deb2c       IAP_I2C_Open               000efb2c f   IAP2I2C.obj
 0001:000deb9c       IAP_I2C_Close              000efb9c f   IAP2I2C.obj
 0001:000debe8       IAP_I2C_Write              000efbe8 f   IAP2I2C.obj
 0001:000decf4       IAP_I2C_Read               000efcf4 f   IAP2I2C.obj
 0001:000dee08       ??0CPanelCarPlay@@QAA@XZ   000efe08 f   PanelCarPlay.obj
 0001:000defa0       ??1CPanelCarPlay@@UAA@XZ   000effa0 f   PanelCarPlay.obj
 0001:000df074       ?IsReady@CPanelCarPlay@@UAAHXZ 000f0074 f   PanelCarPlay.obj
 0001:000df098       ?OnSRCChanged@CPanelCarPlay@@UAAXI@Z 000f0098 f   PanelCarPlay.obj
 0001:000df12c       ?OnEnterPanel@CPanelCarPlay@@UAAXIIPAX@Z 000f012c f   PanelCarPlay.obj
 0001:000df2ac       ?Initialize@CPanelCarPlay@@UAAHIPAVCPanelGL@@PAVCSkinManagerGL@@PAVCTextGL@@PAUHWND__@@U_TMODULEENTRY@@@Z 000f02ac f   PanelCarPlay.obj
 0001:000df608       ?IsEnableQuit@CPanelCarPlay@@UAAHXZ 000f0608 f   PanelCarPlay.obj
 0001:000df690       ?OnBack@CPanelCarPlay@@UAAXXZ 000f0690 f   PanelCarPlay.obj
 0001:000df690       ?OnBack@CPanelPhoneLink@@UAAXXZ 000f0690 f   PanelPhoneLink.obj
 0001:000df690       ?OnBack@CPanelApp@@UAAXXZ  000f0690 f   PanelApp.obj
 0001:000df690       ?OnBack@CPanelAndroidAuto@@UAAXXZ 000f0690 f   PanelAndroidAuto.obj
 0001:000df690       ?OnBack@CPanelMHL@@UAAXXZ  000f0690 f   PanelMHL.obj
 0001:000df6c0       ?OnKey@CPanelCarPlay@@UAAHII@Z 000f06c0 f   PanelCarPlay.obj
 0001:000dfa38       ?OnSpeechStart@CPanelCarPlay@@UAAXXZ 000f0a38 f   PanelCarPlay.obj
 0001:000dfa44       ?OnSpeechTerminate@CPanelCarPlay@@UAAXXZ 000f0a44 f   PanelCarPlay.obj
 0001:000dfa50       ?OnBrakeStatusChanged@CPanelCarPlay@@UAAXH@Z 000f0a50 f   PanelCarPlay.obj
 0001:000dfa78       ?OnSystemPowerStatePrepare@CPanelCarPlay@@UAAXI@Z 000f0a78 f   PanelCarPlay.obj
 0001:000dfa98       ?OnSystemPowerStateDone@CPanelCarPlay@@UAAXI@Z 000f0a98 f   PanelCarPlay.obj
 0001:000dfc08       ?StartCarPlay@CPanelCarPlay@@IAAXXZ 000f0c08 f   PanelCarPlay.obj
 0001:000dfca0       ?StopCarPlay@CPanelCarPlay@@IAAXXZ 000f0ca0 f   PanelCarPlay.obj
 0001:000dfd24       ?OnNotifyRdsTAStatus@CPanelCarPlay@@QAAXIJ@Z 000f0d24 f   PanelCarPlay.obj
 0001:000dfde4       ?OnReverseModeChange@CPanelCarPlay@@UAAXH@Z 000f0de4 f   PanelCarPlay.obj
 0001:000dfee8       ?OnNightModeChanged@CPanelCarPlay@@QAAXH@Z 000f0ee8 f   PanelCarPlay.obj
 0001:000dfef8       ?OnCarPlayMsg@CPanelCarPlay@@QAAXIJ@Z 000f0ef8 f   PanelCarPlay.obj
 0001:000e0638       ?AutoSwitchNativeUI@CPanelCarPlay@@QAAXXZ 000f1638 f   PanelCarPlay.obj
 0001:000e07f0       ?AutoSwitchCarPlayMedia@CPanelCarPlay@@QAAXXZ 000f17f0 f   PanelCarPlay.obj
 0001:000e0960       ?OnPhoneCallState@CPanelCarPlay@@UAAXIJ@Z 000f1960 f   PanelCarPlay.obj
 0001:000e097c       ??_GCPanelCarPlay@@UAAPAXI@Z 000f197c f i PanelCarPlay.obj
 0001:000e097c       ??_ECPanelCarPlay@@UAAPAXI@Z 000f197c f i PanelCarPlay.obj
 0001:000e09a0       ?OnQuitPanel@CPanelCarPlay@@UAAXIIPAX@Z 000f19a0 f   PanelCarPlay.obj
 0001:000e0ab8       ?Render@CPanelCarPlay@@UAAXXZ 000f1ab8 f   PanelCarPlay.obj
 0001:000e0d00       ?GPIOOpen@@YAPAXXZ         000f1d00 f i AspAK7738.obj
 0001:000e0d5c       ?GPIOOutputEnable@@YAHPAXK@Z 000f1d5c f i AspAK7738.obj
 0001:000e0d9c       ?GPIOOutputOne@@YAHPAXK@Z  000f1d9c f i AspAK7738.obj
 0001:000e0ddc       ?GPIOOutputZero@@YAHPAXK@Z 000f1ddc f i AspAK7738.obj
 0001:000e0e1c       ?GPIOPadEnable@@YAHPAXK@Z  000f1e1c f i AspAK7738.obj
 0001:000e0e5c       ?GPIOPullUp@@YAHPAXK@Z     000f1e5c f i AspAK7738.obj
 0001:000e0e9c       ?GPIOPullDown@@YAHPAXK@Z   000f1e9c f i AspAK7738.obj
 0001:000e0edc       ??0CAspBase@@QAA@XZ        000f1edc f   AspBase.obj
 0001:000e0f08       ??1CAspBase@@QAA@XZ        000f1f08 f   AspBase.obj
 0001:000e0f38       ?Initialize@CAspBase@@UAAHW4IICPort@@W4SPIPort@@KKKK@Z 000f1f38 f   AspBase.obj
 0001:000e1048       ?Asp_ReadI2c@CAspBase@@IAAHKPAEI@Z 000f2048 f   AspBase.obj
 0001:000e10f8       ?Asp_WriteI2c@CAspBase@@IAAHKPAEI@Z 000f20f8 f   AspBase.obj
 0001:000e11a8       ?Asp_WriteSpi@CAspBase@@IAAHPAEK0KH@Z 000f21a8 f   AspBase.obj
 0001:000e129c       ?Asp_WriteI2cReg@CAspBase@@IAAHEK@Z 000f229c f   AspBase.obj
 0001:000e12c8       ?Asp_ReadI2cReg@CAspBase@@IAAHEPAK@Z 000f22c8 f   AspBase.obj
 0001:000e1320       ??0CAudioCodecST7418AIC3254@@QAA@PAVCCommanderEx@@PAUHWND__@@W4AspType@@@Z 000f2320 f   AudioCodecST7418AIC3254.obj
 0001:000e1350       ?codec_IsCodecConfigFinished@CAudioCodecST7418AIC3254@@MAAHXZ 000f2350 f   AudioCodecST7418AIC3254.obj
 0001:000e1370       ?codec_MuteAMP@CAudioCodecST7418AIC3254@@MAAHH@Z 000f2370 f   AudioCodecST7418AIC3254.obj
 0001:000e13a8       ?codec_MuteCodec@CAudioCodecST7418AIC3254@@MAAHH@Z 000f23a8 f   AudioCodecST7418AIC3254.obj
 0001:000e1400       ?codec_SetMainVol@CAudioCodecST7418AIC3254@@MAAHH@Z 000f2400 f   AudioCodecST7418AIC3254.obj
 0001:000e1428       ?codec_SetAltVol@CAudioCodecST7418AIC3254@@MAAHH@Z 000f2428 f   AudioCodecST7418AIC3254.obj
 0001:000e1450       ?getExtendedUIModeAvailable@NullBrowser@@UAAHXZ 000f2450 f   IpodControl.obj
 0001:000e1450       ?codec_SetMicVolume@CAudioCodecST7418AIC3254@@MAAHH@Z 000f2450 f   AudioCodecST7418AIC3254.obj
 0001:000e1450       ?OnKey@CPanelGL@@UAAHII@Z  000f2450 f   FantasyLib:PanelGL.obj
 0001:000e1450       ?sync@?$basic_streambuf@DU?$char_traits@D@std@@@std@@MAAHXZ 000f2450 f   iAP_lib:utils.obj
 0001:000e1450       ?SetAltVolume@CAspFM1388@@UAAHH@Z 000f2450 f   Asplib:AspFM1388.obj
 0001:000e1450       ?OnHandleGraphEvent@CGUI@@UAAJXZ 000f2450 f   FantasyLib:GUI.obj
 0001:000e1450       ?codec_Set3DEffect@CAudioCodecST7418AIC3254@@MAAHE@Z 000f2450 f   AudioCodecST7418AIC3254.obj
 0001:000e1450       ?showmanyc@?$basic_streambuf@DU?$char_traits@D@std@@@std@@MAAHXZ 000f2450 f   iAP_lib:utils.obj
 0001:000e1450       ?getPlayingTrackIndex@NullPlayer@@UBAIXZ 000f2450 f   IpodControl.obj
 0001:000e1450       ?getMenuLevel@NullBrowser@@UAAEXZ 000f2450 f   IpodControl.obj
 0001:000e1450       ?getMenuDepth@NullBrowser@@UAAEXZ 000f2450 f   IpodControl.obj
 0001:000e1450       ?codec_SetEQBand@CAudioCodecST7418AIC3254@@MAAHHH@Z 000f2450 f   AudioCodecST7418AIC3254.obj
 0001:000e1450       ?getTimeOffset@NullPlayer@@UBAIXZ 000f2450 f   IpodControl.obj
 0001:000e1450       ?isRoot@NullBrowser@@UAAHXZ 000f2450 f   IpodControl.obj
 0001:000e1450       ?getHierarchyType@NullBrowser@@UAAEXZ 000f2450 f   IpodControl.obj
 0001:000e1450       ?SetMainVolume@CAspFM1388@@UAAHH@Z 000f2450 f   Asplib:AspFM1388.obj
 0001:000e1450       ?launchApplication@NullBrowser@@UAAHAAV?$basic_string@DU?$char_traits@D@std@@V?$allocator@D@2@@std@@H@Z 000f2450 f   IpodControl.obj
 0001:000e1450       ?onNotifyRetBundleSeedIDTokenString@IapIOSCommunicationListener@@UAAHAAV?$basic_string@DU?$char_traits@D@std@@V?$allocator@D@2@@std@@@Z 000f2450 f   PaneliPodWrapper.obj
 0001:000e1450       ?codec_SetAGC@CAudioCodecST7418AIC3254@@MAAHH@Z 000f2450 f   AudioCodecST7418AIC3254.obj
 0001:000e1450       ?isPlayable@NullBrowser@@UAAHXZ 000f2450 f   IpodControl.obj
 0001:000e1450       ?codec_SetEQPreset@CAudioCodecST7418AIC3254@@MAAHE@Z 000f2450 f   AudioCodecST7418AIC3254.obj
 0001:000e1450       ?getArtworkFormatId@NullPlayer@@UBAGI@Z 000f2450 f   IpodControl.obj
 0001:000e1450       ?isTrack@NullBrowser@@UAAHXZ 000f2450 f   IpodControl.obj
 0001:000e1450       ?codec_MuteRearSpeakers@CAudioCodecST7418AIC3254@@MAAHH@Z 000f2450 f   AudioCodecST7418AIC3254.obj
 0001:000e1450       ?onNotifyRetBundleSeedIDTokenString@NulliOSCommunicationListener@@UAAHAAV?$basic_string@DU?$char_traits@D@std@@V?$allocator@D@2@@std@@@Z 000f2450 f   iAP_lib:OSCommunication.obj
 0001:000e1450       ?Mute@CAspFM1388@@UAAHH@Z  000f2450 f   Asplib:AspFM1388.obj
 0001:000e1450       ?codec_SetSampleRate@CAudioCodecST7418AIC3254@@MAAHH@Z 000f2450 f   AudioCodecST7418AIC3254.obj
 0001:000e1450       ?isTopLevel@NullBrowser@@UAAHXZ 000f2450 f   IpodControl.obj
 0001:000e1458       ?codec_SetBalFad@CAudioCodecST7418AIC3254@@MAAHEE@Z 000f2458 f   AudioCodecST7418AIC3254.obj
 0001:000e14dc       ?codec_SetBalance@CAudioCodecST7418AIC3254@@MAAHE@Z 000f24dc f   AudioCodecST7418AIC3254.obj
 0001:000e1530       ?codec_SetFade@CAudioCodecST7418AIC3254@@MAAHE@Z 000f2530 f   AudioCodecST7418AIC3254.obj
 0001:000e1584       ?codec_SelectAudioSrc@CAudioCodecST7418AIC3254@@MAAHI@Z 000f2584 f   AudioCodecST7418AIC3254.obj
 0001:000e15e4       ?codec_SetLoudness@CAudioCodecST7418AIC3254@@MAAHH@Z 000f25e4 f   AudioCodecST7418AIC3254.obj
 0001:000e160c       ?codec_SetSubwoofer@CAudioCodecST7418AIC3254@@MAAHE@Z 000f260c f   AudioCodecST7418AIC3254.obj
 0001:000e1634       ?codec_SetBass@CAudioCodecST7418AIC3254@@MAAHE@Z 000f2634 f   AudioCodecST7418AIC3254.obj
 0001:000e165c       ?codec_SetMid@CAudioCodecST7418AIC3254@@MAAHE@Z 000f265c f   AudioCodecST7418AIC3254.obj
 0001:000e1684       ?codec_SetTreble@CAudioCodecST7418AIC3254@@MAAHE@Z 000f2684 f   AudioCodecST7418AIC3254.obj
 0001:000e16ac       ?codec_SetMixerOn@CAudioCodecST7418AIC3254@@MAAHHH@Z 000f26ac f   AudioCodecST7418AIC3254.obj
 0001:000e16dc       ?ConfigAudioCodecAIC3254SingleLine@CAudioCodecST7418AIC3254@@AAAHIPAEHH@Z 000f26dc f   AudioCodecST7418AIC3254.obj
 0001:000e1798       ?ConfigAudioCodecAIC3254Pack@CAudioCodecST7418AIC3254@@AAAHPAEH@Z 000f2798 f   AudioCodecST7418AIC3254.obj
 0001:000e1858       ?codec_Ini@CAudioCodecST7418AIC3254@@MAAHXZ 000f2858 f   AudioCodecST7418AIC3254.obj
 0001:000e1894       ??0CAudioCodec@@QAA@PAVCCommanderEx@@PAUHWND__@@W4AspType@@@Z 000f2894 f   AudioCodec.obj
 0001:000e1a00       ?ChangeAspWorkMode@CAudioCodec@@QAAXW4AspMode@@@Z 000f2a00 f   AudioCodec.obj
 0001:000e1a54       ?IsInitialized@CCarplayAdapter@@QAAHXZ 000f2a54 f   CarplayAdapter.obj
 0001:000e1a54       ?getRemoteControl@PlayerBuilder@@UAAPAViRemoteControl@iAP@@XZ 000f2a54 f   iAP_lib:iAPPlayerBuilder.obj
 0001:000e1a54       ?GetAspWorkMode@CAudioCodec@@QAA?AW4AspMode@@XZ 000f2a54 f   AudioCodec.obj
 0001:000e1a5c       ?IniAsp@CAudioCodec@@AAAHXZ 000f2a5c f   AudioCodec.obj
 0001:000e1b0c       ?IniCodec@CAudioCodec@@QAAHXZ 000f2b0c f   AudioCodec.obj
 0001:000e1b7c       ?Mute@CAudioCodec@@QAAHH@Z 000f2b7c f   AudioCodec.obj
 0001:000e1c20       ?SetMainVolume@CAudioCodec@@QAAHHH@Z 000f2c20 f   AudioCodec.obj
 0001:000e1d6c       ?SetAltVolume@CAudioCodec@@QAAHHH@Z 000f2d6c f   AudioCodec.obj
 0001:000e1e64       ?SetVolume@CAudioCodec@@QAAHH@Z 000f2e64 f   AudioCodec.obj
 0001:000e1f30       ?MainVolumeThreadPro@CAudioCodec@@CAKPAX@Z 000f2f30 f   AudioCodec.obj
 0001:000e1fe0       ?DuckMainAudio@CAudioCodec@@AAAXHHHH@Z 000f2fe0 f   AudioCodec.obj
 0001:000e221c       ?SetLimitVolume@CAudioCodec@@QAAHHH@Z 000f321c f   AudioCodec.obj
 0001:000e22c8       ?PostMsg@CKeyHandler@@AAAXI@Z 000f32c8 f   CKeyHandler.obj
 0001:000e231c       ?GetInstance@CKeysHandler@@SAPAV1@XZ 000f331c f   CKeyHandler.obj
 0001:000e232c       ?Initialize@CKeysHandler@@QAAXPAUHWND__@@I@Z 000f332c f   CKeyHandler.obj
 0001:000e2338       ?_Rrotate@?$_Tree@V?$_Tmap_traits@IVCKeyHandler@@U?$less@I@std@@V?$allocator@U?$pair@$$CBIVCKeyHandler@@@std@@@3@$0A@@std@@@std@@IAAXPAU_Node@?$_Tree_nod@V?$_Tmap_traits@IVCKeyHandler@@U?$less@I@std@@V?$allocator@U?$pair@$$CBIVCKeyHandler@@@std@@@3@$0A@@std@@@2@@Z 000f3338 f i CKeyHandler.obj
 0001:000e23a8       ?_Dec@const_iterator@?$_Tree@V?$_Tmap_traits@IVCKeyHandler@@U?$less@I@std@@V?$allocator@U?$pair@$$CBIVCKeyHandler@@@std@@@3@$0A@@std@@@std@@QAAXXZ 000f33a8 f i CKeyHandler.obj
 0001:000e2478       ?_Inc@const_iterator@?$_Tree@V?$_Tmap_traits@IVCKeyHandler@@U?$less@I@std@@V?$allocator@U?$pair@$$CBIVCKeyHandler@@@std@@@3@$0A@@std@@@std@@QAAXXZ 000f3478 f i CKeyHandler.obj
 0001:000e2514       ??$_Allocate@U_Node@?$_Tree_nod@V?$_Tmap_traits@IVCKeyHandler@@U?$less@I@std@@V?$allocator@U?$pair@$$CBIVCKeyHandler@@@std@@@3@$0A@@std@@@std@@@std@@YAPAU_Node@?$_Tree_nod@V?$_Tmap_traits@IVCKeyHandler@@U?$less@I@std@@V?$allocator@U?$pair@$$CBIVCKeyHandler@@@std@@@3@$0A@@std@@@0@IPAU120@@Z 000f3514 f i CKeyHandler.obj
 0001:000e2584       ?KeyUp@CKeyHandler@@QAAXH@Z 000f3584 f   CKeyHandler.obj
 0001:000e25f8       ?DoublePressTimerProc@CKeyHandler@@CAXIIKKK@Z 000f35f8 f   CKeyHandler.obj
 0001:000e2628       ?_Lrotate@?$_Tree@V?$_Tmap_traits@IVCKeyHandler@@U?$less@I@std@@V?$allocator@U?$pair@$$CBIVCKeyHandler@@@std@@@3@$0A@@std@@@std@@IAAXPAU_Node@?$_Tree_nod@V?$_Tmap_traits@IVCKeyHandler@@U?$less@I@std@@V?$allocator@U?$pair@$$CBIVCKeyHandler@@@std@@@3@$0A@@std@@@2@@Z 000f3628 f i CKeyHandler.obj
 0001:000e2690       ?_Lbound@?$_Tree@V?$_Tmap_traits@IVCKeyHandler@@U?$less@I@std@@V?$allocator@U?$pair@$$CBIVCKeyHandler@@@std@@@3@$0A@@std@@@std@@IBAPAU_Node@?$_Tree_nod@V?$_Tmap_traits@IVCKeyHandler@@U?$less@I@std@@V?$allocator@U?$pair@$$CBIVCKeyHandler@@@std@@@3@$0A@@std@@@2@ABI@Z 000f3690 f i CKeyHandler.obj
 0001:000e26e8       ?PressHoldTimerProc@CKeyHandler@@CAXIIKKK@Z 000f36e8 f   CKeyHandler.obj
 0001:000e2700       ?LongPressTimer@CKeyHandler@@AAAXXZ 000f3700 f   CKeyHandler.obj
 0001:000e27a0       ?_Buynode@?$_Tree@V?$_Tmap_traits@IVCKeyHandler@@U?$less@I@std@@V?$allocator@U?$pair@$$CBIVCKeyHandler@@@std@@@3@$0A@@std@@@std@@IAAPAU_Node@?$_Tree_nod@V?$_Tmap_traits@IVCKeyHandler@@U?$less@I@std@@V?$allocator@U?$pair@$$CBIVCKeyHandler@@@std@@@3@$0A@@std@@@2@PAU342@00ABU?$pair@$$CBIVCKeyHandler@@@2@D@Z 000f37a0 f i CKeyHandler.obj
 0001:000e27f8       ?_Buynode@?$_Tree@V?$_Tmap_traits@IVCKeyHandler@@U?$less@I@std@@V?$allocator@U?$pair@$$CBIVCKeyHandler@@@std@@@3@$0A@@std@@@std@@IAAPAU_Node@?$_Tree_nod@V?$_Tmap_traits@IVCKeyHandler@@U?$less@I@std@@V?$allocator@U?$pair@$$CBIVCKeyHandler@@@std@@@3@$0A@@std@@@2@XZ 000f37f8 f i CKeyHandler.obj
 0001:000e2834       ?LongPressTimerProc@CKeyHandler@@CAXIIKKK@Z 000f3834 f   CKeyHandler.obj
 0001:000e2848       ?find@?$_Tree@V?$_Tmap_traits@IVCKeyHandler@@U?$less@I@std@@V?$allocator@U?$pair@$$CBIVCKeyHandler@@@std@@@3@$0A@@std@@@std@@QAA?AViterator@12@ABI@Z 000f3848 f i CKeyHandler.obj
 0001:000e28e4       ?KeyDown@CKeyHandler@@QAAXXZ 000f38e4 f   CKeyHandler.obj
 0001:000e2a1c       ?KeyDown@CKeysHandler@@QAAXI@Z 000f3a1c f   CKeyHandler.obj
 0001:000e2a9c       ?KeyUp@CKeysHandler@@QAAXIH@Z 000f3a9c f   CKeyHandler.obj
 0001:000e2b2c       ?_Insert@?$_Tree@V?$_Tmap_traits@IVCKeyHandler@@U?$less@I@std@@V?$allocator@U?$pair@$$CBIVCKeyHandler@@@std@@@3@$0A@@std@@@std@@IAA?AViterator@12@_NPAU_Node@?$_Tree_nod@V?$_Tmap_traits@IVCKeyHandler@@U?$less@I@std@@V?$allocator@U?$pair@$$CBIVCKeyHandler@@@std@@@3@$0A@@std@@@2@ABU?$pair@$$CBIVCKeyHandler@@@2@@Z 000f3b2c f i CKeyHandler.obj
 0001:000e2d84       ?insert@?$_Tree@V?$_Tmap_traits@IVCKeyHandler@@U?$less@I@std@@V?$allocator@U?$pair@$$CBIVCKeyHandler@@@std@@@3@$0A@@std@@@std@@QAA?AU?$pair@Viterator@?$_Tree@V?$_Tmap_traits@IVCKeyHandler@@U?$less@I@std@@V?$allocator@U?$pair@$$CBIVCKeyHandler@@@std@@@3@$0A@@std@@@std@@_N@2@ABU?$pair@$$CBIVCKeyHandler@@@2@@Z 000f3d84 f i CKeyHandler.obj
 0001:000e2ec4       ?erase@?$_Tree@V?$_Tmap_traits@IVCKeyHandler@@U?$less@I@std@@V?$allocator@U?$pair@$$CBIVCKeyHandler@@@std@@@3@$0A@@std@@@std@@QAA?AViterator@12@V312@@Z 000f3ec4 f i CKeyHandler.obj
 0001:000e3330       ?RemoveKey@CKeysHandler@@QAAXI@Z 000f4330 f   CKeyHandler.obj
 0001:000e33a4       ?AddorReplaceKey@CKeysHandler@@QAAXAAU_KeyHandlerParam@@@Z 000f43a4 f   CKeyHandler.obj
 0001:000e3434       ?AddKeys@CKeysHandler@@QAAXPAU_KeyHandlerParam@@I@Z 000f4434 f   CKeyHandler.obj
 0001:000e346c       ??0CIPCApp@@IAA@XZ         000f446c f   IPCApp.obj
 0001:000e34cc       ??1CIPCApp@@IAA@XZ         000f44cc f   IPCApp.obj
 0001:000e3518       ?OnWindowControl@CIPCApp@@QAAX_N@Z 000f4518 f   IPCApp.obj
 0001:000e35c0       ?OnHome@CIPCApp@@QAAXXZ    000f45c0 f   IPCApp.obj
 0001:000e3668       ?CMDProcessInit@CIPCApp@@IAAXPAUcJSON@@@Z 000f4668 f   IPCApp.obj
 0001:000e3718       ?CMDProcessConnect@CIPCApp@@IAAXPAUcJSON@@@Z 000f4718 f   IPCApp.obj
 0001:000e37c8       ?CMDProcessWindowStatus@CIPCApp@@IAAXPAUcJSON@@@Z 000f47c8 f   IPCApp.obj
 0001:000e3878       ?ShowWindow@CIPCApp@@QAAH_N@Z 000f4878 f   IPCApp.obj
 0001:000e38a0       ?ClientMsgQCallBack@CIPCApp@@IAAHPAXK@Z 000f48a0 f   IPCApp.obj
 0001:000e3a04       ?GetInstance@CIPCApp@@SAAAV1@XZ 000f4a04 f   IPCApp.obj
 0001:000e3a6c       ?ClientMsgQCallBackProc@CIPCApp@@KAHPAX0K@Z 000f4a6c f   IPCApp.obj
 0001:000e3a70       ?Init@CIPCApp@@QAA_NPAVIIPCNotification@@@Z 000f4a70 f   IPCApp.obj
 0001:000e3b08       DirectDrawCreate           000f4b08 f   ddraw:DDRAW.dll
 0001:000e3b20       ??0CSliderGL@@QAA@XZ       000f4b20 f   FantasyLib:SliderGL.obj
 0001:000e3d2c       ??1CSliderGL@@UAA@XZ       000f4d2c f   FantasyLib:SliderGL.obj
 0001:000e3e58       ?Initialize@CSliderGL@@QAAHIPAVCControlGL@@PAUtagSLIDERSTRUCTURE@@PAVCSkinManagerGL@@@Z 000f4e58 f   FantasyLib:SliderGL.obj
 0001:000e4588       ?IsReady@CSliderGL@@UAAHXZ 000f5588 f   FantasyLib:SliderGL.obj
 0001:000e4654       ?Enable@CSliderGL@@UAAXH@Z 000f5654 f   FantasyLib:SliderGL.obj
 0001:000e4690       ?SetThumbScale@CSliderGL@@QAAXMH@Z 000f5690 f   FantasyLib:SliderGL.obj
 0001:000e4828       ?SetValue@CSliderGL@@QAAXHH@Z 000f5828 f   FantasyLib:SliderGL.obj
 0001:000e4eb8       ?ShowValue@CSliderGL@@QAAXH@Z 000f5eb8 f   FantasyLib:SliderGL.obj
 0001:000e4ec4       ?SetAutoHideBtns@CSliderGL@@QAAXH@Z 000f5ec4 f   FantasyLib:SliderGL.obj
 0001:000e4f30       ?IsOnAdd@CSliderGL@@QAAHPAUtagPOINT@@@Z 000f5f30 f   FantasyLib:SliderGL.obj
 0001:000e4f6c       ?IsOnSub@CSliderGL@@QAAHPAUtagPOINT@@@Z 000f5f6c f   FantasyLib:SliderGL.obj
 0001:000e4fa8       ?ShowThumb@CSliderGL@@QAAXH@Z 000f5fa8 f   FantasyLib:SliderGL.obj
 0001:000e4fb4       ?SetCaptionColor@CSliderGL@@QAAXPAU_tagColorGL@@@Z 000f5fb4 f   FantasyLib:SliderGL.obj
 0001:000e4fec       ?SetAutoBackFill@CSliderGL@@QAAXH@Z 000f5fec f   FantasyLib:SliderGL.obj
 0001:000e4ff8       ?SetLimit@CSliderGL@@QAAXHH@Z 000f5ff8 f   FantasyLib:SliderGL.obj
 0001:000e5030       ?GetValue@CSliderGL@@QAAHXZ 000f6030 f   FantasyLib:SliderGL.obj
 0001:000e503c       ?EnableMoveNotify@CSliderGL@@QAAXH@Z 000f603c f   FantasyLib:SliderGL.obj
 0001:000e5048       ?EnbaleClickOnlyThumb@CSliderGL@@QAAXH@Z 000f6048 f   FantasyLib:SliderGL.obj
 0001:000e5054       ??_ECSliderGL@@UAAPAXI@Z   000f6054 f i FantasyLib:SliderGL.obj
 0001:000e5054       ??_GCSliderGL@@UAAPAXI@Z   000f6054 f i FantasyLib:SliderGL.obj
 0001:000e5078       ?OnTouchDown@CSliderGL@@UAAXPAUtagPOINT@@@Z 000f6078 f   FantasyLib:SliderGL.obj
 0001:000e5868       ?Step@CSliderGL@@QAAXH@Z   000f6868 f   FantasyLib:SliderGL.obj
 0001:000e589c       ?OnTouchMove@CSliderGL@@UAAXPAUtagPOINT@@@Z 000f689c f   FantasyLib:SliderGL.obj
 0001:000e5f78       ?IsPtnOnObject@CSliderGL@@UAAHPAUtagPOINT@@@Z 000f6f78 f   FantasyLib:SliderGL.obj
 0001:000e6060       ?SetPos@CSliderGL@@UAAXMMMH@Z 000f7060 f   FantasyLib:SliderGL.obj
 0001:000e6350       ?SetRange@CSliderGL@@QAAXHH@Z 000f7350 f   FantasyLib:SliderGL.obj
 0001:000e6374       ?Render@CSliderGL@@UAAXXZ  000f7374 f   FantasyLib:SliderGL.obj
 0001:000e7d8c       ?OnTouchUp@CSliderGL@@UAAXPAUtagPOINT@@@Z 000f8d8c f   FantasyLib:SliderGL.obj
 0001:000e7fd0       ??0CButtonGL@@QAA@XZ       000f8fd0 f   FantasyLib:ButtonGL.obj
 0001:000e8280       ?SetIconPos@CButtonGL@@QAAXMM@Z 000f9280 f   FantasyLib:ButtonGL.obj
 0001:000e82e8       ?Initialize@CButtonGL@@QAAHIPAVCControlGL@@PAVCTexture@@PAM121212@Z 000f92e8 f   FantasyLib:ButtonGL.obj
 0001:000e8518       ?OnTouchDown@CButtonGL@@UAAXPAUtagPOINT@@@Z 000f9518 f   FantasyLib:ButtonGL.obj
 0001:000e8768       ?IsPtnOnObject@CButtonGL@@UAAHPAUtagPOINT@@@Z 000f9768 f   FantasyLib:ButtonGL.obj
 0001:000e88f8       ?IsReady@CButtonGL@@UAAHXZ 000f98f8 f   FantasyLib:ButtonGL.obj
 0001:000e897c       ?Enable@CButtonGL@@UAAXH@Z 000f997c f   FantasyLib:ButtonGL.obj
 0001:000e89cc       ?IsLongTimeClick@CButtonGL@@QAAHXZ 000f99cc f   FantasyLib:ButtonGL.obj
 0001:000e89d4       ?ResetHoldTick@CButtonGL@@QAAXXZ 000f99d4 f   FantasyLib:ButtonGL.obj
 0001:000e89e4       ?SetStatus@CButtonGL@@QAAXIH@Z 000f99e4 f   FantasyLib:ButtonGL.obj
 0001:000e8b90       ?SetSubCaption@CButtonGL@@QAAXPB_W@Z 000f9b90 f   FantasyLib:ButtonGL.obj
 0001:000e8c20       ?SetCaption@CButtonGL@@QAAXPB_WHPAH@Z 000f9c20 f   FantasyLib:ButtonGL.obj
 0001:000e8e54       ?GetCaption@CButtonGL@@QAAPA_WXZ 000f9e54 f   FantasyLib:ButtonGL.obj
 0001:000e8e5c       ?ShowCaption@CButtonGL@@QAAXH@Z 000f9e5c f   FantasyLib:ButtonGL.obj
 0001:000e8e64       ?SetCaptionHeight@CButtonGL@@QAAXHH@Z 000f9e64 f   FantasyLib:ButtonGL.obj
 0001:000e8e98       ?SetSubCaptionHeight@CButtonGL@@QAAXHH@Z 000f9e98 f   FantasyLib:ButtonGL.obj
 0001:000e8ea4       ?SetCaptionPos@CButtonGL@@QAAXIHH@Z 000f9ea4 f   FantasyLib:ButtonGL.obj
 0001:000e8eb4       ?SetSubCaptionPos@CButtonGL@@QAAXIHH@Z 000f9eb4 f   FantasyLib:ButtonGL.obj
 0001:000e8ec4       ?IsOnFocus@CButtonGL@@QAAHXZ 000f9ec4 f   FantasyLib:ButtonGL.obj
 0001:000e8ecc       ?GetStatus@CButtonGL@@QAAIXZ 000f9ecc f   FantasyLib:ButtonGL.obj
 0001:000e8ed4       ?SetCaptionColor@CButtonGL@@QAAXPAU_tagColorGL@@0@Z 000f9ed4 f   FantasyLib:ButtonGL.obj
 0001:000e8f4c       ?SetIcon@CButtonGL@@QAAXPAVCLabelGL@@0MM@Z 000f9f4c f   FantasyLib:ButtonGL.obj
 0001:000e9014       ?EnableClickAni@CButtonGL@@QAAXH@Z 000fa014 f   FantasyLib:ButtonGL.obj
 0001:000e901c       ?EnableDrawBack@CButtonGL@@QAAXH@Z 000fa01c f   FantasyLib:ButtonGL.obj
 0001:000e9024       ?HasTexture@CButtonGL@@QAAHXZ 000fa024 f   FantasyLib:ButtonGL.obj
 0001:000e902c       ?SetIconScale@CButtonGL@@QAAXMM@Z 000fa02c f   FantasyLib:ButtonGL.obj
 0001:000e9038       ?SetTouchRate@CButtonGL@@QAAXMM@Z 000fa038 f   FantasyLib:ButtonGL.obj
 0001:000e904c       ?SetTouchRect@CButtonGL@@QAAXPAUtagRECT@@@Z 000fa04c f   FantasyLib:ButtonGL.obj
 0001:000e9080       ?EnableHoldNotify@CButtonGL@@QAAXH@Z 000fa080 f   FantasyLib:ButtonGL.obj
 0001:000e9088       ?EnableLongClickNotify@CButtonGL@@QAAXH@Z 000fa088 f   FantasyLib:ButtonGL.obj
 0001:000e9090       ?EnableTouchDownNotify@CButtonGL@@QAAXH@Z 000fa090 f   FantasyLib:ButtonGL.obj
 0001:000e9098       ?EnableTouchGlow@CButtonGL@@QAAXHPAVCTexture@@HH@Z 000fa098 f   FantasyLib:ButtonGL.obj
 0001:000e91fc       ?SetUserParam@CButtonGL@@QAAXJ@Z 000fa1fc f   FantasyLib:ButtonGL.obj
 0001:000e9204       ?GetUserParam@CButtonGL@@QAAJXZ 000fa204 f   FantasyLib:ButtonGL.obj
 0001:000e920c       ?Show@CButtonGL@@UAAXHH@Z  000fa20c f   FantasyLib:ButtonGL.obj
 0001:000e9264       ??1CButtonGL@@UAA@XZ       000fa264 f   FantasyLib:ButtonGL.obj
 0001:000e9390       ?OnGesture@CButtonGL@@UAAXPAUtagGESTUREINFO@@@Z 000fa390 f   FantasyLib:ButtonGL.obj
 0001:000e96ec       ?ProcessNotify@CButtonGL@@AAAXXZ 000fa6ec f   FantasyLib:ButtonGL.obj
 0001:000e97d4       ?OnTouchUp@CButtonGL@@UAAXPAUtagPOINT@@@Z 000fa7d4 f   FantasyLib:ButtonGL.obj
 0001:000e9bc4       ??_GCButtonGL@@UAAPAXI@Z   000fabc4 f i FantasyLib:ButtonGL.obj
 0001:000e9bc4       ??_ECButtonGL@@UAAPAXI@Z   000fabc4 f i FantasyLib:ButtonGL.obj
 0001:000e9be8       ?Render@CButtonGL@@UAAXXZ  000fabe8 f   FantasyLib:ButtonGL.obj
 0001:000eb720       ??0CLabelGL@@QAA@XZ        000fc720 f   FantasyLib:LabelGL.obj
 0001:000eb7c0       ?Initialize@CLabelGL@@QAAHIPAVCControlGL@@PAEHHHHHH@Z 000fc7c0 f   FantasyLib:LabelGL.obj
 0001:000eba2c       ?Initialize@CLabelGL@@QAAHIPAVCControlGL@@PB_WHHPAUtagSIZE@@@Z 000fca2c f   FantasyLib:LabelGL.obj
 0001:000ebd10       ?Initialize@CLabelGL@@QAAHIPAVCControlGL@@PB_WPAUtagSIZE@@@Z 000fcd10 f   FantasyLib:LabelGL.obj
 0001:000ebfb8       ?Initialize@CLabelGL@@QAAHIPAVCControlGL@@PAVCTexture@@PAMH@Z 000fcfb8 f   FantasyLib:LabelGL.obj
 0001:000ec2dc       ?Render@CLabelGL@@UAAXXZ   000fd2dc f   FantasyLib:LabelGL.obj
 0001:000ecb0c       ?OnTouchDown@CLabelGL@@UAAXPAUtagPOINT@@@Z 000fdb0c f   FantasyLib:LabelGL.obj
 0001:000ecb90       ?OnTouchUp@CLabelGL@@UAAXPAUtagPOINT@@@Z 000fdb90 f   FantasyLib:LabelGL.obj
 0001:000ecbe4       ?GetTexture@CLabelGL@@QAAPAVCTexture@@XZ 000fdbe4 f   FantasyLib:LabelGL.obj
 0001:000ecbec       ?HasValidTeture@CLabelGL@@QAAHXZ 000fdbec f   FantasyLib:LabelGL.obj
 0001:000ecc20       ??1CLabelGL@@UAA@XZ        000fdc20 f   FantasyLib:LabelGL.obj
 0001:000ecc94       ??_ECLabelGL@@UAAPAXI@Z    000fdc94 f i FantasyLib:LabelGL.obj
 0001:000ecc94       ??_GCLabelGL@@UAAPAXI@Z    000fdc94 f i FantasyLib:LabelGL.obj
 0001:000eccb8       ?IsReady@CPanelGL@@UAAHXZ  000fdcb8 f   FantasyLib:PanelGL.obj
 0001:000ecd40       ?IsAniReady@CPanelGL@@UAAHXZ 000fdd40 f   FantasyLib:PanelGL.obj
 0001:000ecd44       ?OnTouchUp@CPanelGL@@UAAXPAUtagPOINT@@@Z 000fdd44 f   FantasyLib:PanelGL.obj
 0001:000ed064       ?OnTouchMove@CPanelGL@@UAAXPAUtagPOINT@@@Z 000fe064 f   FantasyLib:PanelGL.obj
 0001:000ed28c       ?BeginRender@CPanelGL@@MAAHXZ 000fe28c f   FantasyLib:PanelGL.obj
 0001:000ed5b4       ?SetPreviousPanel@CPanelGL@@QAAXII@Z 000fe5b4 f   FantasyLib:PanelGL.obj
 0001:000ed5c0       ?ShowStatusBar@CPanelGL@@QAAXH@Z 000fe5c0 f   FantasyLib:PanelGL.obj
 0001:000ed5c8       ?ShowBackground@CPanelGL@@QAAXH@Z 000fe5c8 f   FantasyLib:PanelGL.obj
 0001:000ed5d0       ?IsStatusBarVisible@CPanelGL@@QAAHXZ 000fe5d0 f   FantasyLib:PanelGL.obj
 0001:000ed5d8       ?SetFrameTime@CPanelGL@@QAAXK@Z 000fe5d8 f   FantasyLib:PanelGL.obj
 0001:000ed5e0       ?GetFrameTime@CPanelGL@@QAAKXZ 000fe5e0 f   FantasyLib:PanelGL.obj
 0001:000ed5e8       ?GetPanelParam@CPanelGL@@QAAIXZ 000fe5e8 f   FantasyLib:PanelGL.obj
 0001:000ed5f0       ?SetPanelParam@CPanelGL@@QAAXI@Z 000fe5f0 f   FantasyLib:PanelGL.obj
 0001:000ed5f8       ?GetAniMoveIn@CPanelGL@@QAAIXZ 000fe5f8 f   FantasyLib:PanelGL.obj
 0001:000ed600       ?GetItemName@CListBoxItemGL@@QAAPA_WXZ 000fe600 f   FantasyLib:ListBoxGL.obj
 0001:000ed600       ?GetAniPrePanelMoveOut@CPanelGL@@QAAIXZ 000fe600 f   FantasyLib:PanelGL.obj
 0001:000ed608       ?SetAniMoveIn@CPanelGL@@QAAXI@Z 000fe608 f   FantasyLib:PanelGL.obj
 0001:000ed610       ?SetAniPrePanelMoveOut@CPanelGL@@QAAXI@Z 000fe610 f   FantasyLib:PanelGL.obj
 0001:000ed618       ?GetAniNextPanelMoveIn@CPanelGL@@QAAIXZ 000fe618 f   FantasyLib:PanelGL.obj
 0001:000ed620       ?SetAniMoveOut@CPanelGL@@QAAXI@Z 000fe620 f   FantasyLib:PanelGL.obj
 0001:000ed628       ?SetAniNextPanelMoveIn@CPanelGL@@QAAXI@Z 000fe628 f   FantasyLib:PanelGL.obj
 0001:000ed630       ?OnEnterPanel@CPanelGL@@UAAXIIPAX@Z 000fe630 f   FantasyLib:PanelGL.obj
 0001:000ed668       ?OnQuitPanel@CPanelGL@@UAAXIIPAX@Z 000fe668 f   FantasyLib:PanelGL.obj
 0001:000ed698       ?IsEnableQuit@CPanelGL@@UAAHXZ 000fe698 f   FantasyLib:PanelGL.obj
 0001:000ed6a0       ?IsEnableSmartBar@CPanelGL@@UAAHXZ 000fe6a0 f   FantasyLib:PanelGL.obj
 0001:000ed6a8       ?OnSystemPowerStatePrepare@CPanelGL@@UAAXI@Z 000fe6a8 f   FantasyLib:PanelGL.obj
 0001:000ed6b0       ?ShowValue@CListBoxItemGL@@QAAXH@Z 000fe6b0 f   FantasyLib:ListBoxGL.obj
 0001:000ed6b0       ?OnReverseModeChange@CPanelGL@@UAAXH@Z 000fe6b0 f   FantasyLib:PanelGL.obj
 0001:000ed6b0       ?SetMarginHor@CListBoxGL@@QAAXH@Z 000fe6b0 f   FantasyLib:ListBoxGL.obj
 0001:000ed6b8       ?OnBrakeStatusChanged@CPanelGL@@UAAXH@Z 000fe6b8 f   FantasyLib:PanelGL.obj
 0001:000ed6c0       ?EnableScrollingX@CPanelGL@@QAAXH@Z 000fe6c0 f   FantasyLib:PanelGL.obj
 0001:000ed6d4       ?EnableScrollingY@CPanelGL@@QAAXH@Z 000fe6d4 f   FantasyLib:PanelGL.obj
 0001:000ed6e8       ?EnableQuit@CPanelGL@@QAAXH@Z 000fe6e8 f   FantasyLib:PanelGL.obj
 0001:000ed6f0       ?GetChildPanel@CPanelGL@@QAAPAV1@I@Z 000fe6f0 f   FantasyLib:PanelGL.obj
 0001:000ed720       ?LinkStatusBar@CPanelGL@@QAAXPAVCStatusBar@@@Z 000fe720 f   FantasyLib:PanelGL.obj
 0001:000ed784       ?LinkCommander@CPanelGL@@QAAXPAVCCommander@@@Z 000fe784 f   FantasyLib:PanelGL.obj
 0001:000ed7e8       ?OnTouchDown@CPanelGL@@UAAXPAUtagPOINT@@@Z 000fe7e8 f   FantasyLib:PanelGL.obj
 0001:000ed9d4       ?SetPos@CPanelGL@@UAAXMMMH@Z 000fe9d4 f   FantasyLib:PanelGL.obj
 0001:000edb08       ?AddChildPanel@CPanelGL@@AAAXPAV1@@Z 000feb08 f   FantasyLib:PanelGL.obj
 0001:000edb48       ??0CPanelGL@@QAA@XZ        000feb48 f   FantasyLib:PanelGL.obj
 0001:000edc5c       ??1CPanelGL@@UAA@XZ        000fec5c f   FantasyLib:PanelGL.obj
 0001:000edc80       ?Initialize@CPanelGL@@UAAHIPAV1@PAVCSkinManagerGL@@PAVCTextGL@@PAUHWND__@@U_TMODULEENTRY@@@Z 000fec80 f   FantasyLib:PanelGL.obj
 0001:000edcec       ??_ECPanelGL@@UAAPAXI@Z    000fecec f i FantasyLib:PanelGL.obj
 0001:000edcec       ??_GCPanelGL@@UAAPAXI@Z    000fecec f i FantasyLib:PanelGL.obj
 0001:000edd24       ?LinkTextGL@CControlGL@@UAAXPAVCTextGL@@@Z 000fed24 f   FantasyLib:ControlGL.obj
 0001:000edd2c       ?GetID@CControlGL@@QAAIXZ  000fed2c f   FantasyLib:ControlGL.obj
 0001:000edd34       ?UpdateID@CControlGL@@QAAXI@Z 000fed34 f   FantasyLib:ControlGL.obj
 0001:000edd3c       ?IsActived@CControlGL@@QAAHXZ 000fed3c f   FantasyLib:ControlGL.obj
 0001:000edd44       ?IsReady@CControlGL@@UAAHXZ 000fed44 f   FantasyLib:ControlGL.obj
 0001:000edd9c       ?IsAniReady@CControlGL@@UAAHXZ 000fed9c f   FantasyLib:ControlGL.obj
 0001:000edde8       ?SetNotifyFunc@CControlGL@@QAAXP6AXKKKPAX0@Z0@Z 000fede8 f   FantasyLib:ControlGL.obj
 0001:000eddfc       ?HasMoveNotify@CControlGL@@QAAHXZ 000fedfc f   FantasyLib:ControlGL.obj
 0001:000ede04       ?EnableNotify@CControlGL@@QAAXH@Z 000fee04 f   FantasyLib:ControlGL.obj
 0001:000ede24       ?IsNotifyEnabled@CControlGL@@QAAHXZ 000fee24 f   FantasyLib:ControlGL.obj
 0001:000ede2c       ?EndRender@CControlGL@@QAAHXZ 000fee2c f   FantasyLib:ControlGL.obj
 0001:000ede4c       ?SetSwitchInControl@CControlGL@@QAAHPAV1@@Z 000fee4c f   FantasyLib:ControlGL.obj
 0001:000ede84       ?RenderSwitchInCtl@CControlGL@@IAAHXZ 000fee84 f   FantasyLib:ControlGL.obj
 0001:000edee4       ?IsPtnOnObject@CControlGL@@UAAHPAUtagPOINT@@@Z 000feee4 f   FantasyLib:ControlGL.obj
 0001:000edf98       ?Enable@CControlGL@@UAAXH@Z 000fef98 f   FantasyLib:ControlGL.obj
 0001:000edfd8       ?BeginRender@CControlGL@@UAAHXZ 000fefd8 f   FantasyLib:ControlGL.obj
 0001:000ee004       ?MakeDefaultAni@CControlGL@@UAAXIPAX@Z 000ff004 f   FantasyLib:ControlGL.obj
 0001:000ee10c       ?AttachChildControl@CControlGL@@IAAXPAV1@@Z 000ff10c f   FantasyLib:ControlGL.obj
 0001:000ee140       ?Delete@?$CM_List@VCControlGL@@@@QAAHH@Z 000ff140 f i FantasyLib:ControlGL.obj
 0001:000ee140       ?Delete@?$CM_List@VCListBoxItemGL@@@@QAAHH@Z 000ff140 f i FantasyLib:ListBoxGL.obj
 0001:000ee268       ??0CControlGL@@QAA@XZ      000ff268 f   FantasyLib:ControlGL.obj
 0001:000ee328       ?SetParent@CControlGL@@QAAXPAV1@@Z 000ff328 f   FantasyLib:ControlGL.obj
 0001:000ee34c       ?DettachChildControl@CControlGL@@IAAXPAV1@@Z 000ff34c f   FantasyLib:ControlGL.obj
 0001:000ee394       ??1CControlGL@@UAA@XZ      000ff394 f   FantasyLib:ControlGL.obj
 0001:000ee3d0       ?Initialize@CControlGL@@UAAHIPAV1@PAVCSkinManagerGL@@PAVCTextGL@@PAUHWND__@@U_TMODULEENTRY@@@Z 000ff3d0 f   FantasyLib:ControlGL.obj
 0001:000ee444       ??_GCControlGL@@UAAPAXI@Z  000ff444 f i FantasyLib:ControlGL.obj
 0001:000ee444       ??_ECControlGL@@UAAPAXI@Z  000ff444 f i FantasyLib:ControlGL.obj
 0001:000ee468       ??0CObjectGL@@QAA@XZ       000ff468 f   FantasyLib:ObjectGL.obj
 0001:000ee624       ??1CObjectGL@@UAA@XZ       000ff624 f   FantasyLib:ObjectGL.obj
 0001:000ee6a0       ?SetAniSpeed@CObjectGL@@QAAXH@Z 000ff6a0 f   FantasyLib:ObjectGL.obj
 0001:000ee6b0       ?EnableAnimate@CObjectGL@@QAAXH@Z 000ff6b0 f   FantasyLib:ObjectGL.obj
 0001:000ee6b8       ?IsAnimateEnabled@CObjectGL@@QAAHXZ 000ff6b8 f   FantasyLib:ObjectGL.obj
 0001:000ee6c0       ?EndAnimate@CObjectGL@@QAAXXZ 000ff6c0 f   FantasyLib:ObjectGL.obj
 0001:000ee6ec       ?SetAimViewState@CObjectGL@@QAAXPAU_tagViewState@@I@Z 000ff6ec f   FantasyLib:ObjectGL.obj
 0001:000ee728       ?SetCurViewState@CObjectGL@@QAAXPAU_tagViewState@@I@Z 000ff728 f   FantasyLib:ObjectGL.obj
 0001:000ee768       ?SetIniViewState@CObjectGL@@QAAXPAU_tagViewState@@@Z 000ff768 f   FantasyLib:ObjectGL.obj
 0001:000ee7b4       ?GetAimViewState@CObjectGL@@QAA?AU_tagViewState@@XZ 000ff7b4 f   FantasyLib:ObjectGL.obj
 0001:000ee7d4       ?GetCurViewState@CObjectGL@@QAA?AU_tagViewState@@XZ 000ff7d4 f   FantasyLib:ObjectGL.obj
 0001:000ee7f4       ?GetScaledSize@CObjectGL@@QAA?AUtagSIZE@@XZ 000ff7f4 f   FantasyLib:ObjectGL.obj
 0001:000ee874       ?SetSize@CObjectGL@@QAAXPAUtagSIZE@@H@Z 000ff874 f   FantasyLib:ObjectGL.obj
 0001:000ee8ec       ?SetSize@CObjectGL@@QAAXHHH@Z 000ff8ec f   FantasyLib:ObjectGL.obj
 0001:000ee930       ?SetScale@CObjectGL@@QAAXMMMH@Z 000ff930 f   FantasyLib:ObjectGL.obj
 0001:000eea0c       ?SetLightColor@CObjectGL@@UAAXPAU_tagColorGL@@H@Z 000ffa0c f   FantasyLib:ObjectGL.obj
 0001:000eea30       ?SetColor@CObjectGL@@UAAXPAU_tagColorGL@@H@Z 000ffa30 f   FantasyLib:ObjectGL.obj
 0001:000eeae8       ?EnableRender@CObjectGL@@QAAXH@Z 000ffae8 f   FantasyLib:ObjectGL.obj
 0001:000eeaf0       ?UpdateTexCoord@CObjectGL@@IAAXPAVCTexture@@MM@Z 000ffaf0 f   FantasyLib:ObjectGL.obj
 0001:000eec94       ?SetPosIni@CObjectGL@@QAAXMMMH@Z 000ffc94 f   FantasyLib:ObjectGL.obj
 0001:000eecd4       ?SetAlpha@CObjectGL@@UAAXMH@Z 000ffcd4 f   FantasyLib:ObjectGL.obj
 0001:000eed44       ?Show@CObjectGL@@UAAXHH@Z  000ffd44 f   FantasyLib:ObjectGL.obj
 0001:000eedac       ?DrawRect@CObjectGL@@SAXMMMMPAU_tagColorGL@@@Z 000ffdac f   FantasyLib:ObjectGL.obj
 0001:000eef7c       ?DrawRect@CObjectGL@@SAXPAVCTexture@@MMMMMPAU_tagColorGL@@HMH@Z 000fff7c f   FantasyLib:ObjectGL.obj
 0001:000ef948       ?LoadAnimatePath@CObjectGL@@QAAXPAU_tagViewState@@IH@Z 00100948 f   FantasyLib:ObjectGL.obj
 0001:000efa90       ?IsReady@CObjectGL@@UAAHXZ 00100a90 f   FantasyLib:ObjectGL.obj
 0001:000efac0       ?IsAniReady@CObjectGL@@UAAHXZ 00100ac0 f   FantasyLib:ObjectGL.obj
 0001:000efac8       ?GetAlpha@CObjectGL@@QAAMXZ 00100ac8 f   FantasyLib:ObjectGL.obj
 0001:000efad0       ?GetSize@CObjectGL@@QAA?AUtagSIZE@@XZ 00100ad0 f   FantasyLib:ObjectGL.obj
 0001:000efae8       ?GetPosX@CObjectGL@@QAAMXZ 00100ae8 f   FantasyLib:ObjectGL.obj
 0001:000efaf0       ?GetPosY@CObjectGL@@QAAMXZ 00100af0 f   FantasyLib:ObjectGL.obj
 0001:000efaf8       ?GetPosxIni@CObjectGL@@QAAMXZ 00100af8 f   FantasyLib:ObjectGL.obj
 0001:000efb00       ?GetPosyIni@CObjectGL@@QAAMXZ 00100b00 f   FantasyLib:ObjectGL.obj
 0001:000efb08       ?GetPoszIni@CObjectGL@@QAAMXZ 00100b08 f   FantasyLib:ObjectGL.obj
 0001:000efb10       ?IsOnScreen@CObjectGL@@QAAHXZ 00100b10 f   FantasyLib:ObjectGL.obj
 0001:000efb60       ?IsWholeBodyOnScreen@CObjectGL@@QAAHXZ 00100b60 f   FantasyLib:ObjectGL.obj
 0001:000efbb4       ?GetScreenRect@CObjectGL@@QAA?AUtagRECT@@XZ 00100bb4 f   FantasyLib:ObjectGL.obj
 0001:000efbe0       ?IsVisible@CObjectGL@@QAAHXZ 00100be0 f   FantasyLib:ObjectGL.obj
 0001:000efbe8       ?IsRenderEnabled@CObjectGL@@QAAHXZ 00100be8 f   FantasyLib:ObjectGL.obj
 0001:000efbf0       ?AddRef@CObjectGL@@QAAXH@Z 00100bf0 f   FantasyLib:ObjectGL.obj
 0001:000efc00       ?SetLuminance@CObjectGL@@QAAXM@Z 00100c00 f   FantasyLib:ObjectGL.obj
 0001:000efc08       ?Enable@CObjectGL@@UAAXH@Z 00100c08 f   FantasyLib:ObjectGL.obj
 0001:000efc10       ?EnableLight@CObjectGL@@QAAXH@Z 00100c10 f   FantasyLib:ObjectGL.obj
 0001:000efc18       ?IsEnabled@CObjectGL@@QAAHXZ 00100c18 f   FantasyLib:ObjectGL.obj
 0001:000efc20       ?SetParent@CObjectGL@@UAAXPAV1@@Z 00100c20 f   FantasyLib:ObjectGL.obj
 0001:000efc3c       ?SetShowScale@CObjectGL@@QAAXM@Z 00100c3c f   FantasyLib:ObjectGL.obj
 0001:000efc60       ?LinkSkinManager@CObjectGL@@UAAXPAVCSkinManagerGL@@@Z 00100c60 f   FantasyLib:ObjectGL.obj
 0001:000efc60       ?registerListener@PlugMonitor@@QAAXPAVPlugListener@@@Z 00100c60 f   iAP_lib:PlugMonitor.obj
 0001:000efc60       ?LinkCommander@CmdSender@@QAAXPAVCCommander@@@Z 00100c60 f   CmdSender.obj
 0001:000efc68       ??_ECObjectGL@@UAAPAXI@Z   00100c68 f i FantasyLib:ObjectGL.obj
 0001:000efc68       ??_GCObjectGL@@UAAPAXI@Z   00100c68 f i FantasyLib:ObjectGL.obj
 0001:000efc8c       ?BeginAnimate@CObjectGL@@QAAXXZ 00100c8c f   FantasyLib:ObjectGL.obj
 0001:000f09f4       ?SetPos@CObjectGL@@UAAXMMMH@Z 001019f4 f   FantasyLib:ObjectGL.obj
 0001:000f0c2c       ?DrawRect@CObjectGL@@SAXIMMMMMPAU_tagColorGL@@HM@Z 00101c2c f   FantasyLib:ObjectGL.obj
 0001:000f0de4       ?MakeDefaultAni@CObjectGL@@UAAXIPAX@Z 00101de4 f   FantasyLib:ObjectGL.obj
 0001:000f3728       ?SyncParentAlpha@CObjectGL@@UAAXXZ 00104728 f   FantasyLib:ObjectGL.obj
 0001:000f373c       ?IsPtnOnObject@CObjectGL@@UAAHPAUtagPOINT@@@Z 0010473c f   FantasyLib:ObjectGL.obj
 0001:000f3780       ?Animate@CObjectGL@@QAAXXZ 00104780 f   FantasyLib:ObjectGL.obj
 0001:000f37e0       ?GetSkinName@CSkinManagerGL@@QAAHPB_WPAVCM_String@UTIL@@@Z 001047e0 f   FantasyLib:SkinManagerGL.obj
 0001:000f3888       ?SearchID@?$CM_List@VCIMAtom@@@@QAAHI@Z 00104888 f i FantasyLib:IMBarGL.obj
 0001:000f3888       ?SearchID@?$CM_List@U_RadioStationInfo@@@@QAAHI@Z 00104888 f i PanelRadioLibrary.obj
 0001:000f3888       ?SearchID@?$CM_List@VCTexture@@@@QAAHI@Z 00104888 f i FantasyLib:SkinManagerGL.obj
 0001:000f3888       ?SearchID@?$CM_List@VCImageGL@@@@QAAHI@Z 00104888 f i FantasyLib:SkinManagerGL.obj
 0001:000f38cc       ?AddTextureFromBuff@CSkinManagerGL@@QAAHIPBEHHHHHI@Z 001048cc f   FantasyLib:SkinManagerGL.obj
 0001:000f3a70       ?ReloadFromImageBuff@CSkinManagerGL@@QAAHIPBEKHH@Z 00104a70 f   FantasyLib:SkinManagerGL.obj
 0001:000f3ae8       ?AddTextureFromFile@CSkinManagerGL@@QAAHIPB_WHHHHHK@Z 00104ae8 f   FantasyLib:SkinManagerGL.obj
 0001:000f3c98       ?GetTexture@CSkinManagerGL@@QAAPAVCTexture@@I@Z 00104c98 f   FantasyLib:SkinManagerGL.obj
 0001:000f3cf0       ?GetImage@CSkinManagerGL@@QAAPAVCImageGL@@I@Z 00104cf0 f   FantasyLib:SkinManagerGL.obj
 0001:000f3d50       ??0CSkinManagerGL@@QAA@PAVCGUI@@PAVCProConfig@@@Z 00104d50 f   FantasyLib:SkinManagerGL.obj
 0001:000f3e00       ??1CSkinManagerGL@@UAA@XZ  00104e00 f   FantasyLib:SkinManagerGL.obj
 0001:000f3f88       ?LoadFromFile@CSkinManagerGL@@QAAHPB_W@Z 00104f88 f   FantasyLib:SkinManagerGL.obj
 0001:000f419c       ?ReloadTextureFromBuff@CSkinManagerGL@@QAAHIPBEHHHHHHI@Z 0010519c f   FantasyLib:SkinManagerGL.obj
 0001:000f42a4       ??_ECSkinManagerGL@@UAAPAXI@Z 001052a4 f i FantasyLib:SkinManagerGL.obj
 0001:000f42a4       ??_GCSkinManagerGL@@UAAPAXI@Z 001052a4 f i FantasyLib:SkinManagerGL.obj
 0001:000f42d0       ?Reload@CSkinManagerGL@@QAAXPA_W@Z 001052d0 f   FantasyLib:SkinManagerGL.obj
 0001:000f4478       ?ReloadTextureFromSkin@CSkinManagerGL@@QAAHIPB_W@Z 00105478 f   FantasyLib:SkinManagerGL.obj
 0001:000f46bc       ??9CM_String@UTIL@@QAAHABV01@@Z 001056bc f i FantasyLib:ProConfig.obj
 0001:000f4700       ?ValueBinary@CReg@@QAAKPB_WPAEK@Z 00105700 f i FantasyLib:ProConfig.obj
 0001:000f475c       ??0tagConfigParam@@QAA@XZ  0010575c f i FantasyLib:ProConfig.obj
 0001:000f49f4       ??1tagConfigParam@@QAA@XZ  001059f4 f i FantasyLib:ProConfig.obj
 0001:000f4c80       ??4tagConfigParam@@QAAAAU0@ABU0@@Z 00105c80 f i FantasyLib:ProConfig.obj
 0001:000f5118       ??1CProConfig@@QAA@XZ      00106118 f   FantasyLib:ProConfig.obj
 0001:000f5168       ?GetConfigFromReg@CProConfig@@IAAHXZ 00106168 f   FantasyLib:ProConfig.obj
 0001:000f60a0       ?SaveConfigsToReg@CProConfig@@IAAHXZ 001070a0 f   FantasyLib:ProConfig.obj
 0001:000f79f4       ??0CProConfig@@QAA@XZ      001089f4 f   FantasyLib:ProConfig.obj
 0001:000f7d18       ?SaveConfig@CProConfig@@QAAHXZ 00108d18 f   FantasyLib:ProConfig.obj
 0001:000f7d28       ?FillPerPixelGaussBlur@@YAXPAEHKKKK0KK@Z 00108d28 f   FantasyLib:Texture.obj
 0001:000f7e9c       ??0CTexture@@QAA@XZ        00108e9c f   FantasyLib:Texture.obj
 0001:000f7ee4       ??1CTexture@@QAA@XZ        00108ee4 f   FantasyLib:Texture.obj
 0001:000f7f1c       ?GetID@CTexture@@QBAIXZ    00108f1c f   FantasyLib:Texture.obj
 0001:000f7f24       ?GetImageSize@CTexture@@QBA?AUtagSIZE@@XZ 00108f24 f   FantasyLib:Texture.obj
 0001:000f7f3c       ?GetTextureSize@CTexture@@QBA?AUtagSIZE@@XZ 00108f3c f   FantasyLib:Texture.obj
 0001:000f7f54       ?Init@CTexture@@QAAXHHHH@Z 00108f54 f   FantasyLib:Texture.obj
 0001:000f80a8       ?InitializeFromFileScaled@CTexture@@QAAHPB_WHHPAUtagSIZE@@HPAVCImageGL@@HK@Z 001090a8 f   FantasyLib:Texture.obj
 0001:000f8bc0       ?ReloadFromImageBuff@CTexture@@QAAHPBEKHH@Z 00109bc0 f   FantasyLib:Texture.obj
 0001:000f92ec       ?ReloadFromFileScaled@CTexture@@QAAHPB_WHPAUtagSIZE@@HPAVCImageGL@@HK@Z 0010a2ec f   FantasyLib:Texture.obj
 0001:000f9af0       ?InitializeFromBuff@CTexture@@QAAHPBEHHHHIPAVCImageGL@@@Z 0010aaf0 f   FantasyLib:Texture.obj
 0001:000f9e10       ?ReloadFromBuff@CTexture@@QAAHPBEHHHHHIPAVCImageGL@@@Z 0010ae10 f   FantasyLib:Texture.obj
 0001:000fa070       ?LoadBmp@CTexture@@AAAHPB_WAAPAEPAUtagSIZE@@PAHPAI@Z 0010b070 f   FantasyLib:Texture.obj
 0001:000fa2d8       ?LoadTiff@CTexture@@AAAHPB_WAAPAEPAUtagSIZE@@PAH@Z 0010b2d8 f   FantasyLib:Texture.obj
 0001:000fa828       ?LoadBmpRes@CTexture@@AAAHIAAPAEPAUtagSIZE@@PAH@Z 0010b828 f   FantasyLib:Texture.obj
 0001:000faae4       ?LoadTiffRes@CTexture@@AAAHIAAPAEPAUtagSIZE@@PAH@Z 0010bae4 f   FantasyLib:Texture.obj
 0001:000fb01c       ?InitializeFromFile@CTexture@@QAAHPB_WHPAVCImageGL@@@Z 0010c01c f   FantasyLib:Texture.obj
 0001:000fb494       ?InitializeFromRes@CTexture@@QAAHIPB_WHPAVCImageGL@@@Z 0010c494 f   FantasyLib:Texture.obj
 0001:000fb86c       ?ReloadFormScreen@CTexture@@QAAHXZ 0010c86c f   FantasyLib:Texture.obj
 0001:000fba3c       ??0CM_String@UTIL@@QAA@XZ  0010ca3c f   FantasyLib:Util.obj
 0001:000fba4c       ??0CM_String@UTIL@@QAA@ABV01@@Z 0010ca4c f   FantasyLib:Util.obj
 0001:000fbab0       ??0CM_String@UTIL@@QAA@PB_W@Z 0010cab0 f   FantasyLib:Util.obj
 0001:000fbb14       ??1CM_String@UTIL@@QAA@XZ  0010cb14 f   FantasyLib:Util.obj
 0001:000fbb38       ?MakeUpper@CM_String@UTIL@@QAAXXZ 0010cb38 f   FantasyLib:Util.obj
 0001:000fbb88       ?Set@CM_String@UTIL@@QAAXPB_W@Z 0010cb88 f   FantasyLib:Util.obj
 0001:000fbc00       ?GetShort@UTIL@@YAGAAPAEFH@Z 0010cc00 f   FantasyLib:Util.obj
 0001:000fbc78       ?GetInt@UTIL@@YAIAAPAEFH@Z 0010cc78 f   FantasyLib:Util.obj
 0001:000fbd00       ?NextPow2@UTIL@@YAHH@Z     0010cd00 f   FantasyLib:Util.obj
 0001:000fbd20       ?GetNearInt@UTIL@@YAHM@Z   0010cd20 f   FantasyLib:Util.obj
 0001:000fbd88       ?UnicodeToMyCode@UTIL@@YAH_W@Z 0010cd88 f   FantasyLib:Util.obj
 0001:000fbe68       ?GBKToMyCode@UTIL@@YAHPAD@Z 0010ce68 f   FantasyLib:Util.obj
 0001:000fbf40       ?MyCodeToUnicode@UTIL@@YA_WH@Z 0010cf40 f   FantasyLib:Util.obj
 0001:000fc000       ?MyCodeToGBK@UTIL@@YAGH@Z  0010d000 f   FantasyLib:Util.obj
 0001:000fc0d0       ?GetPYLetter@UTIL@@YAD_WPAG@Z 0010d0d0 f   FantasyLib:Util.obj
 0001:000fc250       ?UTF8TOUnicode@UTIL@@YAXPADIPA_WI@Z 0010d250 f   FantasyLib:Util.obj
 0001:000fc358       ?GBKTOUnicode@UTIL@@YAXPADIPA_WI@Z 0010d358 f   FantasyLib:Util.obj
 0001:000fc3f8       ?GetFileExtensionFromPath@UTIL@@YAHPB_WPA_WH@Z 0010d3f8 f   FantasyLib:Util.obj
 0001:000fc498       ?GetFileNameFromPath@UTIL@@YAHPB_WPA_WH@Z 0010d498 f   FantasyLib:Util.obj
 0001:000fc548       ?MultiCharTOUnicode@UTIL@@YAXPADIPA_WIW4MYCODEPAGE@1@@Z 0010d548 f   FantasyLib:Util.obj
 0001:000fc5c8       ?Initialize@CListBoxGL@@QAAHIPAVCControlGL@@PAUtagLISTBOXSTRUCTURE@@PAVCSkinManagerGL@@@Z 0010d5c8 f   FantasyLib:ListBoxGL.obj
 0001:000fcec0       ?SetSortType@CListBoxGL@@QAAXI@Z 0010dec0 f   FantasyLib:ListBoxGL.obj
 0001:000fcec8       ?IsPtnOnObject@CListBoxGL@@UAAHPAUtagPOINT@@@Z 0010dec8 f   FantasyLib:ListBoxGL.obj
 0001:000fcf0c       ?SetCaptioniHeight@CListBoxGL@@QAAXHHH@Z 0010df0c f   FantasyLib:ListBoxGL.obj
 0001:000fcf18       ?SetCaptionColor@CListBoxGL@@QAAXPAU_tagColorGL@@00@Z 0010df18 f   FantasyLib:ListBoxGL.obj
 0001:000fcfbc       ?IsReady@CListBoxGL@@UAAHXZ 0010dfbc f   FantasyLib:ListBoxGL.obj
 0001:000fd018       ?SetPos@CListBoxGL@@UAAXMMMH@Z 0010e018 f   FantasyLib:ListBoxGL.obj
 0001:000fd32c       ?EnableMouseMove@CListBoxGL@@QAAXH@Z 0010e32c f   FantasyLib:ListBoxGL.obj
 0001:000fd334       ?Enable@CListBoxGL@@UAAXH@Z 0010e334 f   FantasyLib:ListBoxGL.obj
 0001:000fd364       ?Show@CListBoxGL@@QAAXHHI@Z 0010e364 f   FantasyLib:ListBoxGL.obj
 0001:000fd3f0       ?IsKeywordBtnVisible@CListBoxGL@@QAAHXZ 0010e3f0 f   FantasyLib:ListBoxGL.obj
 0001:000fd424       ?IsOnQuickSearchMode@CListBoxGL@@QAAHXZ 0010e424 f   FantasyLib:ListBoxGL.obj
 0001:000fd430       ?GetCurIndex@CListBoxGL@@QAAHXZ 0010e430 f   FantasyLib:ListBoxGL.obj
 0001:000fd438       ?GetCurFocusItem@CListBoxGL@@QAAPAVCListBoxItemGL@@XZ 0010e438 f   FantasyLib:ListBoxGL.obj
 0001:000fd440       ?GetCurFocusItemID@CListBoxGL@@QAAIXZ 0010e440 f   FantasyLib:ListBoxGL.obj
 0001:000fd460       ?GetCurFocusItemPosY@CListBoxGL@@QAAMXZ 0010e460 f   FantasyLib:ListBoxGL.obj
 0001:000fd480       ?GetCount@CListBoxGL@@QAAHXZ 0010e480 f   FantasyLib:ListBoxGL.obj
 0001:000fd490       ??0CListBoxItemGL@@QAA@PB_W00MM@Z 0010e490 f   FantasyLib:ListBoxGL.obj
 0001:000fd738       ??1CListBoxItemGL@@UAA@XZ  0010e738 f   FantasyLib:ListBoxGL.obj
 0001:000fd7f8       ?SetIconScale@CListBoxItemGL@@QAAXMM@Z 0010e7f8 f   FantasyLib:ListBoxGL.obj
 0001:000fd848       ?GetIndex@CListBoxItemGL@@QAAHXZ 0010e848 f   FantasyLib:ListBoxGL.obj
 0001:000fd850       ?GetAniMoveOut@CPanelGL@@QAAIXZ 0010e850 f   FantasyLib:PanelGL.obj
 0001:000fd850       ?GetItemSubName@CListBoxItemGL@@QAAPA_WXZ 0010e850 f   FantasyLib:ListBoxGL.obj
 0001:000fd858       ?SetCaptioniHeight@CListBoxItemGL@@QAAXHHH@Z 0010e858 f   FantasyLib:ListBoxGL.obj
 0001:000fd8fc       ?AddCaptioniOffset@CListBoxItemGL@@QAAXMMM@Z 0010e8fc f   FantasyLib:ListBoxGL.obj
 0001:000fd968       ?SetCaptionColor@CListBoxItemGL@@QAAXPAU_tagColorGL@@00@Z 0010e968 f   FantasyLib:ListBoxGL.obj
 0001:000fda20       ?GetKeyWords@CListBoxItemGL@@QAAPB_WXZ 0010ea20 f   FantasyLib:ListBoxGL.obj
 0001:000fda28       ?IsPtnOnControl@CListBoxItemGL@@QAAHPAUtagPOINT@@@Z 0010ea28 f   FantasyLib:ListBoxGL.obj
 0001:000fdbac       ?SetUserParam@CListBoxItemGL@@QAAXJ@Z 0010ebac f   FantasyLib:ListBoxGL.obj
 0001:000fdbb4       ?GetUserParam@CListBoxItemGL@@QAAJXZ 0010ebb4 f   FantasyLib:ListBoxGL.obj
 0001:000fdbbc       ?EnableClick@CListBoxItemGL@@QAAXH@Z 0010ebbc f   FantasyLib:ListBoxGL.obj
 0001:000fdbc4       ?Initialize@CListBoxItemGL@@QAAHIPAUtagSIZE@@0HPAVCControlGL@@PAVCSkinManagerGL@@@Z 0010ebc4 f   FantasyLib:ListBoxGL.obj
 0001:000fe240       ?SetIcon@CListBoxItemGL@@QAAHPAVCLabelGL@@0MM@Z 0010f240 f   FantasyLib:ListBoxGL.obj
 0001:000fe278       ?SetIconFromImage@CListBoxItemGL@@QAAHPAVCImageGL@@@Z 0010f278 f   FantasyLib:ListBoxGL.obj
 0001:000fe38c       ?SetIconFromFile@CListBoxItemGL@@QAAHPB_WHH@Z 0010f38c f   FantasyLib:ListBoxGL.obj
 0001:000fe478       ?SetIcon2@CListBoxItemGL@@QAAHPAVCLabelGL@@0MM@Z 0010f478 f   FantasyLib:ListBoxGL.obj
 0001:000fe4bc       ?IsReady@CListBoxItemGL@@UAAHXZ 0010f4bc f   FantasyLib:ListBoxGL.obj
 0001:000fe508       ?OnTouchUp@CListBoxItemGL@@UAAXPAUtagPOINT@@@Z 0010f508 f   FantasyLib:ListBoxGL.obj
 0001:000fe544       ?Render@CListBoxItemGL@@UAAXXZ 0010f544 f   FantasyLib:ListBoxGL.obj
 0001:0010015c       ?IsPtnOnItem@CListBoxItemGL@@QAAHPAUtagPOINT@@@Z 0011115c f   FantasyLib:ListBoxGL.obj
 0001:001001b8       ?SetItemName@CListBoxItemGL@@QAAXPB_W@Z 001111b8 f   FantasyLib:ListBoxGL.obj
 0001:00100248       ?SetItemSubName@CListBoxItemGL@@QAAXPB_W@Z 00111248 f   FantasyLib:ListBoxGL.obj
 0001:001002d8       ?Search@?$CM_List@VCListBoxItemGL@@@@QAAHPAVCListBoxItemGL@@@Z 001112d8 f i FantasyLib:ListBoxGL.obj
 0001:001002d8       ?Search@?$CM_List@VCPanelGL@@@@QAAHPAVCPanelGL@@@Z 001112d8 f i FantasyLib:PanelGL.obj
 0001:001002d8       ?Search@?$CM_List@VCControlGL@@@@QAAHPAVCControlGL@@@Z 001112d8 f i FantasyLib:ControlGL.obj
 0001:00100324       ?MoveToIndex@?$CM_List@VCListBoxItemGL@@@@QAAHH@Z 00111324 f i FantasyLib:ListBoxGL.obj
 0001:00100324       ?MoveToIndex@?$CM_List@VCControlGL@@@@QAAHH@Z 00111324 f i FantasyLib:ControlGL.obj
 0001:00100324       ?MoveToIndex@?$CM_List@VCM_String@UTIL@@@@QAAHH@Z 00111324 f i FantasyLib:IMAtom.obj
 0001:0010035c       ?Render@CListBoxGL@@UAAXXZ 0011135c f   FantasyLib:ListBoxGL.obj
 0001:00100e70       ?SearchValue@CListBoxGL@@QAAHPB_W@Z 00111e70 f   FantasyLib:ListBoxGL.obj
 0001:00100f20       ?SearchID@CListBoxGL@@QAAHI@Z 00111f20 f   FantasyLib:ListBoxGL.obj
 0001:00100f58       ?GetKeyWordIndex@CListBoxGL@@QAAHPB_WH@Z 00111f58 f   FantasyLib:ListBoxGL.obj
 0001:001010b8       ?KillFocus@CListBoxGL@@QAAXXZ 001120b8 f   FantasyLib:ListBoxGL.obj
 0001:001010d4       ?SetFocus@CListBoxGL@@QAAXH@Z 001120d4 f   FantasyLib:ListBoxGL.obj
 0001:00101160       ?MoveToIndex@CListBoxGL@@QAAHHHH@Z 00112160 f   FantasyLib:ListBoxGL.obj
 0001:00101344       ?MoveToWnd@CListBoxGL@@QAAHHH@Z 00112344 f   FantasyLib:ListBoxGL.obj
 0001:001013cc       ?MoveToNext@CListBoxGL@@QAAHHH@Z 001123cc f   FantasyLib:ListBoxGL.obj
 0001:00101428       ?MoveToLast@CListBoxGL@@QAAHHH@Z 00112428 f   FantasyLib:ListBoxGL.obj
 0001:0010147c       ?StopSlide@CListBoxGL@@AAAXH@Z 0011247c f   FantasyLib:ListBoxGL.obj
 0001:00101630       ?LinkTextGL@CListBoxGL@@UAAXPAVCTextGL@@@Z 00112630 f   FantasyLib:ListBoxGL.obj
 0001:001016ec       ?ShowQuickSearchMode@CListBoxGL@@QAAXH@Z 001126ec f   FantasyLib:ListBoxGL.obj
 0001:001017e4       ?SetItemName@CListBoxGL@@QAAXIPB_W@Z 001127e4 f   FantasyLib:ListBoxGL.obj
 0001:00101824       ?GetIndexUserParam@CListBoxGL@@QAAJH@Z 00112824 f   FantasyLib:ListBoxGL.obj
 0001:00101868       ?GetIndexValue@CListBoxGL@@QAAPA_WH@Z 00112868 f   FantasyLib:ListBoxGL.obj
 0001:001018ac       ?GetIndexName@CListBoxGL@@QAAPA_WH@Z 001128ac f   FantasyLib:ListBoxGL.obj
 0001:001018f0       ?SetIndexIcon2@CListBoxGL@@QAAXIPAVCLabelGL@@0@Z 001128f0 f   FantasyLib:ListBoxGL.obj
 0001:00101950       ?IsClickOnItem@CListBoxGL@@QAAHPAUtagPOINT@@@Z 00112950 f   FantasyLib:ListBoxGL.obj
 0001:00101990       ?IsClickOnFocus@CListBoxGL@@QAAHPAUtagPOINT@@@Z 00112990 f   FantasyLib:ListBoxGL.obj
 0001:001019e4       ?GetCurFocusItemName@CListBoxGL@@QAAPA_WXZ 001129e4 f   FantasyLib:ListBoxGL.obj
 0001:001019f8       ?GetCurFocusItemSubName@CListBoxGL@@QAAPA_WXZ 001129f8 f   FantasyLib:ListBoxGL.obj
 0001:00101a0c       ?GetCurFocusItemValue@CListBoxGL@@QAAPA_WXZ 00112a0c f   FantasyLib:ListBoxGL.obj
 0001:00101a20       ?GetCurFocusItemUserParam@CListBoxGL@@QAAJXZ 00112a20 f   FantasyLib:ListBoxGL.obj
 0001:00101a34       ?SetCurFocusItemSubName@CListBoxGL@@QAAXPB_W@Z 00112a34 f   FantasyLib:ListBoxGL.obj
 0001:00101a4c       ??_GCListBoxItemGL@@UAAPAXI@Z 00112a4c f i FantasyLib:ListBoxGL.obj
 0001:00101a4c       ??_ECListBoxItemGL@@UAAPAXI@Z 00112a4c f i FantasyLib:ListBoxGL.obj
 0001:00101a70       ?OnTouchDown@CListBoxItemGL@@UAAXPAUtagPOINT@@@Z 00112a70 f   FantasyLib:ListBoxGL.obj
 0001:00101ad4       ?Insert@?$CM_List@VCListBoxItemGL@@@@QAAXPAVCListBoxItemGL@@HH@Z 00112ad4 f i FantasyLib:ListBoxGL.obj
 0001:00101ba0       ?OnTouchDown@CListBoxGL@@UAAXPAUtagPOINT@@@Z 00112ba0 f   FantasyLib:ListBoxGL.obj
 0001:00101ec8       ?OnTouchMove@CListBoxGL@@UAAXPAUtagPOINT@@@Z 00112ec8 f   FantasyLib:ListBoxGL.obj
 0001:00102144       ?OnGesture@CListBoxGL@@UAAXPAUtagGESTUREINFO@@@Z 00113144 f   FantasyLib:ListBoxGL.obj
 0001:001024a0       ?MoveToKeyWordIndex@CListBoxGL@@QAAHPB_W@Z 001134a0 f   FantasyLib:ListBoxGL.obj
 0001:001026d4       ?AddItem@CListBoxGL@@QAAXPAVCListBoxItemGL@@I@Z 001136d4 f   FantasyLib:ListBoxGL.obj
 0001:001028e4       ??1?$CM_List@VCIMImagin@@@@QAA@XZ 001138e4 f i FantasyLib:IMBarGL.obj
 0001:001028e4       ??1?$CM_List@VCListBoxItemGL@@@@QAA@XZ 001138e4 f i FantasyLib:ListBoxGL.obj
 0001:001028e4       ??1?$CM_List@VCButtonGL@@@@QAA@XZ 001138e4 f i FantasyLib:KeyBoardGL.obj
 0001:001028e4       ??1?$CM_List@VCTexture@@@@QAA@XZ 001138e4 f i FantasyLib:SkinManagerGL.obj
 0001:001028e4       ??1?$CM_List@UContactInfo@@@@QAA@XZ 001138e4 f i PanelBluetoothWrapper.obj
 0001:001028e4       ??1?$CM_List@U_RadioStationInfo@@@@QAA@XZ 001138e4 f i PanelRadioLibrary.obj
 0001:001028e4       ??1?$CM_List@VCWidgetGL@@@@QAA@XZ 001138e4 f i PanelWidget.obj
 0001:001028e4       ??1?$CM_List@VCSmartBar@@@@QAA@XZ 001138e4 f i SmartBar.obj
 0001:001028e4       ??1?$CM_List@VCPanelGL@@@@QAA@XZ 001138e4 f i GUI_Fantasy.obj
 0001:001028e4       ??1?$CM_List@VCControlGL@@@@QAA@XZ 001138e4 f i FantasyLib:ControlGL.obj
 0001:001028e4       ??1?$CM_List@U_IMAGE_THUMB@@@@QAA@XZ 001138e4 f i PanelSettingBackground.obj
 0001:001028e4       ??1?$CM_List@Usteerwheelkey@@@@QAA@XZ 001138e4 f i PanelSettingAdvanced.obj
 0001:001028e4       ??1?$CM_List@U_RdsInfo@@@@QAA@XZ 001138e4 f i PanelRadioWrapper.obj
 0001:001028e4       ??1?$CM_List@VCImageGL@@@@QAA@XZ 001138e4 f i FantasyLib:SkinManagerGL.obj
 0001:001028e4       ??1?$CM_List@VCIMAtom@@@@QAA@XZ 001138e4 f i FantasyLib:IMBarGL.obj
 0001:001028e4       ??1?$CM_List@VCTextModeGL@@@@QAA@XZ 001138e4 f i FantasyLib:TextGL.obj
 0001:001028e4       ??1?$CM_List@VCM_String@UTIL@@@@QAA@XZ 001138e4 f i FantasyLib:IMAtom.obj
 0001:0010293c       ??0CListBoxGL@@QAA@XZ      0011393c f   FantasyLib:ListBoxGL.obj
 0001:00102d9c       ??1CListBoxGL@@UAA@XZ      00113d9c f   FantasyLib:ListBoxGL.obj
 0001:00103028       ?UpdateSearchWord@CListBoxGL@@AAAXXZ 00114028 f   FantasyLib:ListBoxGL.obj
 0001:00103230       ?OnTouchUp@CListBoxGL@@UAAXPAUtagPOINT@@@Z 00114230 f   FantasyLib:ListBoxGL.obj
 0001:001039ac       ?DeleteItem@CListBoxGL@@QAAXI@Z 001149ac f   FantasyLib:ListBoxGL.obj
 0001:00103c54       ?InsertItem@CListBoxGL@@QAAXPAVCListBoxItemGL@@HI@Z 00114c54 f   FantasyLib:ListBoxGL.obj
 0001:00103f8c       ?AddItemByOrder@CListBoxGL@@QAAXPAVCListBoxItemGL@@IHH@Z 00114f8c f   FantasyLib:ListBoxGL.obj
 0001:00104214       ?ClearList@CListBoxGL@@QAAXXZ 00115214 f   FantasyLib:ListBoxGL.obj
 0001:00104328       ??_GCListBoxGL@@UAAPAXI@Z  00115328 f i FantasyLib:ListBoxGL.obj
 0001:00104328       ??_ECListBoxGL@@UAAPAXI@Z  00115328 f i FantasyLib:ListBoxGL.obj
 0001:00104354       ?Initialize@CTextGL@@QAAHPAVCSkinManagerGL@@W4FontIDGL@@M@Z 00115354 f   FantasyLib:TextGL.obj
 0001:00104718       ?IsReady@CTextGL@@UAAHXZ   00115718 f   FantasyLib:TextGL.obj
 0001:0010472c       ?GetExtension@CTextGL@@QAAXPB_WPAUtagSIZE@@I@Z 0011572c f   FantasyLib:TextGL.obj
 0001:001047d4       ?GetExtension@CTextGL@@QAAXPAUtagSIZE@@I@Z 001157d4 f   FantasyLib:TextGL.obj
 0001:001048ec       ?SetCharHeight@CTextGL@@QAAXI@Z 001158ec f   FantasyLib:TextGL.obj
 0001:00104900       ?SetCharScale@CTextGL@@QAAXMM@Z 00115900 f   FantasyLib:TextGL.obj
 0001:00104944       ?EnableAutoChangeLine@CTextGL@@QAAXHH@Z 00115944 f   FantasyLib:TextGL.obj
 0001:00104954       ?EnableAutoEllipsis@CTextGL@@QAAXHH@Z 00115954 f   FantasyLib:TextGL.obj
 0001:0010496c       ?SetUnderline@CTextGL@@QAAXHH@Z 0011596c f   FantasyLib:TextGL.obj
 0001:00104978       ?EnableShadow@CTextGL@@QAAXH@Z 00115978 f   FantasyLib:TextGL.obj
 0001:00104980       ?SetStyle@CTextGL@@QAAXI@Z 00115980 f   FantasyLib:TextGL.obj
 0001:00104988       ?IsInitialized@CTextGL@@QAAHXZ 00115988 f   FantasyLib:TextGL.obj
 0001:00104990       ?SetReadingOrder@CTextGL@@QAAXH@Z 00115990 f   FantasyLib:TextGL.obj
 0001:00104998       ?DrawTextGL2@CTextGL@@QAAXPAUtagRECT@@PB_W@Z 00115998 f   FantasyLib:TextGL.obj
 0001:00104f90       ?IsAggregationA@CTextArbicGL@@AAAHPA_W@Z 00115f90 f   FantasyLib:TextGL.obj
 0001:00104fd4       ?IsAggregationB@CTextArbicGL@@AAAHPA_W@Z 00115fd4 f   FantasyLib:TextGL.obj
 0001:00105018       ?SwapString@CTextArbicGL@@QAAXPA_WH@Z 00116018 f   FantasyLib:TextGL.obj
 0001:00105058       ?_Rrotate@?$_Tree@V?$_Tmap_traits@_WU_ArbicParam@@U?$less@_W@std@@V?$allocator@U?$pair@$$CB_WU_ArbicParam@@@std@@@3@$0A@@std@@@std@@IAAXPAU_Node@?$_Tree_nod@V?$_Tmap_traits@_WU_ArbicParam@@U?$less@_W@std@@V?$allocator@U?$pair@$$CB_WU_ArbicParam@@@std@@@3@$0A@@std@@@2@@Z 00116058 f i FantasyLib:TextGL.obj
 0001:001050c8       ?_Dec@const_iterator@?$_Tree@V?$_Tmap_traits@_WU_ArbicParam@@U?$less@_W@std@@V?$allocator@U?$pair@$$CB_WU_ArbicParam@@@std@@@3@$0A@@std@@@std@@QAAXXZ 001160c8 f i FantasyLib:TextGL.obj
 0001:00105198       ?_Inc@const_iterator@?$_Tree@V?$_Tmap_traits@_WU_ArbicParam@@U?$less@_W@std@@V?$allocator@U?$pair@$$CB_WU_ArbicParam@@@std@@@3@$0A@@std@@@std@@QAAXXZ 00116198 f i FantasyLib:TextGL.obj
 0001:00105234       ??$_Allocate@U_Node@?$_Tree_nod@V?$_Tmap_traits@_WU_ArbicParam@@U?$less@_W@std@@V?$allocator@U?$pair@$$CB_WU_ArbicParam@@@std@@@3@$0A@@std@@@std@@@std@@YAPAU_Node@?$_Tree_nod@V?$_Tmap_traits@_WU_ArbicParam@@U?$less@_W@std@@V?$allocator@U?$pair@$$CB_WU_ArbicParam@@@std@@@3@$0A@@std@@@0@IPAU120@@Z 00116234 f i FantasyLib:TextGL.obj
 0001:001052a4       ?Render@CTextGL@@UAAXXZ    001162a4 f   FantasyLib:TextGL.obj
 0001:00105444       ?_Lrotate@?$_Tree@V?$_Tmap_traits@_WU_ArbicParam@@U?$less@_W@std@@V?$allocator@U?$pair@$$CB_WU_ArbicParam@@@std@@@3@$0A@@std@@@std@@IAAXPAU_Node@?$_Tree_nod@V?$_Tmap_traits@_WU_ArbicParam@@U?$less@_W@std@@V?$allocator@U?$pair@$$CB_WU_ArbicParam@@@std@@@3@$0A@@std@@@2@@Z 00116444 f i FantasyLib:TextGL.obj
 0001:001054ac       ?_Lbound@?$_Tree@V?$_Tmap_traits@_WU_ArbicParam@@U?$less@_W@std@@V?$allocator@U?$pair@$$CB_WU_ArbicParam@@@std@@@3@$0A@@std@@@std@@IBAPAU_Node@?$_Tree_nod@V?$_Tmap_traits@_WU_ArbicParam@@U?$less@_W@std@@V?$allocator@U?$pair@$$CB_WU_ArbicParam@@@std@@@3@$0A@@std@@@2@AB_W@Z 001164ac f i FantasyLib:TextGL.obj
 0001:00105504       ?_Erase@?$_Tree@V?$_Tmap_traits@_WU_ArbicParam@@U?$less@_W@std@@V?$allocator@U?$pair@$$CB_WU_ArbicParam@@@std@@@3@$0A@@std@@@std@@IAAXPAU_Node@?$_Tree_nod@V?$_Tmap_traits@_WU_ArbicParam@@U?$less@_W@std@@V?$allocator@U?$pair@$$CB_WU_ArbicParam@@@std@@@3@$0A@@std@@@2@@Z 00116504 f i FantasyLib:TextGL.obj
 0001:0010554c       ?_Buynode@?$_Tree@V?$_Tmap_traits@_WU_ArbicParam@@U?$less@_W@std@@V?$allocator@U?$pair@$$CB_WU_ArbicParam@@@std@@@3@$0A@@std@@@std@@IAAPAU_Node@?$_Tree_nod@V?$_Tmap_traits@_WU_ArbicParam@@U?$less@_W@std@@V?$allocator@U?$pair@$$CB_WU_ArbicParam@@@std@@@3@$0A@@std@@@2@PAU342@00ABU?$pair@$$CB_WU_ArbicParam@@@2@D@Z 0011654c f i FantasyLib:TextGL.obj
 0001:001055a4       ?_Buynode@?$_Tree@V?$_Tmap_traits@_WU_ArbicParam@@U?$less@_W@std@@V?$allocator@U?$pair@$$CB_WU_ArbicParam@@@std@@@3@$0A@@std@@@std@@IAAPAU_Node@?$_Tree_nod@V?$_Tmap_traits@_WU_ArbicParam@@U?$less@_W@std@@V?$allocator@U?$pair@$$CB_WU_ArbicParam@@@std@@@3@$0A@@std@@@2@XZ 001165a4 f i FantasyLib:TextGL.obj
 0001:001055e0       ?find@?$_Tree@V?$_Tmap_traits@_WU_ArbicParam@@U?$less@_W@std@@V?$allocator@U?$pair@$$CB_WU_ArbicParam@@@std@@@3@$0A@@std@@@std@@QAA?AViterator@12@AB_W@Z 001165e0 f i FantasyLib:TextGL.obj
 0001:0010567c       ?_Init@?$_Tree@V?$_Tmap_traits@_WU_ArbicParam@@U?$less@_W@std@@V?$allocator@U?$pair@$$CB_WU_ArbicParam@@@std@@@3@$0A@@std@@@std@@IAAXXZ 0011667c f i FantasyLib:TextGL.obj
 0001:001056b8       ?TransformChar@CTextArbicGL@@AAA_WPA_W@Z 001166b8 f   FantasyLib:TextGL.obj
 0001:001057f4       ?TransformString@CTextArbicGL@@QAAXPA_W@Z 001167f4 f   FantasyLib:TextGL.obj
 0001:001058a8       ?ArabicStringReshape@CTextArbicGL@@QAAXPA_W@Z 001168a8 f   FantasyLib:TextGL.obj
 0001:00105958       ?SetString@CTextGL@@QAAXPB_W@Z 00116958 f   FantasyLib:TextGL.obj
 0001:001059ec       ?_Insert@?$_Tree@V?$_Tmap_traits@_WU_ArbicParam@@U?$less@_W@std@@V?$allocator@U?$pair@$$CB_WU_ArbicParam@@@std@@@3@$0A@@std@@@std@@IAA?AViterator@12@_NPAU_Node@?$_Tree_nod@V?$_Tmap_traits@_WU_ArbicParam@@U?$less@_W@std@@V?$allocator@U?$pair@$$CB_WU_ArbicParam@@@std@@@3@$0A@@std@@@2@ABU?$pair@$$CB_WU_ArbicParam@@@2@@Z 001169ec f i FantasyLib:TextGL.obj
 0001:00105c44       ?insert@?$_Tree@V?$_Tmap_traits@_WU_ArbicParam@@U?$less@_W@std@@V?$allocator@U?$pair@$$CB_WU_ArbicParam@@@std@@@3@$0A@@std@@@std@@QAA?AU?$pair@Viterator@?$_Tree@V?$_Tmap_traits@_WU_ArbicParam@@U?$less@_W@std@@V?$allocator@U?$pair@$$CB_WU_ArbicParam@@@std@@@3@$0A@@std@@@std@@_N@2@ABU?$pair@$$CB_WU_ArbicParam@@@2@@Z 00116c44 f i FantasyLib:TextGL.obj
 0001:00105d84       ?erase@?$_Tree@V?$_Tmap_traits@_WU_ArbicParam@@U?$less@_W@std@@V?$allocator@U?$pair@$$CB_WU_ArbicParam@@@std@@@3@$0A@@std@@@std@@QAA?AViterator@12@V312@@Z 00116d84 f i FantasyLib:TextGL.obj
 0001:001061f0       ?erase@?$_Tree@V?$_Tmap_traits@_WU_ArbicParam@@U?$less@_W@std@@V?$allocator@U?$pair@$$CB_WU_ArbicParam@@@std@@@3@$0A@@std@@@std@@QAA?AViterator@12@V312@0@Z 001171f0 f i FantasyLib:TextGL.obj
 0001:001062fc       ?DeinitTextArbicParam@CTextArbicGL@@QAAXXZ 001172fc f   FantasyLib:TextGL.obj
 0001:00106378       ?RemoveArbicParam@CTextArbicGL@@AAAX_W@Z 00117378 f   FantasyLib:TextGL.obj
 0001:001063ec       ?_Tidy@?$_Tree@V?$_Tmap_traits@_WU_ArbicParam@@U?$less@_W@std@@V?$allocator@U?$pair@$$CB_WU_ArbicParam@@@std@@@3@$0A@@std@@@std@@IAAXXZ 001173ec f i FantasyLib:TextGL.obj
 0001:00106430       ?AddArbicParam@CTextArbicGL@@AAAXAAU_ArbicParam@@@Z 00117430 f   FantasyLib:TextGL.obj
 0001:00106488       ??1?$map@_WU_ArbicParam@@U?$less@_W@std@@V?$allocator@U?$pair@$$CB_WU_ArbicParam@@@std@@@3@@std@@QAA@XZ 00117488 f i FantasyLib:TextGL.obj
 0001:00106494       ??1CTextArbicGL@@QAA@XZ    00117494 f   FantasyLib:TextGL.obj
 0001:001064e0       ??0CTextArbicGL@@QAA@XZ    001174e0 f   FantasyLib:TextGL.obj
 0001:0010654c       ??0CTextGL@@QAA@XZ         0011754c f   FantasyLib:TextGL.obj
 0001:00106754       ??1CTextGL@@UAA@XZ         00117754 f   FantasyLib:TextGL.obj
 0001:00106944       ??_GCTextGL@@UAAPAXI@Z     00117944 f i FantasyLib:TextGL.obj
 0001:00106944       ??_ECTextGL@@UAAPAXI@Z     00117944 f i FantasyLib:TextGL.obj
 0001:00106968       ??0CStatusBar@@QAA@XZ      00117968 f   FantasyLib:StatusBar.obj
 0001:00106994       ??1CStatusBar@@UAA@XZ      00117994 f   FantasyLib:StatusBar.obj
 0001:001069a8       ??_ECStatusBar@@UAAPAXI@Z  001179a8 f i FantasyLib:StatusBar.obj
 0001:001069a8       ??_GCStatusBar@@UAAPAXI@Z  001179a8 f i FantasyLib:StatusBar.obj
 0001:001069e0       ??0CClockBarGL@@QAA@XZ     001179e0 f   FantasyLib:ClockBarGL.obj
 0001:00106c60       ??1CClockBarGL@@UAA@XZ     00117c60 f   FantasyLib:ClockBarGL.obj
 0001:00106e68       ?Initialize@CClockBarGL@@QAAHIPAVCControlGL@@PAUtagCLOCKBARSTRUCTURE@@PAVCSkinManagerGL@@PAVCTextGL@@@Z 00117e68 f   FantasyLib:ClockBarGL.obj
 0001:001072c0       ?Render@CClockBarGL@@UAAXXZ 001182c0 f   FantasyLib:ClockBarGL.obj
 0001:001078d4       ?OnTouchDown@CClockBarGL@@UAAXPAUtagPOINT@@@Z 001188d4 f   FantasyLib:ClockBarGL.obj
 0001:00107964       ?SetPos@CClockBarGL@@UAAXMMMH@Z 00118964 f   FantasyLib:ClockBarGL.obj
 0001:00107b4c       ?SetSettingType@CClockBarGL@@QAAXI@Z 00118b4c f   FantasyLib:ClockBarGL.obj
 0001:00107c08       ?IsReady@CClockBarGL@@UAAHXZ 00118c08 f   FantasyLib:ClockBarGL.obj
 0001:00107c34       ??_ECClockBarGL@@UAAPAXI@Z 00118c34 f i FantasyLib:ClockBarGL.obj
 0001:00107c34       ??_GCClockBarGL@@UAAPAXI@Z 00118c34 f i FantasyLib:ClockBarGL.obj
 0001:00107c58       ?ApplySettings@CClockBarGL@@QAAXXZ 00118c58 f   FantasyLib:ClockBarGL.obj
 0001:00107c98       ?OnTouchUp@CClockBarGL@@UAAXPAUtagPOINT@@@Z 00118c98 f   FantasyLib:ClockBarGL.obj
 0001:00107f6c       ??0CGUI@@QAA@XZ            00118f6c f   FantasyLib:GUI.obj
 0001:00107fb8       ??1CGUI@@UAA@XZ            00118fb8 f   FantasyLib:GUI.obj
 0001:00107ffc       ?OnTouchDown@CGUI@@UAAXPAUtagPOINT@@@Z 00118ffc f   FantasyLib:GUI.obj
 0001:00108014       ?OnTouchUp@CGUI@@UAAXPAUtagPOINT@@@Z 00119014 f   FantasyLib:GUI.obj
 0001:0010802c       ?Run@CGUI@@QAAXXZ          0011902c f   FantasyLib:GUI.obj
 0001:0010806c       ?Stop@CGUI@@QAAXXZ         0011906c f   FantasyLib:GUI.obj
 0001:001080a0       ?OnLanguageChanged@CGUI@@UAAXI@Z 001190a0 f   FantasyLib:GUI.obj
 0001:001080a0       ?OnFontChanged@CGUI@@UAAXI@Z 001190a0 f   FantasyLib:GUI.obj
 0001:001080a0       ?OnVolumeChanged@CGUI@@UAAXH@Z 001190a0 f   FantasyLib:GUI.obj
 0001:001080a0       ?OnStorageDiskArrived@CGUI@@UAAXPB_W@Z 001190a0 f   FantasyLib:GUI.obj
 0001:001080a0       ?OnStorageDiskRemoved@CGUI@@UAAXPB_W@Z 001190a0 f   FantasyLib:GUI.obj
 0001:001080a0       ?OnQuickSet@CGUI@@UAAXI@Z  001190a0 f   FantasyLib:GUI.obj
 0001:001080a0       ?OnTouchMove@CGUI@@UAAXPAUtagPOINT@@@Z 001190a0 f   FantasyLib:GUI.obj
 0001:001080a0       ?OnNaviMsg@CGUI@@UAAXI@Z   001190a0 f   FantasyLib:GUI.obj
 0001:001080a0       ?OnBTMsg@CGUI@@UAAXI@Z     001190a0 f   FantasyLib:GUI.obj
 0001:001080a0       ?OnProcessMCUCmd@CGUI@@UAAXEPAEK@Z 001190a0 f   FantasyLib:GUI.obj
 0001:001080a0       ?UpdateFrame@CGUI@@QAAXXZ  001190a0 f   FantasyLib:GUI.obj
 0001:001080a0       ?OnProcessMCUPackage@CGUI@@UAAXXZ 001190a0 f   FantasyLib:GUI.obj
 0001:001080ac       ?EnableSwap@CGUI@@QAAXH@Z  001190ac f   FantasyLib:GUI.obj
 0001:001080e0       ?IsAnimating@CGUI@@QAAHXZ  001190e0 f   FantasyLib:GUI.obj
 0001:001080e8       ?SetFrameTime@CGUI@@IAAXK@Z 001190e8 f   FantasyLib:GUI.obj
 0001:00108110       ?isActivated@CGUI@@QAAHXZ  00119110 f   FantasyLib:GUI.obj
 0001:00108118       ??_ECGUI@@UAAPAXI@Z        00119118 f i FantasyLib:GUI.obj
 0001:00108118       ??_GCGUI@@UAAPAXI@Z        00119118 f i FantasyLib:GUI.obj
 0001:0010813c       ?GUIRenderThreadProc@CGUI@@KAKPAX@Z 0011913c f   FantasyLib:GUI.obj
 0001:001081b8       ?Initialize@CGUI@@UAAHPAUHWND__@@U_TMODULEENTRY@@H@Z 001191b8 f   FantasyLib:GUI.obj
 0001:00108250       ??0CGUI_OpenglES@@QAA@XZ   00119250 f   FantasyLib:GUI_OpenglES.obj
 0001:00108280       ??1CGUI_OpenglES@@UAA@XZ   00119280 f   FantasyLib:GUI_OpenglES.obj
 0001:00108318       ?InitializeEGL@CGUI_OpenglES@@IAAHPAUHWND__@@@Z 00119318 f   FantasyLib:GUI_OpenglES.obj
 0001:001086a4       ?SwapBuffers@CGUI_OpenglES@@IAAXXZ 001196a4 f   FantasyLib:GUI_OpenglES.obj
 0001:001086d8       ?Initialize@CGUI_OpenglES@@UAAHPAUHWND__@@U_TMODULEENTRY@@H@Z 001196d8 f   FantasyLib:GUI_OpenglES.obj
 0001:00108744       ??_ECGUI_OpenglES@@UAAPAXI@Z 00119744 f i FantasyLib:GUI_OpenglES.obj
 0001:00108744       ??_GCGUI_OpenglES@@UAAPAXI@Z 00119744 f i FantasyLib:GUI_OpenglES.obj
 0001:00108770       ?ShotScreen@CGUI_OpenglES@@IAAXPB_W@Z 00119770 f   FantasyLib:GUI_OpenglES.obj
 0001:00108978       ??0CCommander@@QAA@XZ      00119978 f   FantasyLib:Commander.obj
 0001:001089fc       ?ComProcessMCU@CCommander@@CAKPAX@Z 001199fc f   FantasyLib:Commander.obj
 0001:00108b38       ??1CCommander@@QAA@XZ      00119b38 f   FantasyLib:Commander.obj
 0001:00108bc8       ?WriteSerialPort@CCommander@@QAAHPAEK@Z 00119bc8 f   FantasyLib:Commander.obj
 0001:00108c4c       ?SendCmd@CCommander@@QAAHEEH@Z 00119c4c f   FantasyLib:Commander.obj
 0001:00108cf0       ?OpenComMCU@CCommander@@AAAHPB_WI@Z 00119cf0 f   FantasyLib:Commander.obj
 0001:00108e8c       ?Initialize@CCommander@@QAAHP6AXPAEKPAX@Z1PB_WIPAUHWND__@@@Z 00119e8c f   FantasyLib:Commander.obj
 0001:00108ebc       ?Show@CKeyBoardGL@@UAAXHH@Z 00119ebc f   FantasyLib:KeyBoardGL.obj
 0001:00108fcc       ?IsOnOK@CKeyBoardGL@@QAAHPAUtagPOINT@@@Z 00119fcc f   FantasyLib:KeyBoardGL.obj
 0001:00108ff8       ?IsOnCancel@CKeyBoardGL@@QAAHPAUtagPOINT@@@Z 00119ff8 f   FantasyLib:KeyBoardGL.obj
 0001:00109024       ?SetInputString@CKeyBoardGL@@QAAXPB_W@Z 0011a024 f   FantasyLib:KeyBoardGL.obj
 0001:00109070       ?SetCaption@CKeyBoardGL@@QAAXPB_W@Z 0011a070 f   FantasyLib:KeyBoardGL.obj
 0001:0010907c       ?GetInputString@CKeyBoardGL@@QAAPB_WXZ 0011a07c f   FantasyLib:KeyBoardGL.obj
 0001:00109088       ?Input@CKeyBoardGL@@QAAXPA_W@Z 0011a088 f   FantasyLib:KeyBoardGL.obj
 0001:001090d4       ?SetInputMaxLen@CKeyBoardGL@@QAAXI@Z 0011a0d4 f   FantasyLib:KeyBoardGL.obj
 0001:001090e8       ?Render@CKeyBoardGL@@UAAXXZ 0011a0e8 f   FantasyLib:KeyBoardGL.obj
 0001:001098cc       ?OnTouchDown@CKeyBoardGL@@UAAXPAUtagPOINT@@@Z 0011a8cc f   FantasyLib:KeyBoardGL.obj
 0001:00109c0c       ?IsReady@CKeyBoardGL@@UAAHXZ 0011ac0c f   FantasyLib:KeyBoardGL.obj
 0001:00109da4       ?SetInputType@CKeyBoardGL@@QAAXI@Z 0011ada4 f   FantasyLib:KeyBoardGL.obj
 0001:0010a154       ?Initialize@CKeyBoardGL@@QAAHIPAVCControlGL@@PAUtagKEYBOARDSTRUCTURE@@PAVCSkinManagerGL@@PAVCTextGL@@@Z 0011b154 f   FantasyLib:KeyBoardGL.obj
 0001:0010bf90       ?OnTouchUp@CKeyBoardGL@@UAAXPAUtagPOINT@@@Z 0011cf90 f   FantasyLib:KeyBoardGL.obj
 0001:0010c774       ??0CKeyBoardGL@@QAA@XZ     0011d774 f   FantasyLib:KeyBoardGL.obj
 0001:0010c96c       ??1CKeyBoardGL@@UAA@XZ     0011d96c f   FantasyLib:KeyBoardGL.obj
 0001:0010caec       ??_ECKeyBoardGL@@UAAPAXI@Z 0011daec f i FantasyLib:KeyBoardGL.obj
 0001:0010caec       ??_GCKeyBoardGL@@UAAPAXI@Z 0011daec f i FantasyLib:KeyBoardGL.obj
 0001:0010cb18       ??0CExplorerGL@@QAA@XZ     0011db18 f   FantasyLib:ExplorerGL.obj
 0001:0010ce9c       ??1CExplorerGL@@UAA@XZ     0011de9c f   FantasyLib:ExplorerGL.obj
 0001:0010d1d0       ?IsReady@CExplorerGL@@UAAHXZ 0011e1d0 f   FantasyLib:ExplorerGL.obj
 0001:0010d218       ?OnTouchDown@CExplorerGL@@UAAXPAUtagPOINT@@@Z 0011e218 f   FantasyLib:ExplorerGL.obj
 0001:0010d254       ?OnTouchMove@CExplorerGL@@UAAXPAUtagPOINT@@@Z 0011e254 f   FantasyLib:ExplorerGL.obj
 0001:0010d290       ?OnEnter@CExplorerGL@@QAAXXZ 0011e290 f   FantasyLib:ExplorerGL.obj
 0001:0010d300       ?LinkTextGL@CExplorerGL@@UAAXPAVCTextGL@@@Z 0011e300 f   FantasyLib:ExplorerGL.obj
 0001:0010d328       ?IsRoot@CExplorerGL@@QAAHXZ 0011e328 f   FantasyLib:ExplorerGL.obj
 0001:0010d350       ?IsAudioFile@CExplorerGL@@AAAHPB_W@Z 0011e350 f   FantasyLib:ExplorerGL.obj
 0001:0010d3cc       ?IsVideoFile@CExplorerGL@@AAAHPB_W@Z 0011e3cc f   FantasyLib:ExplorerGL.obj
 0001:0010d478       ?IsImageFile@CExplorerGL@@AAAHPB_W@Z 0011e478 f   FantasyLib:ExplorerGL.obj
 0001:0010d53c       ?GetPath@CExplorerGL@@QAAPB_WXZ 0011e53c f   FantasyLib:ExplorerGL.obj
 0001:0010d548       ?GetFileName@CExplorerGL@@QAAPB_WXZ 0011e548 f   FantasyLib:ExplorerGL.obj
 0001:0010d554       ?IsClickOnItem@CExplorerGL@@QAAHPAUtagPOINT@@@Z 0011e554 f   FantasyLib:ExplorerGL.obj
 0001:0010d55c       ?IsCurFocusFile@CExplorerGL@@QAAHXZ 0011e55c f   FantasyLib:ExplorerGL.obj
 0001:0010d578       ?SetFilter@CExplorerGL@@QAAXPB_W@Z 0011e578 f   FantasyLib:ExplorerGL.obj
 0001:0010d5a8       ?SetCurPath@CExplorerGL@@QAAXPB_W@Z 0011e5a8 f   FantasyLib:ExplorerGL.obj
 0001:0010d5d0       ?MoveToNext@CExplorerGL@@QAAXXZ 0011e5d0 f   FantasyLib:ExplorerGL.obj
 0001:0010d5e0       ?MoveToPrevious@CExplorerGL@@QAAXXZ 0011e5e0 f   FantasyLib:ExplorerGL.obj
 0001:0010d5f0       ??_ECExplorerGL@@UAAPAXI@Z 0011e5f0 f i FantasyLib:ExplorerGL.obj
 0001:0010d5f0       ??_GCExplorerGL@@UAAPAXI@Z 0011e5f0 f i FantasyLib:ExplorerGL.obj
 0001:0010d61c       ?ExplorePath@CExplorerGL@@AAAXPB_W0@Z 0011e61c f   FantasyLib:ExplorerGL.obj
 0001:0010dc2c       ?GotoParent@CExplorerGL@@QAAXXZ 0011ec2c f   FantasyLib:ExplorerGL.obj
 0001:0010dcfc       ?Initialize@CExplorerGL@@QAAHIPAVCControlGL@@PAVCSkinManagerGL@@@Z 0011ecfc f   FantasyLib:ExplorerGL.obj
 0001:0010e0c8       ?Render@CExplorerGL@@UAAXXZ 0011f0c8 f   FantasyLib:ExplorerGL.obj
 0001:0010e3a0       ?OnTouchUp@CExplorerGL@@UAAXPAUtagPOINT@@@Z 0011f3a0 f   FantasyLib:ExplorerGL.obj
 0001:0010e49c       ??0CDashboardGL@@QAA@XZ    0011f49c f   FantasyLib:DashboardGL.obj
 0001:0010e558       ??1CDashboardGL@@UAA@XZ    0011f558 f   FantasyLib:DashboardGL.obj
 0001:0010e5d4       ?Initialize@CDashboardGL@@QAAHIPAVCControlGL@@PAUtagDASHBOARDSTRUCTURE@@PAVCSkinManagerGL@@@Z 0011f5d4 f   FantasyLib:DashboardGL.obj
 0001:0010e680       ?Render@CDashboardGL@@UAAXXZ 0011f680 f   FantasyLib:DashboardGL.obj
 0001:0010e868       ?OnTouchUp@CDashboardGL@@UAAXPAUtagPOINT@@@Z 0011f868 f   FantasyLib:DashboardGL.obj
 0001:0010e8ac       ?IsReady@CDashboardGL@@UAAHXZ 0011f8ac f   FantasyLib:DashboardGL.obj
 0001:0010e8d8       ?SetRange@CDashboardGL@@QAAXHH@Z 0011f8d8 f   FantasyLib:DashboardGL.obj
 0001:0010e8e4       ?SetValue@CDashboardGL@@QAAXHH@Z 0011f8e4 f   FantasyLib:DashboardGL.obj
 0001:0010ea30       ??_ECDashboardGL@@UAAPAXI@Z 0011fa30 f i FantasyLib:DashboardGL.obj
 0001:0010ea30       ??_GCDashboardGL@@UAAPAXI@Z 0011fa30 f i FantasyLib:DashboardGL.obj
 0001:0010ea54       ?OnTouchDown@CDashboardGL@@UAAXPAUtagPOINT@@@Z 0011fa54 f   FantasyLib:DashboardGL.obj
 0001:0010ed1c       ?OnTouchMove@CDashboardGL@@UAAXPAUtagPOINT@@@Z 0011fd1c f   FantasyLib:DashboardGL.obj
 0001:0010efa4       ??0CQRBarGL@@QAA@XZ        0011ffa4 f   FantasyLib:QRBarGL.obj
 0001:0010f004       ??1CQRBarGL@@UAA@XZ        00120004 f   FantasyLib:QRBarGL.obj
 0001:0010f05c       ?Initialize@CQRBarGL@@QAAHIPAVCControlGL@@PAVCSkinManagerGL@@PBD@Z 0012005c f   FantasyLib:QRBarGL.obj
 0001:0010f288       ?GetQRSize@CQRBarGL@@QAA?AUtagSIZE@@XZ 00120288 f   FantasyLib:QRBarGL.obj
 0001:0010f2a0       ?Render@CQRBarGL@@UAAXXZ   001202a0 f   FantasyLib:QRBarGL.obj
 0001:0010f344       ??_ECQRBarGL@@UAAPAXI@Z    00120344 f i FantasyLib:QRBarGL.obj
 0001:0010f344       ??_GCQRBarGL@@UAAPAXI@Z    00120344 f i FantasyLib:QRBarGL.obj
 0001:0010f370       ??0CImageGL@@QAA@HHH@Z     00120370 f   FantasyLib:ImageGL.obj
 0001:0010f3e8       ??0CImageGL@@QAA@XZ        001203e8 f   FantasyLib:ImageGL.obj
 0001:0010f424       ??1CImageGL@@QAA@XZ        00120424 f   FantasyLib:ImageGL.obj
 0001:0010f48c       ?LoadFromFileScaled@CImageGL@@QAAHPB_WHHHH@Z 0012048c f   FantasyLib:ImageGL.obj
 0001:0010fa3c       ?SaveAsBMP@CImageGL@@QAAHPB_W@Z 00120a3c f   FantasyLib:ImageGL.obj
 0001:0010fc08       ??0CCalendarGL@@QAA@XZ     00120c08 f   FantasyLib:CalendarGL.obj
 0001:0010fe80       ??1CCalendarGL@@UAA@XZ     00120e80 f   FantasyLib:CalendarGL.obj
 0001:00110024       ?Render@CCalendarGL@@UAAXXZ 00121024 f   FantasyLib:CalendarGL.obj
 0001:00110534       ?OnTouchDown@CCalendarGL@@UAAXPAUtagPOINT@@@Z 00121534 f   FantasyLib:CalendarGL.obj
 0001:001105f8       ?SetPos@CCalendarGL@@UAAXMMMH@Z 001215f8 f   FantasyLib:CalendarGL.obj
 0001:001109a4       ?LinkTextGL@CCalendarGL@@UAAXPAVCTextGL@@@Z 001219a4 f   FantasyLib:CalendarGL.obj
 0001:00110a18       ?GetDayOfWeek@CCalendarGL@@AAAHHHH@Z 00121a18 f   FantasyLib:CalendarGL.obj
 0001:00110ae4       ?DaysInMonth@CCalendarGL@@AAAHHH@Z 00121ae4 f   FantasyLib:CalendarGL.obj
 0001:00110b8c       ?ApplySettings@CCalendarGL@@QAAXXZ 00121b8c f   FantasyLib:CalendarGL.obj
 0001:00110bcc       ?SetTime@CCalendarGL@@QAAXPAU_SYSTEMTIME@@@Z 00121bcc f   FantasyLib:CalendarGL.obj
 0001:00110c94       ??_GCCalendarGL@@UAAPAXI@Z 00121c94 f i FantasyLib:CalendarGL.obj
 0001:00110c94       ??_ECCalendarGL@@UAAPAXI@Z 00121c94 f i FantasyLib:CalendarGL.obj
 0001:00110cc0       ?Initialize@CCalendarGL@@QAAHIPAVCControlGL@@PAUtagCALENDARBARSTRUCTURE@@PAVCSkinManagerGL@@PAVCTextGL@@@Z 00121cc0 f   FantasyLib:CalendarGL.obj
 0001:00111138       ?OnTouchUp@CCalendarGL@@UAAXPAUtagPOINT@@@Z 00122138 f   FantasyLib:CalendarGL.obj
 0001:00111554       ?ResetTime@CCalendarGL@@QAAXXZ 00122554 f   FantasyLib:CalendarGL.obj
 0001:0011157c       ?Render@CIMBarGL@@UAAXXZ   0012257c f   FantasyLib:IMBarGL.obj
 0001:0011166c       ?LinkTextGL@CIMBarGL@@UAAXPAVCTextGL@@@Z 0012266c f   FantasyLib:IMBarGL.obj
 0001:001116a8       ?OnTouchDown@CIMBarGL@@UAAXPAUtagPOINT@@@Z 001226a8 f   FantasyLib:IMBarGL.obj
 0001:00111720       ?SetPos@CIMBarGL@@UAAXMMMH@Z 00122720 f   FantasyLib:IMBarGL.obj
 0001:001117f8       ?GetString@CIMBarGL@@QAAPB_WXZ 001227f8 f   FantasyLib:IMBarGL.obj
 0001:00111814       ?GetOutput@CIMBarGL@@QAAPB_WXZ 00122814 f   FantasyLib:IMBarGL.obj
 0001:00111830       ?Input@CIMBarGL@@QAAX_W@Z  00122830 f   FantasyLib:IMBarGL.obj
 0001:00111b1c       ?Imagin@CIMBarGL@@QAAX_W@Z 00122b1c f   FantasyLib:IMBarGL.obj
 0001:00111dfc       ?Clear@CIMBarGL@@QAAXH@Z   00122dfc f   FantasyLib:IMBarGL.obj
 0001:001120e4       ?OnTouchUp@CIMBarGL@@UAAXPAUtagPOINT@@@Z 001230e4 f   FantasyLib:IMBarGL.obj
 0001:00112ad0       ?LoadPinyinTable@CIMBarGL@@AAAHXZ 00123ad0 f   FantasyLib:IMBarGL.obj
 0001:00112d00       ?LoadImaginTable@CIMBarGL@@AAAHXZ 00123d00 f   FantasyLib:IMBarGL.obj
 0001:00112f24       ??0CIMBarGL@@QAA@XZ        00123f24 f   FantasyLib:IMBarGL.obj
 0001:001131d4       ??1CIMBarGL@@UAA@XZ        001241d4 f   FantasyLib:IMBarGL.obj
 0001:00113430       ?Initialize@CIMBarGL@@QAAHIPAVCControlGL@@PAVCSkinManagerGL@@@Z 00124430 f   FantasyLib:IMBarGL.obj
 0001:001136e4       ??_GCIMBarGL@@UAAPAXI@Z    001246e4 f i FantasyLib:IMBarGL.obj
 0001:001136e4       ??_ECIMBarGL@@UAAPAXI@Z    001246e4 f i FantasyLib:IMBarGL.obj
 0001:00113708       ??0CTextModeGL@@QAA@I@Z    00124708 f   FantasyLib:TextModeGL.obj
 0001:0011373c       ??1CTextModeGL@@UAA@XZ     0012473c f   FantasyLib:TextModeGL.obj
 0001:00113750       ?Render@CTextModeGL@@UAAXXZ 00124750 f   FantasyLib:TextModeGL.obj
 0001:00113f00       ??_ECTextModeGL@@UAAPAXI@Z 00124f00 f i FantasyLib:TextModeGL.obj
 0001:00113f00       ??_GCTextModeGL@@UAAPAXI@Z 00124f00 f i FantasyLib:TextModeGL.obj
 0001:00113f30       ?GetBitLength@CQR_Encode@@AAAHEHH@Z 00124f30 f   FantasyLib:QR_Encode.obj
 0001:00114010       ?SetBitStream@CQR_Encode@@AAAHHGH@Z 00125010 f   FantasyLib:QR_Encode.obj
 0001:001140a0       ?IsAlphabetData@CQR_Encode@@AAAHE@Z 001250a0 f   FantasyLib:QR_Encode.obj
 0001:00114110       ?IsKanjiData@CQR_Encode@@AAAHEE@Z 00125110 f   FantasyLib:QR_Encode.obj
 0001:00114168       ?AlphabetToBinaly@CQR_Encode@@AAAEE@Z 00125168 f   FantasyLib:QR_Encode.obj
 0001:001141fc       ?KanjiToBinaly@CQR_Encode@@AAAGG@Z 001251fc f   FantasyLib:QR_Encode.obj
 0001:0011424c       ?GetRSCodeWord@CQR_Encode@@AAAXPAEHH@Z 0012524c f   FantasyLib:QR_Encode.obj
 0001:00114370       ?SetFinderPattern@CQR_Encode@@AAAXHH@Z 00125370 f   FantasyLib:QR_Encode.obj
 0001:001143d0       ?SetAlignmentPattern@CQR_Encode@@AAAXHH@Z 001253d0 f   FantasyLib:QR_Encode.obj
 0001:00114450       ?SetVersionPattern@CQR_Encode@@AAAXXZ 00125450 f   FantasyLib:QR_Encode.obj
 0001:0011451c       ?SetCodeWordPattern@CQR_Encode@@AAAXXZ 0012551c f   FantasyLib:QR_Encode.obj
 0001:001145e0       ?SetMaskingPattern@CQR_Encode@@AAAXH@Z 001255e0 f   FantasyLib:QR_Encode.obj
 0001:00114794       ?SetFormatInfoPattern@CQR_Encode@@AAAXH@Z 00125794 f   FantasyLib:QR_Encode.obj
 0001:00114910       ?CountPenalty@CQR_Encode@@AAAHXZ 00125910 f   FantasyLib:QR_Encode.obj
 0001:00114e5c       ?EncodeSourceData@CQR_Encode@@AAAHPBDHH@Z 00125e5c f   FantasyLib:QR_Encode.obj
 0001:00115c28       ?SetFunctionModule@CQR_Encode@@AAAXXZ 00126c28 f   FantasyLib:QR_Encode.obj
 0001:00115e98       ?GetEncodeVersion@CQR_Encode@@AAAHHPBDH@Z 00126e98 f   FantasyLib:QR_Encode.obj
 0001:00115ffc       ?FormatModule@CQR_Encode@@AAAXXZ 00126ffc f   FantasyLib:QR_Encode.obj
 0001:00116118       ?EncodeData@CQR_Encode@@QAAHHHHHPBDH@Z 00127118 f   FantasyLib:QR_Encode.obj
 0001:00116540       ??0CTagGL@@QAA@XZ          00127540 f   FantasyLib:TagGL.obj
 0001:001165e8       ?Initialize@CTagGL@@QAAHIPAVCObjectGL@@PAEHHHHHH@Z 001275e8 f   FantasyLib:TagGL.obj
 0001:00116858       ?Render@CTagGL@@UAAXXZ     00127858 f   FantasyLib:TagGL.obj
 0001:0011713c       ??1CTagGL@@UAA@XZ          0012813c f   FantasyLib:TagGL.obj
 0001:001171b0       ??_GCTagGL@@UAAPAXI@Z      001281b0 f i FantasyLib:TagGL.obj
 0001:001171b0       ??_ECTagGL@@UAAPAXI@Z      001281b0 f i FantasyLib:TagGL.obj
 0001:001171dc       ??1CIMAtom@@QAA@XZ         001281dc f   FantasyLib:IMAtom.obj
 0001:00117230       ??0CIMAtom@@QAA@PA_W0I@Z   00128230 f   FantasyLib:IMAtom.obj
 0001:001172c4       ?ResetMenu@CIMImagin@@QAAXXZ 001282c4 f   FantasyLib:IMAtom.obj
 0001:001172d0       ?MoveToIndex@CIMImagin@@QAAHH@Z 001282d0 f   FantasyLib:IMAtom.obj
 0001:001172d8       ?GetConfig@CSkinManagerGL@@QAAPAVCProConfig@@XZ 001282d8 f   FantasyLib:SkinManagerGL.obj
 0001:001172d8       ?GetImaginCounts@CIMImagin@@QAAHXZ 001282d8 f   FantasyLib:IMAtom.obj
 0001:001172d8       ?getAuthentication@PlayerBuilder@@UAAPAViAuthentication@iAP@@XZ 001282d8 f   iAP_lib:iAPPlayerBuilder.obj
 0001:001172e0       ?GetNext@CIMImagin@@QAAPAVCM_String@UTIL@@XZ 001282e0 f   FantasyLib:IMAtom.obj
 0001:00117318       ?GetPrevious@CIMImagin@@QAAPAVCM_String@UTIL@@XZ 00128318 f   FantasyLib:IMAtom.obj
 0001:00117358       ??0CIMImagin@@QAA@_WPA_WI@Z 00128358 f   FantasyLib:IMAtom.obj
 0001:00117524       CSRCreateMedia             00128524 f   CSRMedia:CSRMedia.dll
 0001:0011753c       StartGpsApi                0012853c f   gpsapilib:GPSAPI.obj
 0001:0011772c       StopGpsApi                 0012872c f   gpsapilib:GPSAPI.obj
 0001:0011779c       GetPosition                0012879c f   gpsapilib:GPSAPI.obj
 0001:00117830       GetCurrentUTC              00128830 f   gpsapilib:GPSAPI.obj
 0001:001178c4       GetGroundSpeed             001288c4 f   gpsapilib:GPSAPI.obj
 0001:00117960       ?General@iAPLingoId@@SA?AV1@XZ 00128960 f   iAP_lib:iAPLingoId.obj
 0001:00117960       ?ShuffleOff@ShuffleMode@iAP@@SA?AV12@XZ 00128960 f   iAP_lib:iAPShuffleMode.obj
 0001:00117960       ??0RepeatMode@iAP@@QAA@XZ  00128960 f   iAP_lib:iAPRepeatMode.obj
 0001:00117960       ??0ShuffleMode@iAP@@QAA@XZ 00128960 f   iAP_lib:iAPShuffleMode.obj
 0001:00117960       ?RepeatOff@RepeatMode@iAP@@SA?AV12@XZ 00128960 f   iAP_lib:iAPRepeatMode.obj
 0001:0011796c       ?RepeatOneTrack@RepeatMode@iAP@@SA?AV12@XZ 0012896c f   iAP_lib:iAPRepeatMode.obj
 0001:0011796c       ?ShuffleTracks@ShuffleMode@iAP@@SA?AV12@XZ 0012896c f   iAP_lib:iAPShuffleMode.obj
 0001:00117978       ?create@RepeatMode@iAP@@SA?AV12@E@Z 00128978 f   iAP_lib:iAPRepeatMode.obj
 0001:00117978       ?create@ShuffleMode@iAP@@SA?AV12@E@Z 00128978 f   iAP_lib:iAPShuffleMode.obj
 0001:00117980       ?get@RepeatMode@iAP@@QBAEXZ 00128980 f   iAP_lib:iAPRepeatMode.obj
 0001:00117980       ?get@iAPLingoId@@QBAEXZ    00128980 f   iAP_lib:iAPLingoId.obj
 0001:00117980       ?get@ShuffleMode@iAP@@QBAEXZ 00128980 f   iAP_lib:iAPShuffleMode.obj
 0001:00117988       ??8iAPLingoId@@QBAHABV0@@Z 00128988 f   iAP_lib:iAPLingoId.obj
 0001:00117988       ??8RepeatMode@iAP@@QBAHABV01@@Z 00128988 f   iAP_lib:iAPRepeatMode.obj
 0001:00117988       ??8ShuffleMode@iAP@@QBAHABV01@@Z 00128988 f   iAP_lib:iAPShuffleMode.obj
 0001:001179a0       ??0iPlayer@iAP@@QAA@XZ     001289a0 f   iAP_lib:iPlayer.obj
 0001:001179b4       ??1iPlayer@iAP@@UAA@XZ     001289b4 f   iAP_lib:iPlayer.obj
 0001:001179c4       ??_GiPlayer@iAP@@UAAPAXI@Z 001289c4 f i iAP_lib:iPlayer.obj
 0001:001179c4       ??_EiPlayer@iAP@@UAAPAXI@Z 001289c4 f i iAP_lib:iPlayer.obj
 0001:001179e8       ??0iAuthentication@iAP@@QAA@XZ 001289e8 f   iAP_lib:iAuthentication.obj
 0001:001179fc       ??1iAuthentication@iAP@@UAA@XZ 001289fc f   iAP_lib:iAuthentication.obj
 0001:00117a0c       ??_GiAuthentication@iAP@@UAAPAXI@Z 00128a0c f i iAP_lib:iAuthentication.obj
 0001:00117a0c       ??_EiAuthentication@iAP@@UAAPAXI@Z 00128a0c f i iAP_lib:iAuthentication.obj
 0001:00117a30       ??0iBrowser@iAP@@QAA@XZ    00128a30 f   iAP_lib:iBrowser.obj
 0001:00117a44       ??1iBrowser@iAP@@UAA@XZ    00128a44 f   iAP_lib:iBrowser.obj
 0001:00117a54       ??_GiBrowser@iAP@@UAAPAXI@Z 00128a54 f i iAP_lib:iBrowser.obj
 0001:00117a54       ??_EiBrowser@iAP@@UAAPAXI@Z 00128a54 f i iAP_lib:iBrowser.obj
 0001:00117a78       ??0iBuilder@iAP@@QAA@XZ    00128a78 f   iAP_lib:iBuilder.obj
 0001:00117a8c       ??1iBuilder@iAP@@UAA@XZ    00128a8c f   iAP_lib:iBuilder.obj
 0001:00117aa4       ?create@iBuilder@iAP@@SAPAV12@XZ 00128aa4 f   iAP_lib:iBuilder.obj
 0001:00117aec       ??_GiBuilder@iAP@@UAAPAXI@Z 00128aec f i iAP_lib:iBuilder.obj
 0001:00117aec       ??_EiBuilder@iAP@@UAAPAXI@Z 00128aec f i iAP_lib:iBuilder.obj
 0001:00117b10       ?configI2CDevice@PlayerBuilder@@UAAXPB_WGGI@Z 00128b10 f   iAP_lib:iAPPlayerBuilder.obj
 0001:00117b2c       ?configUsbDevice@PlayerBuilder@@UAAXPB_W@Z 00128b2c f   iAP_lib:iAPPlayerBuilder.obj
 0001:00117b60       ?configUartDevice@PlayerBuilder@@UAAXPB_WIIII@Z 00128b60 f   iAP_lib:iAPPlayerBuilder.obj
 0001:00117bac       ?plugOutDetection@PlayerBuilder@@UAAHXZ 00128bac f   iAP_lib:iAPPlayerBuilder.obj
 0001:00117bbc       ?getInstance@?$Singleton@ViCP@@@@SAPAViCP@@XZ 00128bbc f i iAP_lib:iAPPlayerBuilder.obj
 0001:00117c24       ??1_Sentry_base@?$basic_ostream@DU?$char_traits@D@std@@@std@@QAA@XZ 00128c24 f i iAP_lib:iAPPlayerBuilder.obj
 0001:00117c4c       ??4?$sp@VRemoteControl@@@@QAAAAV0@PAVRemoteControl@@@Z 00128c4c f i iAP_lib:iAPPlayerBuilder.obj
 0001:00117c4c       ??4?$sp@VOSCommunication@@@@QAAAAV0@PAVOSCommunication@@@Z 00128c4c f i iAP_lib:iAPPlayerBuilder.obj
 0001:00117c4c       ??4?$sp@VBrowsingMgr@@@@QAAAAV0@PAVBrowsingMgr@@@Z 00128c4c f i iAP_lib:iAPPlayerBuilder.obj
 0001:00117c4c       ??4?$sp@VAuthenticationMgr@@@@QAAAAV0@PAVAuthenticationMgr@@@Z 00128c4c f i iAP_lib:iAPPlayerBuilder.obj
 0001:00117c4c       ??4?$sp@VPlayer@@@@QAAAAV0@PAVPlayer@@@Z 00128c4c f i iAP_lib:iAPPlayerBuilder.obj
 0001:00117ca0       ?clear@?$sp@VRemoteControl@@@@QAAXXZ 00128ca0 f i iAP_lib:iAPPlayerBuilder.obj
 0001:00117ca0       ?clear@?$sp@VOSCommunication@@@@QAAXXZ 00128ca0 f i iAP_lib:iAPPlayerBuilder.obj
 0001:00117ca0       ?clear@?$sp@VBrowsingMgr@@@@QAAXXZ 00128ca0 f i iAP_lib:iAPPlayerBuilder.obj
 0001:00117ca0       ?clear@?$sp@VPlayer@@@@QAAXXZ 00128ca0 f i iAP_lib:iAPPlayerBuilder.obj
 0001:00117ca0       ?clear@?$sp@VAuthenticationMgr@@@@QAAXXZ 00128ca0 f i iAP_lib:iAPPlayerBuilder.obj
 0001:00117ce8       ??1?$sp@VBrowsingMgr@@@@QAA@XZ 00128ce8 f i iAP_lib:iAPPlayerBuilder.obj
 0001:00117ce8       ??1?$sp@VAuthenticationMgr@@@@QAA@XZ 00128ce8 f i iAP_lib:iAPPlayerBuilder.obj
 0001:00117ce8       ??1?$sp@VRemoteControl@@@@QAA@XZ 00128ce8 f i iAP_lib:iAPPlayerBuilder.obj
 0001:00117ce8       ??1?$sp@VPlayer@@@@QAA@XZ  00128ce8 f i iAP_lib:iAPPlayerBuilder.obj
 0001:00117ce8       ??1?$sp@VOSCommunication@@@@QAA@XZ 00128ce8 f i iAP_lib:iAPPlayerBuilder.obj
 0001:00117d24       ??1?$sp@VUsbHidDevice@@@@QAA@XZ 00128d24 f i iAP_lib:iAPPlayerBuilder.obj
 0001:00117d24       ??1?$sp@VNotifier@@@@QAA@XZ 00128d24 f i iAP_lib:iAPPlayerBuilder.obj
 0001:00117d24       ??1?$sp@VPcmPlayback@@@@QAA@XZ 00128d24 f i iAP_lib:iAPPlayerBuilder.obj
 0001:00117d24       ??1?$sp@ViAPRxCmd@@@@QAA@XZ 00128d24 f i iAP_lib:iAPTransceiver.obj
 0001:00117d24       ??1?$sp@VHIDReportSp@@@@QAA@XZ 00128d24 f i iAP_lib:RemoteControlMgr.obj
 0001:00117d24       ??1?$sp@VI2C@@@@QAA@XZ     00128d24 f i iAP_lib:iAPPlayerBuilder.obj
 0001:00117d24       ??1?$sp@VTransceiverMgr@@@@QAA@XZ 00128d24 f i iAP_lib:TransceiverMgr.obj
 0001:00117d24       ??1?$sp@VLyricSp@@@@QAA@XZ 00128d24 f i iAP_lib:Player.obj
 0001:00117d24       ??1?$sp@ViAPTransceiver@@@@QAA@XZ 00128d24 f i iAP_lib:iAPPlayerBuilder.obj
 0001:00117d24       ??1?$sp@VInterfaceI2C@@@@QAA@XZ 00128d24 f i iAP_lib:iAPPlayerBuilder.obj
 0001:00117d24       ??1?$sp@ViDevice@@@@QAA@XZ 00128d24 f i iAP_lib:iAPPlayerBuilder.obj
 0001:00117d24       ??1?$sp@ViPort@@@@QAA@XZ   00128d24 f i iAP_lib:iAPPlayerBuilder.obj
 0001:00117d24       ??1?$sp@VArtworkSp@@@@QAA@XZ 00128d24 f i iAP_lib:Player.obj
 0001:00117d5c       ??4?$sp@VLyricSp@@@@QAAAAV0@PAVLyricSp@@@Z 00128d5c f i iAP_lib:Player.obj
 0001:00117d5c       ??$?4VUartAdaptor@@@?$sp@ViPort@@@@QAAAAV0@PAVUartAdaptor@@@Z 00128d5c f i iAP_lib:iAPPlayerBuilder.obj
 0001:00117d5c       ??$?4VUsbHidAdaptor@@@?$sp@ViPort@@@@QAAAAV0@PAVUsbHidAdaptor@@@Z 00128d5c f i iAP_lib:iAPPlayerBuilder.obj
 0001:00117db4       ??0PlayerBuilder@@QAA@XZ   00128db4 f   iAP_lib:iAPPlayerBuilder.obj
 0001:00117f1c       ??_EPlayerBuilder@@W3AAPAXI@Z 00128f1c f i iAP_lib:iAPPlayerBuilder.obj
 0001:00117f2c       ??1PlayerBuilder@@UAA@XZ   00128f2c f   iAP_lib:iAPPlayerBuilder.obj
 0001:00118088       ?pauseBeforeClose@PlayerBuilder@@QAAXXZ 00129088 f   iAP_lib:iAPPlayerBuilder.obj
 0001:001180d4       ?buildCommunicationWithAppleDevice@PlayerBuilder@@AAAHXZ 001290d4 f   iAP_lib:iAPPlayerBuilder.obj
 0001:00118558       ?buildCommunicationWithCP@PlayerBuilder@@AAAXXZ 00129558 f   iAP_lib:iAPPlayerBuilder.obj
 0001:0011860c       ?buildCommunicationWithAuthentication@PlayerBuilder@@AAAXPAVAuthenticationListener@iAP@@@Z 0012960c f   iAP_lib:iAPPlayerBuilder.obj
 0001:0011868c       ?buildCommunicationWithBrowser@PlayerBuilder@@AAAXPAVBrowserListener@iAP@@@Z 0012968c f   iAP_lib:iAPPlayerBuilder.obj
 0001:00118704       ?buildCommunicationWithPlayer@PlayerBuilder@@AAAXPAVPlayerListener@iAP@@@Z 00129704 f   iAP_lib:iAPPlayerBuilder.obj
 0001:001187e4       ?buildCommunicationWithiOSCommunicationer@PlayerBuilder@@AAAXPAViOSCommunicationListener@iAP@@@Z 001297e4 f   iAP_lib:iAPPlayerBuilder.obj
 0001:0011885c       ?buildCommunicationWithRemoteControl@PlayerBuilder@@AAAXPAVRemoteControlListener@iAP@@@Z 0012985c f   iAP_lib:iAPPlayerBuilder.obj
 0001:001188cc       ?getExtendedUIModeAvailable@BrowsingMgr@@UAAHXZ 001298cc f   iAP_lib:BrowsingMgr.obj
 0001:001188cc       ?getBrowser@PlayerBuilder@@UAAPAViBrowser@iAP@@XZ 001298cc f   iAP_lib:iAPPlayerBuilder.obj
 0001:001188dc       ?OnPlugOut@PlayerBuilder@@UAAXXZ 001298dc f   iAP_lib:iAPPlayerBuilder.obj
 0001:00118960       ?sputc@?$basic_streambuf@DU?$char_traits@D@std@@@std@@QAAHD@Z 00129960 f i iAP_lib:iAPPlayerBuilder.obj
 0001:001189d0       ??_EPlayerBuilder@@UAAPAXI@Z 001299d0 f i iAP_lib:iAPPlayerBuilder.obj
 0001:001189d0       ??_GPlayerBuilder@@UAAPAXI@Z 001299d0 f i iAP_lib:iAPPlayerBuilder.obj
 0001:001189f4       ?destruct@PlayerBuilder@@UAAXXZ 001299f4 f   iAP_lib:iAPPlayerBuilder.obj
 0001:00118a34       ?what@logic_error@std@@UBAPBDXZ 00129a34 f i PanelBluetoothMain.obj
 0001:00118a34       ?what@runtime_error@std@@UBAPBDXZ 00129a34 f i iAP_lib:iAPPlayerBuilder.obj
 0001:00118a54       ??0runtime_error@std@@QAA@ABV?$basic_string@DU?$char_traits@D@std@@V?$allocator@D@2@@1@@Z 00129a54 f i iAP_lib:iAPPlayerBuilder.obj
 0001:00118acc       ??1failure@ios_base@std@@UAA@XZ 00129acc f i iAP_lib:iAPPlayerBuilder.obj
 0001:00118af8       ??_Gfailure@ios_base@std@@UAAPAXI@Z 00129af8 f i iAP_lib:iAPPlayerBuilder.obj
 0001:00118af8       ??_Gruntime_error@std@@UAAPAXI@Z 00129af8 f i iAP_lib:iAPPlayerBuilder.obj
 0001:00118af8       ??_Efailure@ios_base@std@@UAAPAXI@Z 00129af8 f i iAP_lib:iAPPlayerBuilder.obj
 0001:00118af8       ??_Eruntime_error@std@@UAAPAXI@Z 00129af8 f i iAP_lib:iAPPlayerBuilder.obj
 0001:00118b40       ?clear@ios_base@std@@QAAXH_N@Z 00129b40 f i iAP_lib:iAPPlayerBuilder.obj
 0001:00118cb4       ??0runtime_error@std@@QAA@ABV01@@Z 00129cb4 f i iAP_lib:iAPPlayerBuilder.obj
 0001:00118d2c       ??0failure@ios_base@std@@QAA@ABV012@@Z 00129d2c f i iAP_lib:iAPPlayerBuilder.obj
 0001:00118d4c       ?flush@?$basic_ostream@DU?$char_traits@D@std@@@std@@QAAAAV12@XZ 00129d4c f i iAP_lib:iAPPlayerBuilder.obj
 0001:00118dd4       ??0sentry@?$basic_ostream@DU?$char_traits@D@std@@@std@@QAA@AAV12@@Z 00129dd4 f i iAP_lib:iAPPlayerBuilder.obj
 0001:00118e8c       ?_Osfx@?$basic_ostream@DU?$char_traits@D@std@@@std@@QAAXXZ 00129e8c f i iAP_lib:iAPPlayerBuilder.obj
 0001:00118edc       ??1sentry@?$basic_ostream@DU?$char_traits@D@std@@@std@@QAA@XZ 00129edc f i iAP_lib:iAPPlayerBuilder.obj
 0001:00118f4c       ??$?6DU?$char_traits@D@std@@V?$allocator@D@1@@std@@YAAAV?$basic_ostream@DU?$char_traits@D@std@@@0@AAV10@ABV?$basic_string@DU?$char_traits@D@std@@V?$allocator@D@2@@0@@Z 00129f4c f i iAP_lib:iAPPlayerBuilder.obj
 0001:001191b0       ?put@?$basic_ostream@DU?$char_traits@D@std@@@std@@QAAAAV12@D@Z 0012a1b0 f i iAP_lib:iAPPlayerBuilder.obj
 0001:001192dc       ?printVersion@PlayerBuilder@@AAAXXZ 0012a2dc f   iAP_lib:iAPPlayerBuilder.obj
 0001:00119358       ?construct@PlayerBuilder@@UAAHPAVAuthenticationListener@iAP@@PAVBrowserListener@3@PAVPlayerListener@3@PAViOSCommunicationListener@3@PAVRemoteControlListener@3@@Z 0012a358 f   iAP_lib:iAPPlayerBuilder.obj
 0001:00119414       ?Uart@TransportMode@iAP@@SA?AV12@XZ 0012a414 f   iAP_lib:iAPTransportMode.obj
 0001:00119414       ??0TransportMode@iAP@@QAA@XZ 0012a414 f   iAP_lib:iAPTransportMode.obj
 0001:00119420       ?UsbDevice@TransportMode@iAP@@SA?AV12@XZ 0012a420 f   iAP_lib:iAPTransportMode.obj
 0001:0011942c       ??8TransportMode@iAP@@QBAHABV01@@Z 0012a42c f   iAP_lib:iAPTransportMode.obj
 0001:00119444       ??0iCP@@QAA@XZ             0012a444 f   iAP_lib:iCP.obj
 0001:00119468       ??1iCP@@UAA@XZ             0012a468 f   iAP_lib:iCP.obj
 0001:001194bc       ?iCPReadAuthenticationProtocalVersionandDeviceID@iCP@@QAAHPAE0PAI@Z 0012a4bc f   iAP_lib:iCP.obj
 0001:0011951c       ?iCPWriteChallengeLengthandData@iCP@@QAAHGABV?$vector@EV?$allocator@E@std@@@std@@@Z 0012a51c f   iAP_lib:iCP.obj
 0001:00119540       ?iCPGetError@iCP@@QAAEXZ   0012a540 f   iAP_lib:iCP.obj
 0001:00119574       ?iCPReadAuthenticationStatus@iCP@@AAAEXZ 0012a574 f   iAP_lib:iCP.obj
 0001:001195b4       ?setInterface@iCP@@QAAHV?$sp@VInterfaceI2C@@@@@Z 0012a5b4 f   iAP_lib:iCP.obj
 0001:00119600       ?iCPStartSignatureGenerationProcess@iCP@@QAAHXZ 0012a600 f   iAP_lib:iCP.obj
 0001:00119624       ?iCPIsSignatureSuccessfullyGenerated@iCP@@QAAHXZ 0012a624 f   iAP_lib:iCP.obj
 0001:00119640       ?getDataLength@iCP@@AAAHGPAG@Z 0012a640 f   iAP_lib:iCP.obj
 0001:001196a8       ??_GiCP@@UAAPAXI@Z         0012a6a8 f i iAP_lib:iCP.obj
 0001:001196a8       ??_EiCP@@UAAPAXI@Z         0012a6a8 f i iAP_lib:iCP.obj
 0001:001196cc       ?iCPReadAccessoryCertificateLengthandData@iCP@@QAAHPAGAAV?$vector@EV?$allocator@E@std@@@std@@@Z 0012a6cc f   iAP_lib:iCP.obj
 0001:00119710       ?iCPReadSignatureDataLengthandData@iCP@@QAAHPAGAAV?$vector@EV?$allocator@E@std@@@std@@@Z 0012a710 f   iAP_lib:iCP.obj
 0001:00119754       ??0PlugMonitor@@QAA@XZ     0012a754 f   iAP_lib:PlugMonitor.obj
 0001:0011976c       ??1iDevice@@UAA@XZ         0012a76c f   iAP_lib:iDevice.obj
 0001:0011976c       ??1InterfaceI2C@@UAA@XZ    0012a76c f   iAP_lib:InterfaceI2C.obj
 0001:0011976c       ??1RefBase@@MAA@XZ         0012a76c f   iAP_lib:iCP.obj
 0001:0011976c       ??1iPort@@UAA@XZ           0012a76c f   iAP_lib:iPort.obj
 0001:0011976c       ??1PlugMonitor@@UAA@XZ     0012a76c f   iAP_lib:PlugMonitor.obj
 0001:0011977c       ?notifyPlugListener@PlugMonitor@@QAAXXZ 0012a77c f   iAP_lib:PlugMonitor.obj
 0001:0011979c       ??0PlugListener@@QAA@XZ    0012a79c f   iAP_lib:PlugMonitor.obj
 0001:001197b0       ??1PlugListener@@UAA@XZ    0012a7b0 f   iAP_lib:PlugMonitor.obj
 0001:001197c0       ?isReceiving@TransceiverMgr@@SAHXZ 0012a7c0 f   iAP_lib:TransceiverMgr.obj
 0001:001197d0       ??4?$sp@VLyricSp@@@@QAAAAV0@ABV0@@Z 0012a7d0 f i iAP_lib:Player.obj
 0001:001197d0       ??4?$sp@VArtworkSp@@@@QAAAAV0@ABV0@@Z 0012a7d0 f i iAP_lib:Player.obj
 0001:001197d0       ??4?$sp@ViPort@@@@QAAAAV0@ABV0@@Z 0012a7d0 f i iAP_lib:iAPTransceiver.obj
 0001:001197d0       ??4?$sp@VInterfaceI2C@@@@QAAAAV0@ABV0@@Z 0012a7d0 f i iAP_lib:iCP.obj
 0001:001197d0       ??4?$sp@ViAPTransceiver@@@@QAAAAV0@ABV0@@Z 0012a7d0 f i iAP_lib:TransceiverMgr.obj
 0001:00119824       ??1?$sp@ViAPTxCmd@@@@QAA@XZ 0012a824 f i iAP_lib:TransceiverMgr.obj
 0001:00119868       ?setTransceiver@TransceiverMgr@@CAXV?$sp@ViAPTransceiver@@@@@Z 0012a868 f   iAP_lib:TransceiverMgr.obj
 0001:001198c8       ?getTransceiver@TransceiverMgr@@SA?AV?$sp@ViAPTransceiver@@@@XZ 0012a8c8 f   iAP_lib:TransceiverMgr.obj
 0001:001198f4       ?ReceiveThread@TransceiverMgr@@CAKPAX@Z 0012a8f4 f   iAP_lib:TransceiverMgr.obj
 0001:00119930       ?send@TransceiverMgr@@SAXV?$sp@ViAPTxCmd@@@@@Z 0012a930 f   iAP_lib:TransceiverMgr.obj
 0001:001199a8       ?startReceiving@TransceiverMgr@@CAXXZ 0012a9a8 f   iAP_lib:TransceiverMgr.obj
 0001:001199f8       ?setTransAndStartReceiving@TransceiverMgr@@SAXV?$sp@ViAPTransceiver@@@@@Z 0012a9f8 f   iAP_lib:TransceiverMgr.obj
 0001:00119a5c       ?setTransactionIdConfig@iAPTransceiver@@QAAXH@Z 0012aa5c f   iAP_lib:iAPTransceiver.obj
 0001:00119a64       ??Y?$_Vector_const_iterator@EV?$allocator@E@std@@@std@@QAAAAV01@H@Z 0012aa64 f i iAP_lib:iAPTransceiver.obj
 0001:00119ab8       ??$_Allocate@D@std@@YAPADIPAD@Z 0012aab8 f i PanelBluetoothMain.obj
 0001:00119ab8       ??$_Allocate@E@std@@YAPAEIPAE@Z 0012aab8 f i iAP_lib:iAPTransceiver.obj
 0001:00119b24       ??0iAPTransceiver@@QAA@V?$sp@VNotifier@@@@@Z 0012ab24 f   iAP_lib:iAPTransceiver.obj
 0001:00119b80       ??1iAPTransceiver@@UAA@XZ  0012ab80 f   iAP_lib:iAPTransceiver.obj
 0001:00119c00       ?initPort@iAPTransceiver@@UAAXV?$sp@ViPort@@@@@Z 0012ac00 f   iAP_lib:iAPTransceiver.obj
 0001:00119c48       ?close@iAPTransceiver@@UAAXXZ 0012ac48 f   iAP_lib:iAPTransceiver.obj
 0001:00119c60       ?sendPacket@iAPTransceiver@@MAAHAAV?$vector@EV?$allocator@E@std@@@std@@@Z 0012ac60 f   iAP_lib:iAPTransceiver.obj
 0001:00119ca4       ?findPacketStart_@iAPTransceiver@@AAAHXZ 0012aca4 f   iAP_lib:iAPTransceiver.obj
 0001:00119ce8       ?getNotifier@iAPTransceiver@@QBA?AV?$sp@VNotifier@@@@XZ 0012ace8 f   iAP_lib:iAPTransceiver.obj
 0001:00119d0c       ??_GiAPTransceiver@@UAAPAXI@Z 0012ad0c f i iAP_lib:iAPTransceiver.obj
 0001:00119d0c       ??_EiAPTransceiver@@UAAPAXI@Z 0012ad0c f i iAP_lib:iAPTransceiver.obj
 0001:00119d30       ??H?$_Vector_iterator@EV?$allocator@E@std@@@std@@QBA?AV01@H@Z 0012ad30 f i iAP_lib:iAPTransceiver.obj
 0001:00119d74       ?validateChecksum_@iAPTransceiver@@AAAHGAAV?$vector@EV?$allocator@E@std@@@std@@@Z 0012ad74 f   iAP_lib:iAPTransceiver.obj
 0001:00119dec       ?erase@?$vector@EV?$allocator@E@std@@@std@@QAA?AV?$_Vector_iterator@EV?$allocator@E@std@@@2@V32@0@Z 0012adec f i iAP_lib:iAPTransceiver.obj
 0001:00119e64       ?extractTransactionIDinPacket_@iAPTransceiver@@AAAXAAV?$vector@EV?$allocator@E@std@@@std@@PAG@Z 0012ae64 f   iAP_lib:iAPTransceiver.obj
 0001:0011a048       ?_Buy@?$vector@EV?$allocator@E@std@@@std@@IAA_NI@Z 0012b048 f i iAP_lib:iAPTransceiver.obj
 0001:0011a09c       ?_Insert_n@?$vector@EV?$allocator@E@std@@@std@@IAAXV?$_Vector_iterator@EV?$allocator@E@std@@@2@IABE@Z 0012b09c f i iAP_lib:iAPTransceiver.obj
 0001:0011a2d0       ?_Construct_n@?$vector@EV?$allocator@E@std@@@std@@QAAXIABE@Z 0012b2d0 f i iAP_lib:iAPTransceiver.obj
 0001:0011a31c       ?resize@?$vector@EV?$allocator@E@std@@@std@@QAAXIE@Z 0012b31c f i iAP_lib:iAPTransceiver.obj
 0001:0011a404       ?insert@?$vector@EV?$allocator@E@std@@@std@@QAA?AV?$_Vector_iterator@EV?$allocator@E@std@@@2@V32@ABE@Z 0012b404 f i iAP_lib:iAPTransceiver.obj
 0001:0011a4c0       ?ReceiveLoop@iAPTransceiver@@QAAHXZ 0012b4c0 f   iAP_lib:iAPTransceiver.obj
 0001:0011a5b4       ?push_back@?$vector@EV?$allocator@E@std@@@std@@QAAXABE@Z 0012b5b4 f i iAP_lib:iAPTransceiver.obj
 0001:0011a63c       ?preparePacketHeader_@iAPTransceiver@@AAAXV?$sp@ViAPTxCmd@@@@AAV?$vector@EV?$allocator@E@std@@@std@@@Z 0012b63c f   iAP_lib:iAPTransceiver.obj
 0001:0011a8c8       ?preparePacketFooter_@iAPTransceiver@@AAAXAAV?$vector@EV?$allocator@E@std@@@std@@@Z 0012b8c8 f   iAP_lib:iAPTransceiver.obj
 0001:0011a93c       ?preparePacketPayload_@iAPTransceiver@@AAAXV?$sp@ViAPTxCmd@@@@AAV?$vector@EV?$allocator@E@std@@@std@@@Z 0012b93c f   iAP_lib:iAPTransceiver.obj
 0001:0011aa78       ?getPacketLength_@iAPTransceiver@@AAAGXZ 0012ba78 f   iAP_lib:iAPTransceiver.obj
 0001:0011ab54       ?getPacketPayload_@iAPTransceiver@@AAAHGAAV?$vector@EV?$allocator@E@std@@@std@@@Z 0012bb54 f   iAP_lib:iAPTransceiver.obj
 0001:0011ab94       ?generatePacket@iAPTransceiver@@IAAHV?$sp@ViAPTxCmd@@@@AAV?$vector@EV?$allocator@E@std@@@std@@@Z 0012bb94 f   iAP_lib:iAPTransceiver.obj
 0001:0011ac40       ?getPacket@iAPTransceiver@@UAAHAAV?$vector@EV?$allocator@E@std@@@std@@@Z 0012bc40 f   iAP_lib:iAPTransceiver.obj
 0001:0011acb0       ?send@iAPTransceiver@@UAAHV?$sp@ViAPTxCmd@@@@@Z 0012bcb0 f   iAP_lib:iAPTransceiver.obj
 0001:0011ad98       ??1iAPCommandTag@@QAA@XZ   0012bd98 f i iAP_lib:iAPNotifier.obj
 0001:0011ae04       ??MiAPCommandTag@@QBA_NABU0@@Z 0012be04 f i iAP_lib:iAPNotifier.obj
 0001:0011ae98       ??_GiAPCommandId@@UAAPAXI@Z 0012be98 f i iAP_lib:iAPNotifier.obj
 0001:0011ae98       ??_EiAPCommandId@@UAAPAXI@Z 0012be98 f i iAP_lib:iAPNotifier.obj
 0001:0011aebc       ??1?$pair@$$CBUiAPCommandTag@@V?$Callback@XV?$sp@ViAPRxCmd@@@@UNil@@U2@U2@U2@U2@U2@@@@std@@QAA@XZ 0012bebc f i iAP_lib:iAPNotifier.obj
 0001:0011aebc       ??1?$pair@UiAPCommandTag@@V?$Callback@XV?$sp@ViAPRxCmd@@@@UNil@@U2@U2@U2@U2@U2@@@@std@@QAA@XZ 0012bebc f i iAP_lib:iAPNotifier.obj
 0001:0011aec0       ?_Dec@const_iterator@?$_Tree@V?$_Tmap_traits@UiAPCommandTag@@V?$Callback@XV?$sp@ViAPRxCmd@@@@UNil@@U2@U2@U2@U2@U2@@@U?$less@UiAPCommandTag@@@std@@V?$allocator@U?$pair@$$CBUiAPCommandTag@@V?$Callback@XV?$sp@ViAPRxCmd@@@@UNil@@U2@U2@U2@U2@U2@@@@std@@@4@$0A@@std@@@std@@QAAXXZ 0012bec0 f i iAP_lib:iAPNotifier.obj
 0001:0011af90       ?_Inc@const_iterator@?$_Tree@V?$_Tmap_traits@UiAPCommandTag@@V?$Callback@XV?$sp@ViAPRxCmd@@@@UNil@@U2@U2@U2@U2@U2@@@U?$less@UiAPCommandTag@@@std@@V?$allocator@U?$pair@$$CBUiAPCommandTag@@V?$Callback@XV?$sp@ViAPRxCmd@@@@UNil@@U2@U2@U2@U2@U2@@@@std@@@4@$0A@@std@@@std@@QAAXXZ 0012bf90 f i iAP_lib:iAPNotifier.obj
 0001:0011b02c       ??$_Allocate@U_Node@?$_Tree_nod@V?$_Tmap_traits@UiAPCommandTag@@V?$Callback@XV?$sp@ViAPRxCmd@@@@UNil@@U2@U2@U2@U2@U2@@@U?$less@UiAPCommandTag@@@std@@V?$allocator@U?$pair@$$CBUiAPCommandTag@@V?$Callback@XV?$sp@ViAPRxCmd@@@@UNil@@U2@U2@U2@U2@U2@@@@std@@@4@$0A@@std@@@std@@@std@@YAPAU_Node@?$_Tree_nod@V?$_Tmap_traits@UiAPCommandTag@@V?$Callback@XV?$sp@ViAPRxCmd@@@@UNil@@U2@U2@U2@U2@U2@@@U?$less@UiAPCommandTag@@@std@@V?$allocator@U?$pair@$$CBUiAPCommandTag@@V?$Callback@XV?$sp@ViAPRxCmd@@@@UNil@@U2@U2@U2@U2@U2@@@@std@@@4@$0A@@std@@@0@IPAU120@@Z 0012c02c f i iAP_lib:iAPNotifier.obj
 0001:0011b0a4       ??0iAPCommandTag@@QAA@ViAPLingoId@@ViAPCommandId@@1@Z 0012c0a4 f i iAP_lib:iAPNotifier.obj
 0001:0011b14c       ??1?$ArgSet@V?$sp@ViAPRxCmd@@@@UNil@@U2@U2@U2@U2@U2@@@QAA@XZ 0012c14c f i iAP_lib:iAPNotifier.obj
 0001:0011b150       ?_Lbound@?$_Tree@V?$_Tmap_traits@UiAPCommandTag@@V?$Callback@XV?$sp@ViAPRxCmd@@@@UNil@@U2@U2@U2@U2@U2@@@U?$less@UiAPCommandTag@@@std@@V?$allocator@U?$pair@$$CBUiAPCommandTag@@V?$Callback@XV?$sp@ViAPRxCmd@@@@UNil@@U2@U2@U2@U2@U2@@@@std@@@4@$0A@@std@@@std@@IBAPAU_Node@?$_Tree_nod@V?$_Tmap_traits@UiAPCommandTag@@V?$Callback@XV?$sp@ViAPRxCmd@@@@UNil@@U2@U2@U2@U2@U2@@@U?$less@UiAPCommandTag@@@std@@V?$allocator@U?$pair@$$CBUiAPCommandTag@@V?$Callback@XV?$sp@ViAPRxCmd@@@@UNil@@U2@U2@U2@U2@U2@@@@std@@@4@$0A@@std@@@2@ABUiAPCommandTag@@@Z 0012c150 f i iAP_lib:iAPNotifier.obj
 0001:0011b198       ?_Lrotate@?$_Tree@V?$_Tmap_traits@UiAPCommandTag@@V?$Callback@XV?$sp@ViAPRxCmd@@@@UNil@@U2@U2@U2@U2@U2@@@U?$less@UiAPCommandTag@@@std@@V?$allocator@U?$pair@$$CBUiAPCommandTag@@V?$Callback@XV?$sp@ViAPRxCmd@@@@UNil@@U2@U2@U2@U2@U2@@@@std@@@4@$0A@@std@@@std@@IAAXPAU_Node@?$_Tree_nod@V?$_Tmap_traits@UiAPCommandTag@@V?$Callback@XV?$sp@ViAPRxCmd@@@@UNil@@U2@U2@U2@U2@U2@@@U?$less@UiAPCommandTag@@@std@@V?$allocator@U?$pair@$$CBUiAPCommandTag@@V?$Callback@XV?$sp@ViAPRxCmd@@@@UNil@@U2@U2@U2@U2@U2@@@@std@@@4@$0A@@std@@@2@@Z 0012c198 f i iAP_lib:iAPNotifier.obj
 0001:0011b200       ?_Rrotate@?$_Tree@V?$_Tmap_traits@UiAPCommandTag@@V?$Callback@XV?$sp@ViAPRxCmd@@@@UNil@@U2@U2@U2@U2@U2@@@U?$less@UiAPCommandTag@@@std@@V?$allocator@U?$pair@$$CBUiAPCommandTag@@V?$Callback@XV?$sp@ViAPRxCmd@@@@UNil@@U2@U2@U2@U2@U2@@@@std@@@4@$0A@@std@@@std@@IAAXPAU_Node@?$_Tree_nod@V?$_Tmap_traits@UiAPCommandTag@@V?$Callback@XV?$sp@ViAPRxCmd@@@@UNil@@U2@U2@U2@U2@U2@@@U?$less@UiAPCommandTag@@@std@@V?$allocator@U?$pair@$$CBUiAPCommandTag@@V?$Callback@XV?$sp@ViAPRxCmd@@@@UNil@@U2@U2@U2@U2@U2@@@@std@@@4@$0A@@std@@@2@@Z 0012c200 f i iAP_lib:iAPNotifier.obj
 0001:0011b270       ?_Ubound@?$_Tree@V?$_Tmap_traits@UiAPCommandTag@@V?$Callback@XV?$sp@ViAPRxCmd@@@@UNil@@U2@U2@U2@U2@U2@@@U?$less@UiAPCommandTag@@@std@@V?$allocator@U?$pair@$$CBUiAPCommandTag@@V?$Callback@XV?$sp@ViAPRxCmd@@@@UNil@@U2@U2@U2@U2@U2@@@@std@@@4@$0A@@std@@@std@@IBAPAU_Node@?$_Tree_nod@V?$_Tmap_traits@UiAPCommandTag@@V?$Callback@XV?$sp@ViAPRxCmd@@@@UNil@@U2@U2@U2@U2@U2@@@U?$less@UiAPCommandTag@@@std@@V?$allocator@U?$pair@$$CBUiAPCommandTag@@V?$Callback@XV?$sp@ViAPRxCmd@@@@UNil@@U2@U2@U2@U2@U2@@@@std@@@4@$0A@@std@@@2@ABUiAPCommandTag@@@Z 0012c270 f i iAP_lib:iAPNotifier.obj
 0001:0011b2c0       ??$make_pair@UiAPCommandTag@@V?$Callback@XV?$sp@ViAPRxCmd@@@@UNil@@U2@U2@U2@U2@U2@@@@std@@YA?AU?$pair@UiAPCommandTag@@V?$Callback@XV?$sp@ViAPRxCmd@@@@UNil@@U2@U2@U2@U2@U2@@@@0@UiAPCommandTag@@V?$Callback@XV?$sp@ViAPRxCmd@@@@UNil@@U2@U2@U2@U2@U2@@@@Z 0012c2c0 f i iAP_lib:iAPNotifier.obj
 0001:0011b380       ??R?$Callback@XV?$sp@ViAPRxCmd@@@@UNil@@U2@U2@U2@U2@U2@@@QAAXV?$sp@ViAPRxCmd@@@@@Z 0012c380 f i iAP_lib:iAPNotifier.obj
 0001:0011b484       ?_Buynode@?$_Tree@V?$_Tmap_traits@UiAPCommandTag@@V?$Callback@XV?$sp@ViAPRxCmd@@@@UNil@@U2@U2@U2@U2@U2@@@U?$less@UiAPCommandTag@@@std@@V?$allocator@U?$pair@$$CBUiAPCommandTag@@V?$Callback@XV?$sp@ViAPRxCmd@@@@UNil@@U2@U2@U2@U2@U2@@@@std@@@4@$0A@@std@@@std@@IAAPAU_Node@?$_Tree_nod@V?$_Tmap_traits@UiAPCommandTag@@V?$Callback@XV?$sp@ViAPRxCmd@@@@UNil@@U2@U2@U2@U2@U2@@@U?$less@UiAPCommandTag@@@std@@V?$allocator@U?$pair@$$CBUiAPCommandTag@@V?$Callback@XV?$sp@ViAPRxCmd@@@@UNil@@U2@U2@U2@U2@U2@@@@std@@@4@$0A@@std@@@2@PAU342@00ABU?$pair@$$CBUiAPCommandTag@@V?$Callback@XV?$sp@ViAPRxCmd@@@@UNil@@U2@U2@U2@U2@U2@@@@2@D@Z 0012c484 f i iAP_lib:iAPNotifier.obj
 0001:0011b510       ?_Buynode@?$_Tree@V?$_Tmap_traits@UiAPCommandTag@@V?$Callback@XV?$sp@ViAPRxCmd@@@@UNil@@U2@U2@U2@U2@U2@@@U?$less@UiAPCommandTag@@@std@@V?$allocator@U?$pair@$$CBUiAPCommandTag@@V?$Callback@XV?$sp@ViAPRxCmd@@@@UNil@@U2@U2@U2@U2@U2@@@@std@@@4@$0A@@std@@@std@@IAAPAU_Node@?$_Tree_nod@V?$_Tmap_traits@UiAPCommandTag@@V?$Callback@XV?$sp@ViAPRxCmd@@@@UNil@@U2@U2@U2@U2@U2@@@U?$less@UiAPCommandTag@@@std@@V?$allocator@U?$pair@$$CBUiAPCommandTag@@V?$Callback@XV?$sp@ViAPRxCmd@@@@UNil@@U2@U2@U2@U2@U2@@@@std@@@4@$0A@@std@@@2@XZ 0012c510 f i iAP_lib:iAPNotifier.obj
 0001:0011b54c       ??$_Distance2@Viterator@?$_Tree@V?$_Tmap_traits@UiAPCommandTag@@V?$Callback@XV?$sp@ViAPRxCmd@@@@UNil@@U2@U2@U2@U2@U2@@@U?$less@UiAPCommandTag@@@std@@V?$allocator@U?$pair@$$CBUiAPCommandTag@@V?$Callback@XV?$sp@ViAPRxCmd@@@@UNil@@U2@U2@U2@U2@U2@@@@std@@@4@$0A@@std@@@std@@I@std@@YAXViterator@?$_Tree@V?$_Tmap_traits@UiAPCommandTag@@V?$Callback@XV?$sp@ViAPRxCmd@@@@UNil@@U2@U2@U2@U2@U2@@@U?$less@UiAPCommandTag@@@std@@V?$allocator@U?$pair@$$CBUiAPCommandTag@@V?$Callback@XV?$sp@ViAPRxCmd@@@@UNil@@U2@U2@U2@U2@U2@@@@std@@@4@$0A@@std@@@0@0AAIUbidirectional_iterator_tag@0@@Z 0012c54c f i iAP_lib:iAPNotifier.obj
 0001:0011b598       ?equal_range@?$_Tree@V?$_Tmap_traits@UiAPCommandTag@@V?$Callback@XV?$sp@ViAPRxCmd@@@@UNil@@U2@U2@U2@U2@U2@@@U?$less@UiAPCommandTag@@@std@@V?$allocator@U?$pair@$$CBUiAPCommandTag@@V?$Callback@XV?$sp@ViAPRxCmd@@@@UNil@@U2@U2@U2@U2@U2@@@@std@@@4@$0A@@std@@@std@@QAA?AU?$pair@Viterator@?$_Tree@V?$_Tmap_traits@UiAPCommandTag@@V?$Callback@XV?$sp@ViAPRxCmd@@@@UNil@@U2@U2@U2@U2@U2@@@U?$less@UiAPCommandTag@@@std@@V?$allocator@U?$pair@$$CBUiAPCommandTag@@V?$Callback@XV?$sp@ViAPRxCmd@@@@UNil@@U2@U2@U2@U2@U2@@@@std@@@4@$0A@@std@@@std@@V123@@2@ABUiAPCommandTag@@@Z 0012c598 f i iAP_lib:iAPNotifier.obj
 0001:0011b5e8       ?_Init@?$_Tree@V?$_Tmap_traits@UiAPCommandTag@@V?$Callback@XV?$sp@ViAPRxCmd@@@@UNil@@U2@U2@U2@U2@U2@@@U?$less@UiAPCommandTag@@@std@@V?$allocator@U?$pair@$$CBUiAPCommandTag@@V?$Callback@XV?$sp@ViAPRxCmd@@@@UNil@@U2@U2@U2@U2@U2@@@@std@@@4@$0A@@std@@@std@@IAAXXZ 0012c5e8 f i iAP_lib:iAPNotifier.obj
 0001:0011b624       ?find@?$_Tree@V?$_Tmap_traits@UiAPCommandTag@@V?$Callback@XV?$sp@ViAPRxCmd@@@@UNil@@U2@U2@U2@U2@U2@@@U?$less@UiAPCommandTag@@@std@@V?$allocator@U?$pair@$$CBUiAPCommandTag@@V?$Callback@XV?$sp@ViAPRxCmd@@@@UNil@@U2@U2@U2@U2@U2@@@@std@@@4@$0A@@std@@@std@@QAA?AViterator@12@ABUiAPCommandTag@@@Z 0012c624 f i iAP_lib:iAPNotifier.obj
 0001:0011b6b8       ?_Erase@?$_Tree@V?$_Tmap_traits@UiAPCommandTag@@V?$Callback@XV?$sp@ViAPRxCmd@@@@UNil@@U2@U2@U2@U2@U2@@@U?$less@UiAPCommandTag@@@std@@V?$allocator@U?$pair@$$CBUiAPCommandTag@@V?$Callback@XV?$sp@ViAPRxCmd@@@@UNil@@U2@U2@U2@U2@U2@@@@std@@@4@$0A@@std@@@std@@IAAXPAU_Node@?$_Tree_nod@V?$_Tmap_traits@UiAPCommandTag@@V?$Callback@XV?$sp@ViAPRxCmd@@@@UNil@@U2@U2@U2@U2@U2@@@U?$less@UiAPCommandTag@@@std@@V?$allocator@U?$pair@$$CBUiAPCommandTag@@V?$Callback@XV?$sp@ViAPRxCmd@@@@UNil@@U2@U2@U2@U2@U2@@@@std@@@4@$0A@@std@@@2@@Z 0012c6b8 f i iAP_lib:iAPNotifier.obj
 0001:0011b710       ?getAckCommandId@Notifier@@AAA?AViAPCommandId@@V?$sp@ViAPRxCmd@@@@@Z 0012c710 f   iAP_lib:iAPNotifier.obj
 0001:0011bbbc       ?removeCallbacks@Notifier@@QAAXXZ 0012cbbc f   iAP_lib:iAPNotifier.obj
 0001:0011bc0c       ?notify@Notifier@@QAAXV?$sp@ViAPRxCmd@@@@@Z 0012cc0c f   iAP_lib:iAPNotifier.obj
 0001:0011bdb8       ?erase@?$_Tree@V?$_Tmap_traits@UiAPCommandTag@@V?$Callback@XV?$sp@ViAPRxCmd@@@@UNil@@U2@U2@U2@U2@U2@@@U?$less@UiAPCommandTag@@@std@@V?$allocator@U?$pair@$$CBUiAPCommandTag@@V?$Callback@XV?$sp@ViAPRxCmd@@@@UNil@@U2@U2@U2@U2@U2@@@@std@@@4@$0A@@std@@@std@@QAA?AViterator@12@V312@@Z 0012cdb8 f i iAP_lib:iAPNotifier.obj
 0001:0011c22c       ?erase@?$_Tree@V?$_Tmap_traits@UiAPCommandTag@@V?$Callback@XV?$sp@ViAPRxCmd@@@@UNil@@U2@U2@U2@U2@U2@@@U?$less@UiAPCommandTag@@@std@@V?$allocator@U?$pair@$$CBUiAPCommandTag@@V?$Callback@XV?$sp@ViAPRxCmd@@@@UNil@@U2@U2@U2@U2@U2@@@@std@@@4@$0A@@std@@@std@@QAA?AViterator@12@V312@0@Z 0012d22c f i iAP_lib:iAPNotifier.obj
 0001:0011c340       ?_Insert@?$_Tree@V?$_Tmap_traits@UiAPCommandTag@@V?$Callback@XV?$sp@ViAPRxCmd@@@@UNil@@U2@U2@U2@U2@U2@@@U?$less@UiAPCommandTag@@@std@@V?$allocator@U?$pair@$$CBUiAPCommandTag@@V?$Callback@XV?$sp@ViAPRxCmd@@@@UNil@@U2@U2@U2@U2@U2@@@@std@@@4@$0A@@std@@@std@@IAA?AViterator@12@_NPAU_Node@?$_Tree_nod@V?$_Tmap_traits@UiAPCommandTag@@V?$Callback@XV?$sp@ViAPRxCmd@@@@UNil@@U2@U2@U2@U2@U2@@@U?$less@UiAPCommandTag@@@std@@V?$allocator@U?$pair@$$CBUiAPCommandTag@@V?$Callback@XV?$sp@ViAPRxCmd@@@@UNil@@U2@U2@U2@U2@U2@@@@std@@@4@$0A@@std@@@2@ABU?$pair@$$CBUiAPCommandTag@@V?$Callback@XV?$sp@ViAPRxCmd@@@@UNil@@U2@U2@U2@U2@U2@@@@2@@Z 0012d340 f i iAP_lib:iAPNotifier.obj
 0001:0011c598       ?_Tidy@?$_Tree@V?$_Tmap_traits@UiAPCommandTag@@V?$Callback@XV?$sp@ViAPRxCmd@@@@UNil@@U2@U2@U2@U2@U2@@@U?$less@UiAPCommandTag@@@std@@V?$allocator@U?$pair@$$CBUiAPCommandTag@@V?$Callback@XV?$sp@ViAPRxCmd@@@@UNil@@U2@U2@U2@U2@U2@@@@std@@@4@$0A@@std@@@std@@IAAXXZ 0012d598 f i iAP_lib:iAPNotifier.obj
 0001:0011c5dc       ?insert@?$_Tree@V?$_Tmap_traits@UiAPCommandTag@@V?$Callback@XV?$sp@ViAPRxCmd@@@@UNil@@U2@U2@U2@U2@U2@@@U?$less@UiAPCommandTag@@@std@@V?$allocator@U?$pair@$$CBUiAPCommandTag@@V?$Callback@XV?$sp@ViAPRxCmd@@@@UNil@@U2@U2@U2@U2@U2@@@@std@@@4@$0A@@std@@@std@@QAA?AU?$pair@Viterator@?$_Tree@V?$_Tmap_traits@UiAPCommandTag@@V?$Callback@XV?$sp@ViAPRxCmd@@@@UNil@@U2@U2@U2@U2@U2@@@U?$less@UiAPCommandTag@@@std@@V?$allocator@U?$pair@$$CBUiAPCommandTag@@V?$Callback@XV?$sp@ViAPRxCmd@@@@UNil@@U2@U2@U2@U2@U2@@@@std@@@4@$0A@@std@@@std@@_N@2@ABU?$pair@$$CBUiAPCommandTag@@V?$Callback@XV?$sp@ViAPRxCmd@@@@UNil@@U2@U2@U2@U2@U2@@@@2@@Z 0012d5dc f i iAP_lib:iAPNotifier.obj
 0001:0011c704       ?erase@?$_Tree@V?$_Tmap_traits@UiAPCommandTag@@V?$Callback@XV?$sp@ViAPRxCmd@@@@UNil@@U2@U2@U2@U2@U2@@@U?$less@UiAPCommandTag@@@std@@V?$allocator@U?$pair@$$CBUiAPCommandTag@@V?$Callback@XV?$sp@ViAPRxCmd@@@@UNil@@U2@U2@U2@U2@U2@@@@std@@@4@$0A@@std@@@std@@QAAIABUiAPCommandTag@@@Z 0012d704 f i iAP_lib:iAPNotifier.obj
 0001:0011c780       ??1Notifier@@UAA@XZ        0012d780 f   iAP_lib:iAPNotifier.obj
 0001:0011c7dc       ?registerCallback@Notifier@@QAAXAAViAPLingoId@@AAViAPCommandId@@AAV?$Callback@XV?$sp@ViAPRxCmd@@@@UNil@@U2@U2@U2@U2@U2@@@@Z 0012d7dc f   iAP_lib:iAPNotifier.obj
 0001:0011c924       ?removeCallback@Notifier@@QAAXAAViAPLingoId@@AAViAPCommandId@@@Z 0012d924 f   iAP_lib:iAPNotifier.obj
 0001:0011c9a4       ?registerGeneralAckCallback@Notifier@@QAAXAAViAPCommandId@@AAV?$Callback@XV?$sp@ViAPRxCmd@@@@UNil@@U2@U2@U2@U2@U2@@@@Z 0012d9a4 f   iAP_lib:iAPNotifier.obj
 0001:0011cb50       ?registerExtendedAckCallback@Notifier@@QAAXAAViAPCommandId@@AAV?$Callback@XV?$sp@ViAPRxCmd@@@@UNil@@U2@U2@U2@U2@U2@@@@Z 0012db50 f   iAP_lib:iAPNotifier.obj
 0001:0011ccfc       ?removeExtendedAckCallback@Notifier@@QAAXAAViAPCommandId@@@Z 0012dcfc f   iAP_lib:iAPNotifier.obj
 0001:0011cdc8       ?registerDisplayRemoteAckCallback@Notifier@@QAAXAAViAPCommandId@@AAV?$Callback@XV?$sp@ViAPRxCmd@@@@UNil@@U2@U2@U2@U2@U2@@@@Z 0012ddc8 f   iAP_lib:iAPNotifier.obj
 0001:0011cf74       ??0Notifier@@QAA@XZ        0012df74 f   iAP_lib:iAPNotifier.obj
 0001:0011cfc8       ??_GNotifier@@UAAPAXI@Z    0012dfc8 f i iAP_lib:iAPNotifier.obj
 0001:0011cfc8       ??_ENotifier@@UAAPAXI@Z    0012dfc8 f i iAP_lib:iAPNotifier.obj
 0001:0011cff4       ??0UartAdaptor@@QAA@V?$sp@ViDevice@@@@@Z 0012dff4 f   iAP_lib:UartAdaptor.obj
 0001:0011d06c       ??_GUartAdaptor@@UAAPAXI@Z 0012e06c f i iAP_lib:UartAdaptor.obj
 0001:0011d06c       ??_EUartAdaptor@@UAAPAXI@Z 0012e06c f i iAP_lib:UartAdaptor.obj
 0001:0011d09c       ?readBytes@UartAdaptor@@UAAHAAV?$vector@EV?$allocator@E@std@@@std@@I@Z 0012e09c f   iAP_lib:UartAdaptor.obj
 0001:0011d184       ??_EiDevice@@UAAPAXI@Z     0012e184 f i iAP_lib:Uart.obj
 0001:0011d184       ??_GiDevice@@UAAPAXI@Z     0012e184 f i iAP_lib:Uart.obj
 0001:0011d1a8       ?close@Uart@@EAAXXZ        0012e1a8 f   iAP_lib:Uart.obj
 0001:0011d1e4       ?read@Uart@@EAAHPAEIPAI@Z  0012e1e4 f   iAP_lib:Uart.obj
 0001:0011d21c       ?write@Uart@@EAAHQBEI@Z    0012e21c f   iAP_lib:Uart.obj
 0001:0011d248       ?setCommState_@Uart@@AAAHHHHH@Z 0012e248 f   iAP_lib:Uart.obj
 0001:0011d2ec       ?setTimeout_@Uart@@AAAHH@Z 0012e2ec f   iAP_lib:Uart.obj
 0001:0011d404       ??0Uart@@QAA@PB_WIIII@Z    0012e404 f   iAP_lib:Uart.obj
 0001:0011d460       ??_EUart@@UAAPAXI@Z        0012e460 f i iAP_lib:Uart.obj
 0001:0011d460       ??_GUart@@UAAPAXI@Z        0012e460 f i iAP_lib:Uart.obj
 0001:0011d490       ?open@Uart@@EAAHXZ         0012e490 f   iAP_lib:Uart.obj
 0001:0011d550       ??D?$_Deque_const_iterator@EV?$allocator@E@std@@$00@std@@QBAABEXZ 0012e550 f i iAP_lib:UsbHidAdaptor.obj
 0001:0011d5ac       ??0?$_Deque_const_iterator@EV?$allocator@E@std@@$00@std@@QAA@IPBU_Container_base@1@@Z 0012e5ac f i iAP_lib:UsbHidAdaptor.obj
 0001:0011d5f8       ??$_Allocate@PAE@std@@YAPAPAEIPAPAE@Z 0012e5f8 f i iAP_lib:UsbHidAdaptor.obj
 0001:0011d5f8       ??$_Allocate@PAVAuthenticationListener@iAP@@@std@@YAPAPAVAuthenticationListener@iAP@@IPAPAV12@@Z 0012e5f8 f i iAP_lib:AuthenticationMgr.obj
 0001:0011d664       ?pop_front@?$deque@EV?$allocator@E@std@@@std@@QAAXXZ 0012e664 f i iAP_lib:UsbHidAdaptor.obj
 0001:0011d6ac       ?_Tidy@?$deque@EV?$allocator@E@std@@@std@@IAAXXZ 0012e6ac f i iAP_lib:UsbHidAdaptor.obj
 0001:0011d740       ??_EUsbHidAdaptor@@UAAPAXI@Z 0012e740 f i iAP_lib:UsbHidAdaptor.obj
 0001:0011d740       ??_GUsbHidAdaptor@@UAAPAXI@Z 0012e740 f i iAP_lib:UsbHidAdaptor.obj
 0001:0011d780       ??0UsbHidAdaptor@@QAA@V?$sp@ViDevice@@@@@Z 0012e780 f   iAP_lib:UsbHidAdaptor.obj
 0001:0011d818       ?_Xlen@?$deque@EV?$allocator@E@std@@@std@@KAXXZ 0012e818 f i iAP_lib:UsbHidAdaptor.obj
 0001:0011d884       ?_Growmap@?$deque@EV?$allocator@E@std@@@std@@IAAXI@Z 0012e884 f i iAP_lib:UsbHidAdaptor.obj
 0001:0011da10       ?push_back@?$deque@EV?$allocator@E@std@@@std@@QAAXABE@Z 0012ea10 f i iAP_lib:UsbHidAdaptor.obj
 0001:0011dab0       ?getFromBuffer_@UsbHidAdaptor@@AAAXAAV?$vector@EV?$allocator@E@std@@@std@@I@Z 0012eab0 f   iAP_lib:UsbHidAdaptor.obj
 0001:0011db20       ?readFromDeviceToBuffer_@UsbHidAdaptor@@AAAHI@Z 0012eb20 f   iAP_lib:UsbHidAdaptor.obj
 0001:0011dbd8       ?readBytes@UsbHidAdaptor@@UAAHAAV?$vector@EV?$allocator@E@std@@@std@@I@Z 0012ebd8 f   iAP_lib:UsbHidAdaptor.obj
 0001:0011dc2c       ??0UsbHidProxy@@QAA@V?$sp@ViDevice@@@@@Z 0012ec2c f   iAP_lib:UsbHidProxy.obj
 0001:0011dcfc       ??1UsbHidProxy@@UAA@XZ     0012ecfc f   iAP_lib:UsbHidProxy.obj
 0001:0011dd70       ?close@UsbHidProxy@@UAAXXZ 0012ed70 f   iAP_lib:UsbHidProxy.obj
 0001:0011ddc0       ?read@UsbHidProxy@@UAAHPAEIPAI@Z 0012edc0 f   iAP_lib:UsbHidProxy.obj
 0001:0011de68       ?write@UsbHidProxy@@UAAHQBEI@Z 0012ee68 f   iAP_lib:UsbHidProxy.obj
 0001:0011de80       ?ReadThreadProc@UsbHidProxy@@AAAKXZ 0012ee80 f   iAP_lib:UsbHidProxy.obj
 0001:0011df74       ??_EUsbHidProxy@@UAAPAXI@Z 0012ef74 f i iAP_lib:UsbHidProxy.obj
 0001:0011df74       ??_GUsbHidProxy@@UAAPAXI@Z 0012ef74 f i iAP_lib:UsbHidProxy.obj
 0001:0011df98       ?UsbHidProxyThread@UsbHidProxy@@CAKPAX@Z 0012ef98 f   iAP_lib:UsbHidProxy.obj
 0001:0011dfc0       ?open@UsbHidProxy@@UAAHXZ  0012efc0 f   iAP_lib:UsbHidProxy.obj
 0001:0011e07c       ??1UsbHidDevice@@UAA@XZ    0012f07c f   iAP_lib:UsbHidDevice.obj
 0001:0011e0d8       ?open@UsbHidDevice@@EAAHXZ 0012f0d8 f   iAP_lib:UsbHidDevice.obj
 0001:0011e140       ?close@UsbHidDevice@@EAAXXZ 0012f140 f   iAP_lib:UsbHidDevice.obj
 0001:0011e1a0       ?read@UsbHidDevice@@EAAHPAEIPAI@Z 0012f1a0 f   iAP_lib:UsbHidDevice.obj
 0001:0011e224       ?write@UsbHidDevice@@EAAHQBEI@Z 0012f224 f   iAP_lib:UsbHidDevice.obj
 0001:0011e250       ??_EUsbHidDevice@@W7AAPAXI@Z 0012f250 f i iAP_lib:UsbHidDevice.obj
 0001:0011e260       ??0UsbHidDevice@@QAA@PB_W@Z 0012f260 f   iAP_lib:UsbHidDevice.obj
 0001:0011e2e0       ??_GUsbHidDevice@@UAAPAXI@Z 0012f2e0 f i iAP_lib:UsbHidDevice.obj
 0001:0011e2e0       ??_EUsbHidDevice@@UAAPAXI@Z 0012f2e0 f i iAP_lib:UsbHidDevice.obj
 0001:0011e304       ??1I2C@@UAA@XZ             0012f304 f   iAP_lib:I2C.obj
 0001:0011e340       ?tranact@I2C@@AAA_NU_i2cTransaction@@@Z 0012f340 f   iAP_lib:I2C.obj
 0001:0011e3dc       ??_EI2C@@UAAPAXI@Z         0012f3dc f i iAP_lib:I2C.obj
 0001:0011e3dc       ??_GI2C@@UAAPAXI@Z         0012f3dc f i iAP_lib:I2C.obj
 0001:0011e408       ?createDevice@I2C@@SA?AV?$sp@VI2C@@@@PB_WGGI@Z 0012f408 f   iAP_lib:I2C.obj
 0001:0011e4ec       ?Write@I2C@@UAA_NGABV?$vector@EV?$allocator@E@std@@@std@@G@Z 0012f4ec f   iAP_lib:I2C.obj
 0001:0011e5b0       ?ReadChar@I2C@@UAA_NGPAE@Z 0012f5b0 f   iAP_lib:I2C.obj
 0001:0011e650       ?ReadWord@I2C@@UAA_NGPAG@Z 0012f650 f   iAP_lib:I2C.obj
 0001:0011e71c       ?ReadDword@I2C@@UAA_NGPAI@Z 0012f71c f   iAP_lib:I2C.obj
 0001:0011e83c       ?Read@I2C@@UAA_NGAAV?$vector@EV?$allocator@E@std@@@std@@G@Z 0012f83c f   iAP_lib:I2C.obj
 0001:0011e9c4       ?WriteChar@I2C@@UAA_NGE@Z  0012f9c4 f   iAP_lib:I2C.obj
 0001:0011ea4c       ?WriteWord@I2C@@UAA_NGG@Z  0012fa4c f   iAP_lib:I2C.obj
 0001:0011eaf8       ?WriteDword@I2C@@UAA_NGI@Z 0012faf8 f   iAP_lib:I2C.obj
 0001:0011ebc4       ?authCheck@AuthenticationMgr@@AAAXXZ 0012fbc4 f   iAP_lib:AuthenticationMgr.obj
 0001:0011ed2c       ??E?$_Vector_const_iterator@PAVAuthenticationListener@iAP@@V?$allocator@PAVAuthenticationListener@iAP@@@std@@@std@@QAAAAV01@XZ 0012fd2c f i iAP_lib:AuthenticationMgr.obj
 0001:0011ed68       ??Y?$_Vector_const_iterator@PAVAuthenticationListener@iAP@@V?$allocator@PAVAuthenticationListener@iAP@@@std@@@std@@QAAAAV01@H@Z 0012fd68 f i iAP_lib:AuthenticationMgr.obj
 0001:0011edc4       ?registerGeneralAckGetiPodOptions@AuthenticationMgr@@AAAXV?$sp@VNotifier@@@@@Z 0012fdc4 f   iAP_lib:AuthenticationMgr.obj
 0001:0011ee7c       ?registerGeneralRetiPodOptions@AuthenticationMgr@@AAAXV?$sp@VNotifier@@@@@Z 0012fe7c f   iAP_lib:AuthenticationMgr.obj
 0001:0011ef5c       ??H?$_Vector_iterator@PAVAuthenticationListener@iAP@@V?$allocator@PAVAuthenticationListener@iAP@@@std@@@std@@QBA?AV01@H@Z 0012ff5c f i iAP_lib:AuthenticationMgr.obj
 0001:0011efa0       ?notifyResult@AuthenticationMgr@@AAAXH@Z 0012ffa0 f   iAP_lib:AuthenticationMgr.obj
 0001:0011f028       ?clear@?$vector@EV?$allocator@E@std@@@std@@QAAXXZ 00130028 f i iAP_lib:AuthenticationMgr.obj
 0001:0011f088       ??0iAPTxRequestTransportMaxPayloadSize@@QAA@XZ 00130088 f i iAP_lib:AuthenticationMgr.obj
 0001:0011f148       ??0iAPTxCmdStartIDPS@@QAA@XZ 00130148 f i iAP_lib:AuthenticationMgr.obj
 0001:0011f208       ??0iAPTxGetiPodOptions@@QAA@XZ 00130208 f i iAP_lib:AuthenticationMgr.obj
 0001:0011f2c8       ??1AuthenticationMgr@@UAA@XZ 001302c8 f   iAP_lib:AuthenticationMgr.obj
 0001:0011f4b8       ??_EAuthenticationMgr@@W3AAPAXI@Z 001304b8 f i iAP_lib:AuthenticationMgr.obj
 0001:0011f4c8       ?startAuthentication@AuthenticationMgr@@UAAXXZ 001304c8 f   iAP_lib:AuthenticationMgr.obj
 0001:0011f560       ?ReturnLingoProtocalVersion@AuthenticationMgr@@AAAXV?$sp@ViAPRxCmd@@@@@Z 00130560 f   iAP_lib:AuthenticationMgr.obj
 0001:0011f670       ?ReturnTransportMaxPayloadSize@AuthenticationMgr@@AAAXV?$sp@ViAPRxCmd@@@@@Z 00130670 f   iAP_lib:AuthenticationMgr.obj
 0001:0011f768       ?AckAccessoryAuthenticationSignature@AuthenticationMgr@@AAAXV?$sp@ViAPRxCmd@@@@@Z 00130768 f   iAP_lib:AuthenticationMgr.obj
 0001:0011f838       ??_EAuthenticationMgr@@UAAPAXI@Z 00130838 f i iAP_lib:AuthenticationMgr.obj
 0001:0011f838       ??_GAuthenticationMgr@@UAAPAXI@Z 00130838 f i iAP_lib:AuthenticationMgr.obj
 0001:0011f864       ?registerReturnLingoProtocalVersion@AuthenticationMgr@@AAAXV?$sp@VNotifier@@@@@Z 00130864 f   iAP_lib:AuthenticationMgr.obj
 0001:0011f94c       ?registerReturnTransportMaxPayloadSize@AuthenticationMgr@@AAAXV?$sp@VNotifier@@@@@Z 0013094c f   iAP_lib:AuthenticationMgr.obj
 0001:0011fa34       ?registerAckAccessoryAuthenticationSignature@AuthenticationMgr@@AAAXV?$sp@VNotifier@@@@@Z 00130a34 f   iAP_lib:AuthenticationMgr.obj
 0001:0011fb1c       ?_Xlen@?$vector@PAVAuthenticationListener@iAP@@V?$allocator@PAVAuthenticationListener@iAP@@@std@@@std@@KAXXZ 00130b1c f i iAP_lib:AuthenticationMgr.obj
 0001:0011fb1c       ?_Xlen@?$vector@U_ArtworkFormat@@V?$allocator@U_ArtworkFormat@@@std@@@std@@KAXXZ 00130b1c f i iAP_lib:Player.obj
 0001:0011fb1c       ?_Xlen@?$vector@EV?$allocator@E@std@@@std@@KAXXZ 00130b1c f i iAP_lib:iAPTransceiver.obj
 0001:0011fb1c       ?_Xlen@?$vector@UMsgData@@V?$allocator@UMsgData@@@std@@@std@@KAXXZ 00130b1c f i GUI_Fantasy.obj
 0001:0011fb1c       ?_Xlen@?$vector@UstrPhoneNum@@V?$allocator@UstrPhoneNum@@@std@@@std@@KAXXZ 00130b1c f i PanelBluetoothWrapper.obj
 0001:0011fb88       ??$_Insert@PAE@?$vector@EV?$allocator@E@std@@@std@@QAAXV?$_Vector_iterator@EV?$allocator@E@std@@@1@PAE1Uforward_iterator_tag@1@@Z 00130b88 f i iAP_lib:AuthenticationMgr.obj
 0001:0011fdf4       ?setAccessoryInfo@AuthenticationMgr@@UAAXAAV?$basic_string@DU?$char_traits@D@std@@V?$allocator@D@2@@std@@AAU_AccessoryVer@iAP@@100@Z 00130df4 f   iAP_lib:AuthenticationMgr.obj
 0001:0011fe60       ?_Insert_n@?$vector@PAVAuthenticationListener@iAP@@V?$allocator@PAVAuthenticationListener@iAP@@@std@@@std@@IAAXV?$_Vector_iterator@PAVAuthenticationListener@iAP@@V?$allocator@PAVAuthenticationListener@iAP@@@std@@@2@IABQAVAuthenticationListener@iAP@@@Z 00130e60 f i iAP_lib:AuthenticationMgr.obj
 0001:001200b0       ??0?$vector@EV?$allocator@E@std@@@std@@QAA@ABV01@@Z 001310b0 f i iAP_lib:AuthenticationMgr.obj
 0001:00120130       ?insert@?$vector@PAVAuthenticationListener@iAP@@V?$allocator@PAVAuthenticationListener@iAP@@@std@@@std@@QAA?AV?$_Vector_iterator@PAVAuthenticationListener@iAP@@V?$allocator@PAVAuthenticationListener@iAP@@@std@@@2@V32@ABQAVAuthenticationListener@iAP@@@Z 00131130 f i iAP_lib:AuthenticationMgr.obj
 0001:001201ec       ??$_Assign@PAE@?$vector@EV?$allocator@E@std@@@std@@QAAXPAE0Uinput_iterator_tag@1@@Z 001311ec f i iAP_lib:AuthenticationMgr.obj
 0001:00120284       ?GetAccessoryAuthenticationInfo@AuthenticationMgr@@AAAXV?$sp@ViAPRxCmd@@@@@Z 00131284 f   iAP_lib:AuthenticationMgr.obj
 0001:001204cc       ?registerGeneralAckRetAccessoryAuthencationInfo@AuthenticationMgr@@AAAXV?$sp@VNotifier@@@@@Z 001314cc f   iAP_lib:AuthenticationMgr.obj
 0001:00120584       ?GetAccessoryAuthenticationSignature@AuthenticationMgr@@AAAXV?$sp@ViAPRxCmd@@@@@Z 00131584 f   iAP_lib:AuthenticationMgr.obj
 0001:00120758       ?push_back@?$vector@PAVAuthenticationListener@iAP@@V?$allocator@PAVAuthenticationListener@iAP@@@std@@@std@@QAAXABQAVAuthenticationListener@iAP@@@Z 00131758 f i iAP_lib:AuthenticationMgr.obj
 0001:001207e4       ??0iAPTxCmdGeneralRequestLingoProtocalVersion@@QAA@E@Z 001317e4 f i iAP_lib:AuthenticationMgr.obj
 0001:001208b0       ??0iAPTxIdentifyLingosClear@@QAA@XZ 001318b0 f i iAP_lib:AuthenticationMgr.obj
 0001:001209e0       ??0iAPTxGeneralEndIDPS@@QAA@XZ 001319e0 f i iAP_lib:AuthenticationMgr.obj
 0001:00120aac       ??0iAPTxCmdGeneralGetiPodOptionsForLingo@@QAA@E@Z 00131aac f i iAP_lib:AuthenticationMgr.obj
 0001:00120b70       ?registerListener@AuthenticationMgr@@UAAXPAVAuthenticationListener@iAP@@@Z 00131b70 f   iAP_lib:AuthenticationMgr.obj
 0001:00120b94       ?GeneralAckStartIDPS@AuthenticationMgr@@AAAXV?$sp@ViAPRxCmd@@@@@Z 00131b94 f   iAP_lib:AuthenticationMgr.obj
 0001:00120e4c       ?GeneralAckGetiPodOptionsForLingo@AuthenticationMgr@@AAAXV?$sp@ViAPRxCmd@@@@@Z 00131e4c f   iAP_lib:AuthenticationMgr.obj
 0001:00121040       ?SetFIDToken@AuthenticationMgr@@QAAXXZ 00132040 f   iAP_lib:AuthenticationMgr.obj
 0001:001212a0       ?AckFIDTokenValues@AuthenticationMgr@@AAAXV?$sp@ViAPRxCmd@@@@@Z 001322a0 f   iAP_lib:AuthenticationMgr.obj
 0001:00121374       ?GeneralAckIdentifyDeviceLingoes@AuthenticationMgr@@AAAXV?$sp@ViAPRxCmd@@@@@Z 00132374 f   iAP_lib:AuthenticationMgr.obj
 0001:001214f4       ?registerGetAccessoryAuthenticationInfo@AuthenticationMgr@@AAAXV?$sp@VNotifier@@@@@Z 001324f4 f   iAP_lib:AuthenticationMgr.obj
 0001:001215dc       ?registerGetAccessoryAuthenticationSignature@AuthenticationMgr@@AAAXV?$sp@VNotifier@@@@@Z 001325dc f   iAP_lib:AuthenticationMgr.obj
 0001:001216c4       ?GetAccessoryInfo@AuthenticationMgr@@AAAXV?$sp@ViAPRxCmd@@@@@Z 001326c4 f   iAP_lib:AuthenticationMgr.obj
 0001:00121c80       ?registerGeneralAckStartIDPS@AuthenticationMgr@@AAAXV?$sp@VNotifier@@@@@Z 00132c80 f   iAP_lib:AuthenticationMgr.obj
 0001:00121d38       ?RetiPodOptionsForLingo@AuthenticationMgr@@AAAXV?$sp@ViAPRxCmd@@@@@Z 00132d38 f   iAP_lib:AuthenticationMgr.obj
 0001:00121f40       ?registerGeneralAckGetiPodOptionsForLingo@AuthenticationMgr@@AAAXV?$sp@VNotifier@@@@@Z 00132f40 f   iAP_lib:AuthenticationMgr.obj
 0001:00121ff8       ?registerAckFIDTokenValues@AuthenticationMgr@@AAAXV?$sp@VNotifier@@@@@Z 00132ff8 f   iAP_lib:AuthenticationMgr.obj
 0001:001220e0       ?registerGeneralAckIdentifyDeviceLingoes@AuthenticationMgr@@AAAXV?$sp@VNotifier@@@@@Z 001330e0 f   iAP_lib:AuthenticationMgr.obj
 0001:00122198       ?registerGetAccessoryInfo@AuthenticationMgr@@AAAXV?$sp@VNotifier@@@@@Z 00133198 f   iAP_lib:AuthenticationMgr.obj
 0001:00122280       ?registerRetiPodOptionsForLingo@AuthenticationMgr@@AAAXV?$sp@VNotifier@@@@@Z 00133280 f   iAP_lib:AuthenticationMgr.obj
 0001:00122368       ?registerCallbacksToNotifier@AuthenticationMgr@@AAAXV?$sp@VNotifier@@@@@Z 00133368 f   iAP_lib:AuthenticationMgr.obj
 0001:00122578       ??0AuthenticationMgr@@QAA@PAVOSCommunication@@VTransportMode@iAP@@@Z 00133578 f   iAP_lib:AuthenticationMgr.obj
 0001:001227d4       ??_GIapBrowserListener@@UAAPAXI@Z 001337d4 f i IapBrowserListener.obj
 0001:001227d4       ??_GBrowserListener@iAP@@UAAPAXI@Z 001337d4 f i IapBrowserListener.obj
 0001:001227d4       ??_GNullBrowserListener@@UAAPAXI@Z 001337d4 f i iAP_lib:BrowsingMgr.obj
 0001:001227d4       ??_EIapBrowserListener@@UAAPAXI@Z 001337d4 f i IapBrowserListener.obj
 0001:001227d4       ??_GNullRemoteControlListener@@UAAPAXI@Z 001337d4 f i iAP_lib:RemoteControlMgr.obj
 0001:001227d4       ??_GIapRemoteControlListener@@UAAPAXI@Z 001337d4 f i IapRemoteControl.obj
 0001:001227d4       ??_ENullRemoteControlListener@@UAAPAXI@Z 001337d4 f i iAP_lib:RemoteControlMgr.obj
 0001:001227d4       ??_GRemoteControlListener@iAP@@UAAPAXI@Z 001337d4 f i IapRemoteControl.obj
 0001:001227d4       ??_EBrowserListener@iAP@@UAAPAXI@Z 001337d4 f i IapBrowserListener.obj
 0001:001227d4       ??_EIapRemoteControlListener@@UAAPAXI@Z 001337d4 f i IapRemoteControl.obj
 0001:001227d4       ??_ENullBrowserListener@@UAAPAXI@Z 001337d4 f i iAP_lib:BrowsingMgr.obj
 0001:001227d4       ??_ERemoteControlListener@iAP@@UAAPAXI@Z 001337d4 f i IapRemoteControl.obj
 0001:001227f8       ?registerListener@BrowsingMgr@@UAAXPAVBrowserListener@iAP@@@Z 001337f8 f   iAP_lib:BrowsingMgr.obj
 0001:0012280c       ?root@BrowsingMgr@@UAAXXZ  0013380c f   iAP_lib:BrowsingMgr.obj
 0001:0012283c       ?returnRootRecords@BrowsingMgr@@AAAXII@Z 0013383c f   iAP_lib:BrowsingMgr.obj
 0001:00122888       ?returnTopLevelRecords@BrowsingMgr@@AAAXII@Z 00133888 f   iAP_lib:BrowsingMgr.obj
 0001:001228d4       ?isValidRecordArrived@BrowsingMgr@@AAAHI@Z 001338d4 f   iAP_lib:BrowsingMgr.obj
 0001:00122928       ?getHierarchyType@BrowsingMgr@@UAAEXZ 00133928 f   iAP_lib:BrowsingMgr.obj
 0001:00122930       ?getMenuLevel@BrowsingMgr@@UAAEXZ 00133930 f   iAP_lib:BrowsingMgr.obj
 0001:00122938       ?getMenuDepth@BrowsingMgr@@UAAEXZ 00133938 f   iAP_lib:BrowsingMgr.obj
 0001:00122940       ?isRoot@BrowsingMgr@@UAAHXZ 00133940 f   iAP_lib:BrowsingMgr.obj
 0001:00122954       ??$?4ViAPTxCmdExtendedResetDBSelectionHierarchy@@@?$sp@ViAPTxCmd@@@@QAAAAV0@PAViAPTxCmdExtendedResetDBSelectionHierarchy@@@Z 00133954 f i iAP_lib:BrowsingMgr.obj
 0001:00122954       ??$?4ViAPTxCmdExtendedSelectDBRecord@@@?$sp@ViAPTxCmd@@@@QAAAAV0@PAViAPTxCmdExtendedSelectDBRecord@@@Z 00133954 f i iAP_lib:BrowsingMgr.obj
 0001:00122954       ??$?4ViAPTxGeneralRetAccessoryInfo@@@?$sp@ViAPTxCmd@@@@QAAAAV0@PAViAPTxGeneralRetAccessoryInfo@@@Z 00133954 f i iAP_lib:AuthenticationMgr.obj
 0001:00122954       ??$?4ViAPTxCmdExtendedGetNumberCategorizedDBRecords@@@?$sp@ViAPTxCmd@@@@QAAAAV0@PAViAPTxCmdExtendedGetNumberCategorizedDBRecords@@@Z 00133954 f i iAP_lib:BrowsingMgr.obj
 0001:001229a8       ??Y?$_String_const_iterator@DU?$char_traits@D@std@@V?$allocator@D@2@@std@@QAAAAV01@H@Z 001339a8 f i iAP_lib:BrowsingMgr.obj
 0001:00122a24       ??G?$_String_const_iterator@DU?$char_traits@D@std@@V?$allocator@D@2@@std@@QBAHABV01@@Z 00133a24 f i iAP_lib:BrowsingMgr.obj
 0001:00122a64       ??R?$Callback@XUNil@@U1@U1@U1@U1@U1@U1@@@QAAXXZ 00133a64 f i iAP_lib:BrowsingMgr.obj
 0001:00122ac8       ?removeExtendedAckSelectDBRecord@BrowsingMgr@@AAAXV?$sp@VNotifier@@@@@Z 00133ac8 f   iAP_lib:BrowsingMgr.obj
 0001:00122b48       ?removeCallbacksFromNotifier@BrowsingMgr@@AAAXV?$sp@VNotifier@@@@@Z 00133b48 f   iAP_lib:BrowsingMgr.obj
 0001:00122b90       ?hierarchySelectionFinished@BrowsingMgr@@AAAXH@Z 00133b90 f   iAP_lib:BrowsingMgr.obj
 0001:00122be0       ?isTopLevel@BrowsingMgr@@UAAHXZ 00133be0 f   iAP_lib:BrowsingMgr.obj
 0001:00122c0c       ?isPlayable@BrowsingMgr@@UAAHXZ 00133c0c f   iAP_lib:BrowsingMgr.obj
 0001:00122c40       ?isTrack@BrowsingMgr@@UAAHXZ 00133c40 f   iAP_lib:BrowsingMgr.obj
 0001:00122c70       ?isLastLevel@BrowsingMgr@@AAAHXZ 00133c70 f   iAP_lib:BrowsingMgr.obj
 0001:00122ca0       ??0?$_String_const_iterator@DU?$char_traits@D@std@@V?$allocator@D@2@@std@@QAA@PBDPBU_Container_base@1@@Z 00133ca0 f i iAP_lib:BrowsingMgr.obj
 0001:00122d0c       ?needToGetRecordsFromDevice@BrowsingMgr@@AAAHXZ 00133d0c f   iAP_lib:BrowsingMgr.obj
 0001:00122d4c       ?registerAckSetiPodPreferences@BrowsingMgr@@AAAXV?$sp@VNotifier@@@@@Z 00133d4c f   iAP_lib:BrowsingMgr.obj
 0001:00122dfc       ??$_Uninit_copy@PADPAEV?$allocator@E@std@@@std@@YAPAEPAD0PAEAAV?$allocator@E@0@U_Nonscalar_ptr_iterator_tag@0@U_Range_checked_iterator_tag@0@@Z 00133dfc f i iAP_lib:BrowsingMgr.obj
 0001:00122e24       ??$_Distance@V?$_String_iterator@DU?$char_traits@D@std@@V?$allocator@D@2@@std@@I@std@@YAXV?$_String_iterator@DU?$char_traits@D@std@@V?$allocator@D@2@@0@0AAI@Z 00133e24 f i iAP_lib:BrowsingMgr.obj
 0001:00122e70       ?onRecordReady@NullBrowserListener@@UAAXIV?$basic_string@DU?$char_traits@D@std@@V?$allocator@D@2@@std@@@Z 00133e70 f i iAP_lib:BrowsingMgr.obj
 0001:00122e88       ??1BrowsingMgr@@UAA@XZ     00133e88 f   iAP_lib:BrowsingMgr.obj
 0001:00122ff4       ??_EBrowsingMgr@@W3AAPAXI@Z 00133ff4 f i iAP_lib:BrowsingMgr.obj
 0001:00122ffc       ??$_Ucopy@V?$_String_iterator@DU?$char_traits@D@std@@V?$allocator@D@2@@std@@@?$vector@EV?$allocator@E@std@@@std@@IAAPAEV?$_String_iterator@DU?$char_traits@D@std@@V?$allocator@D@2@@1@0PAE@Z 00133ffc f i iAP_lib:BrowsingMgr.obj
 0001:0012304c       ??0iAPTxCmdGeneralEnterExtendedInterfaceMode@@QAA@XZ 0013404c f i iAP_lib:BrowsingMgr.obj
 0001:0012310c       ??0iAPTxCmdGeneralGetSupportedEventNotification@@QAA@XZ 0013410c f i iAP_lib:BrowsingMgr.obj
 0001:001231cc       ??0iAPTxGetNowPlayingApplicationBundleName@@QAA@XZ 001341cc f i iAP_lib:BrowsingMgr.obj
 0001:0012328c       ??0iAPTxCmdExtendedResetDBSelection@@QAA@XZ 0013428c f i iAP_lib:BrowsingMgr.obj
 0001:00123344       ??_EBrowsingMgr@@UAAPAXI@Z 00134344 f i iAP_lib:BrowsingMgr.obj
 0001:00123344       ??_GBrowsingMgr@@UAAPAXI@Z 00134344 f i iAP_lib:BrowsingMgr.obj
 0001:00123370       ?enterExtendedInterfaceMode@BrowsingMgr@@AAAXXZ 00134370 f   iAP_lib:BrowsingMgr.obj
 0001:00123408       ?GeneralAckEnterExtendedUIMode@BrowsingMgr@@AAAXV?$sp@ViAPRxCmd@@@@@Z 00134408 f   iAP_lib:BrowsingMgr.obj
 0001:00123518       ?GeneralAckExitExtendedUIMode@BrowsingMgr@@AAAXV?$sp@ViAPRxCmd@@@@@Z 00134518 f   iAP_lib:BrowsingMgr.obj
 0001:00123600       ?ExtendedAckResetDBSelectionHierarchy@BrowsingMgr@@AAAXV?$sp@ViAPRxCmd@@@@@Z 00134600 f   iAP_lib:BrowsingMgr.obj
 0001:001236d8       ?ReturnNumberCategorizedDBRecords@BrowsingMgr@@AAAXV?$sp@ViAPRxCmd@@@@@Z 001346d8 f   iAP_lib:BrowsingMgr.obj
 0001:00123830       ?resetDBSelection@BrowsingMgr@@AAAXXZ 00134830 f   iAP_lib:BrowsingMgr.obj
 0001:001238c8       ?getCurrentApplicationName@BrowsingMgr@@UAAXXZ 001348c8 f   iAP_lib:BrowsingMgr.obj
 0001:00123960       ?GeneralAckGetSupportedEventNotification@BrowsingMgr@@AAAXV?$sp@ViAPRxCmd@@@@@Z 00134960 f   iAP_lib:BrowsingMgr.obj
 0001:00123a34       ?GeneralAckSetUIMode@BrowsingMgr@@AAAXV?$sp@ViAPRxCmd@@@@@Z 00134a34 f   iAP_lib:BrowsingMgr.obj
 0001:00123b30       ?registerGeneralAckEnterExtendedUIMode@BrowsingMgr@@AAAXV?$sp@VNotifier@@@@@Z 00134b30 f   iAP_lib:BrowsingMgr.obj
 0001:00123be8       ?registerGeneralAckExitExtendedUIMode@BrowsingMgr@@AAAXV?$sp@VNotifier@@@@@Z 00134be8 f   iAP_lib:BrowsingMgr.obj
 0001:00123ca0       ?registerExtendedAckResetDBSelectionHierarchy@BrowsingMgr@@AAAXV?$sp@VNotifier@@@@@Z 00134ca0 f   iAP_lib:BrowsingMgr.obj
 0001:00123d58       ?registerReturnNumberCategorizedDBRecords@BrowsingMgr@@AAAXV?$sp@VNotifier@@@@@Z 00134d58 f   iAP_lib:BrowsingMgr.obj
 0001:00123e38       ??$_Insert@V?$_Vector_iterator@EV?$allocator@E@std@@@std@@@?$vector@EV?$allocator@E@std@@@std@@QAAXV?$_Vector_iterator@EV?$allocator@E@std@@@1@00Uforward_iterator_tag@1@@Z 00134e38 f i iAP_lib:BrowsingMgr.obj
 0001:001240e0       ??$_Insert@V?$_String_iterator@DU?$char_traits@D@std@@V?$allocator@D@2@@std@@@?$vector@EV?$allocator@E@std@@@std@@QAAXV?$_Vector_iterator@EV?$allocator@E@std@@@1@V?$_String_iterator@DU?$char_traits@D@std@@V?$allocator@D@2@@1@1Uforward_iterator_tag@1@@Z 001350e0 f i iAP_lib:BrowsingMgr.obj
 0001:001243f8       ?registerGeneralAckGetSupportedEventNotification@BrowsingMgr@@AAAXV?$sp@VNotifier@@@@@Z 001353f8 f   iAP_lib:BrowsingMgr.obj
 0001:001244b0       ?registerGeneralAckSetUIMode@BrowsingMgr@@AAAXV?$sp@VNotifier@@@@@Z 001354b0 f   iAP_lib:BrowsingMgr.obj
 0001:00124568       ??$_Construct@V?$_String_iterator@DU?$char_traits@D@std@@V?$allocator@D@2@@std@@@?$vector@EV?$allocator@E@std@@@std@@QAAXV?$_String_iterator@DU?$char_traits@D@std@@V?$allocator@D@2@@1@0Uinput_iterator_tag@1@@Z 00135568 f i iAP_lib:BrowsingMgr.obj
 0001:00124630       ??0iAPTxGeneralSetUIMode@@QAA@E@Z 00135630 f i iAP_lib:BrowsingMgr.obj
 0001:001246fc       ??0iAPTxGeneralSetEventNotification@@QAA@E@Z 001356fc f i iAP_lib:BrowsingMgr.obj
 0001:00124854       ??0iAPTxSetiPodPreferences@@QAA@EEE@Z 00135854 f i iAP_lib:BrowsingMgr.obj
 0001:00124938       ??0iAPTxRequestApplicationLaunch@@QAA@EAAV?$basic_string@DU?$char_traits@D@std@@V?$allocator@D@2@@std@@@Z 00135938 f i iAP_lib:BrowsingMgr.obj
 0001:00124b68       ??0iAPTxCmdExtendedSelectDBRecord@@QAA@EI@Z 00135b68 f i iAP_lib:BrowsingMgr.obj
 0001:00124c84       ??0iAPTxCmdExtendedGetNumberCategorizedDBRecords@@QAA@E@Z 00135c84 f i iAP_lib:BrowsingMgr.obj
 0001:00124d50       ??0iAPTxCmdExtendedRetrieveCategorizedDatabaseRecords@@QAA@EII@Z 00135d50 f i iAP_lib:BrowsingMgr.obj
 0001:00124ebc       ??0iAPTxCmdExtendedResetDBSelectionHierarchy@@QAA@E@Z 00135ebc f i iAP_lib:BrowsingMgr.obj
 0001:00124f90       ?start@BrowsingMgr@@UAAXXZ 00135f90 f   iAP_lib:BrowsingMgr.obj
 0001:001250a4       ?RetSupportedEventNotification@BrowsingMgr@@AAAXV?$sp@ViAPRxCmd@@@@@Z 001360a4 f   iAP_lib:BrowsingMgr.obj
 0001:0012527c       ?switchDeviceHierarchy@BrowsingMgr@@AAAXE@Z 0013627c f   iAP_lib:BrowsingMgr.obj
 0001:0012532c       ?selectDBRecordsFinished@BrowsingMgr@@AAAXH@Z 0013632c f   iAP_lib:BrowsingMgr.obj
 0001:0012543c       ?retrieveRecordsFromDevice@BrowsingMgr@@AAAXII@Z 0013643c f   iAP_lib:BrowsingMgr.obj
 0001:00125508       ?retrieveRecordsNextSection@BrowsingMgr@@AAAXXZ 00136508 f   iAP_lib:BrowsingMgr.obj
 0001:0012554c       ?ReturniPodpreferences@BrowsingMgr@@AAAXV?$sp@ViAPRxCmd@@@@@Z 0013654c f   iAP_lib:BrowsingMgr.obj
 0001:00125714       ?registerRetiPodpreferences@BrowsingMgr@@AAAXV?$sp@VNotifier@@@@@Z 00136714 f   iAP_lib:BrowsingMgr.obj
 0001:001257fc       ?launchApplication@BrowsingMgr@@UAAHAAV?$basic_string@DU?$char_traits@D@std@@V?$allocator@D@2@@std@@H@Z 001367fc f   iAP_lib:BrowsingMgr.obj
 0001:0012596c       ?GeneralAckRequestApplicationLaunch@BrowsingMgr@@AAAXV?$sp@ViAPRxCmd@@@@@Z 0013696c f   iAP_lib:BrowsingMgr.obj
 0001:00125b3c       ?registerAckLaunchApplication@BrowsingMgr@@AAAXV?$sp@VNotifier@@@@@Z 00136b3c f   iAP_lib:BrowsingMgr.obj
 0001:00125bf4       ?registerGetSupportedEventNotification@BrowsingMgr@@AAAXV?$sp@VNotifier@@@@@Z 00136bf4 f   iAP_lib:BrowsingMgr.obj
 0001:00125cdc       ?ExtendedAckSelectDBRecord@BrowsingMgr@@AAAXV?$sp@ViAPRxCmd@@@@@Z 00136cdc f   iAP_lib:BrowsingMgr.obj
 0001:00125dac       ?getRecords@BrowsingMgr@@UAAXII@Z 00136dac f   iAP_lib:BrowsingMgr.obj
 0001:00125e30       ?returnCategorizedDatabaseRecordArrived@BrowsingMgr@@IAAXIPAE@Z 00136e30 f   iAP_lib:BrowsingMgr.obj
 0001:00125f20       ?registerExtendedAckSelectDBRecord@BrowsingMgr@@AAAXV?$sp@VNotifier@@@@@Z 00136f20 f   iAP_lib:BrowsingMgr.obj
 0001:00125fd8       ?ReturnCategorizedDatabaseRecord@BrowsingMgr@@AAAXV?$sp@ViAPRxCmd@@@@@Z 00136fd8 f   iAP_lib:BrowsingMgr.obj
 0001:00126144       ?registerReturnCategorizedDatabaseRecord@BrowsingMgr@@AAAXV?$sp@VNotifier@@@@@Z 00137144 f   iAP_lib:BrowsingMgr.obj
 0001:0012622c       ?openLevel@BrowsingMgr@@AAAXI@Z 0013722c f   iAP_lib:BrowsingMgr.obj
 0001:001263f0       ?goUp@BrowsingMgr@@AAAXXZ  001373f0 f   iAP_lib:BrowsingMgr.obj
 0001:00126560       ?up@BrowsingMgr@@UAAXXZ    00137560 f   iAP_lib:BrowsingMgr.obj
 0001:00126560       ?bypassUpTopLevel@BrowsingMgr@@AAAXXZ 00137560 f   iAP_lib:BrowsingMgr.obj
 0001:0012656c       ?registerCallbacksToNotifier@BrowsingMgr@@AAAXV?$sp@VNotifier@@@@@Z 0013756c f   iAP_lib:BrowsingMgr.obj
 0001:00126714       ?bypassOpenTopLevel@BrowsingMgr@@AAAXXZ 00137714 f   iAP_lib:BrowsingMgr.obj
 0001:00126724       ??0BrowsingMgr@@QAA@XZ     00137724 f   iAP_lib:BrowsingMgr.obj
 0001:00126894       ?switchHierarchy@BrowsingMgr@@AAAXI@Z 00137894 f   iAP_lib:BrowsingMgr.obj
 0001:001268d8       ?open@BrowsingMgr@@UAAXI@Z 001378d8 f   iAP_lib:BrowsingMgr.obj
 0001:00126904       ??1NullPlayerListener@@UAA@XZ 00137904 f i iAP_lib:Player.obj
 0001:0012691c       ??0iAPTxCmdExtendedGetTrackArtworkFormats@@QAA@XZ 0013791c f i iAP_lib:Player.obj
 0001:001269cc       ?registerListener@Player@@UAAXPAVPlayerListener@iAP@@@Z 001379cc f   iAP_lib:Player.obj
 0001:001269e0       ?notifyPlayState@Player@@AAAXW4PLAY_STATE@iAP@@@Z 001379e0 f   iAP_lib:Player.obj
 0001:00126a1c       ?getiOSCommunication@PlayerBuilder@@UAAPAViOSCommunication@iAP@@XZ 00137a1c f   iAP_lib:iAPPlayerBuilder.obj
 0001:00126a1c       ?GetLedShadeEnable@CLEDBase@@QAAHXZ 00137a1c f   LEDBase.obj
 0001:00126a1c       ?getPlayState@Player@@UBA?AW4PLAY_STATE@iAP@@XZ 00137a1c f   iAP_lib:Player.obj
 0001:00126a24       ?SetLedShadeEnable@CLEDBase@@QAAXH@Z 00137a24 f   LEDBase.obj
 0001:00126a24       ?setPlayState@Player@@UAAXW4PLAY_STATE@iAP@@@Z 00137a24 f   iAP_lib:Player.obj
 0001:00126a2c       ?getTimeOffset@Player@@UBAIXZ 00137a2c f   iAP_lib:Player.obj
 0001:00126a34       ?getPlayingTrackIndex@Player@@UBAIXZ 00137a34 f   iAP_lib:Player.obj
 0001:00126a3c       ?getShuffleMode@Player@@UAA?AVShuffleMode@iAP@@XZ 00137a3c f   iAP_lib:Player.obj
 0001:00126a4c       ?getRepeatMode@Player@@UAA?AVRepeatMode@iAP@@XZ 00137a4c f   iAP_lib:Player.obj
 0001:00126a5c       ??E?$_Vector_const_iterator@EV?$allocator@E@std@@@std@@QAAAAV01@XZ 00137a5c f i iAP_lib:Player.obj
 0001:00126a98       ??_EiAPTxExtendedGetTrackArtworkData@@WCI@AAPAXI@Z 00137a98 f i iAP_lib:Player.obj
 0001:00126a98       ??_EiAPTxCmdGeneralGetSupportedEventNotification@@WCI@AAPAXI@Z 00137a98 f i iAP_lib:BrowsingMgr.obj
 0001:00126a98       ??_EiAPTxCmdExtendedSetPlayStatusChangeNotification@@WCI@AAPAXI@Z 00137a98 f i iAP_lib:Player.obj
 0001:00126a98       ??_EiAPTxCmdExtendedSelectDBRecord@@WCI@AAPAXI@Z 00137a98 f i iAP_lib:BrowsingMgr.obj
 0001:00126a98       ??_EiAPTxCmdExtendedRetrieveCategorizedDatabaseRecords@@WCI@AAPAXI@Z 00137a98 f i iAP_lib:BrowsingMgr.obj
 0001:00126a98       ??_EiAPTxCmdExtendedResetDBSelectionHierarchy@@WCI@AAPAXI@Z 00137a98 f i iAP_lib:BrowsingMgr.obj
 0001:00126a98       ??_EiAPTxRequestTransportMaxPayloadSize@@WCI@AAPAXI@Z 00137a98 f i iAP_lib:AuthenticationMgr.obj
 0001:00126a98       ??_EiAPTxCmdExtendedPlayControl@@WCI@AAPAXI@Z 00137a98 f i iAP_lib:Player.obj
 0001:00126a98       ??_EiAPTxCmdExtendedGetIndexedPlayingTrackArtistName@@WCI@AAPAXI@Z 00137a98 f i iAP_lib:Player.obj
 0001:00126a98       ??_EiAPTxCmdExtendedGetCurrentPlayingTrackIndex@@WCI@AAPAXI@Z 00137a98 f i iAP_lib:Player.obj
 0001:00126a98       ??_EiAPTxCmdExtendedGetTrackArtworkFormats@@WCI@AAPAXI@Z 00137a98 f i iAP_lib:Player.obj
 0001:00126a98       ??_EiAPTxCmdExtendedGetIndexedPlayingTrackInfo@@WCI@AAPAXI@Z 00137a98 f i iAP_lib:Player.obj
 0001:00126a98       ??_EiAPTxCmdExtendedResetDBSelection@@WCI@AAPAXI@Z 00137a98 f i iAP_lib:BrowsingMgr.obj
 0001:00126a98       ??_EiAPTxCmdExtendedGetNumberCategorizedDBRecords@@WCI@AAPAXI@Z 00137a98 f i iAP_lib:BrowsingMgr.obj
 0001:00126a98       ??_EiAPTxCmdExtendedGetPlayStatus@@WCI@AAPAXI@Z 00137a98 f i iAP_lib:Player.obj
 0001:00126a98       ??_EiAPTxIdentifyLingosClear@@WCI@AAPAXI@Z 00137a98 f i iAP_lib:AuthenticationMgr.obj
 0001:00126aa0       ??_EiAPTxCmdExtendedResetDBSelection@@UAAPAXI@Z 00137aa0 f i iAP_lib:BrowsingMgr.obj
 0001:00126aa0       ??_GiAPTxCmdExtendedGetPlayStatus@@UAAPAXI@Z 00137aa0 f i iAP_lib:Player.obj
 0001:00126aa0       ??_EiAPTxRequestTransportMaxPayloadSize@@UAAPAXI@Z 00137aa0 f i iAP_lib:AuthenticationMgr.obj
 0001:00126aa0       ??_EiAPTxCmdExtendedPlayControl@@UAAPAXI@Z 00137aa0 f i iAP_lib:Player.obj
 0001:00126aa0       ??_GiAPTxCmdExtendedGetTrackArtworkFormats@@UAAPAXI@Z 00137aa0 f i iAP_lib:Player.obj
 0001:00126aa0       ??_GiAPTxCmdExtendedGetIndexedPlayingTrackInfo@@UAAPAXI@Z 00137aa0 f i iAP_lib:Player.obj
 0001:00126aa0       ??_GiAPTxCmdExtendedGetIndexedPlayingTrackArtistName@@UAAPAXI@Z 00137aa0 f i iAP_lib:Player.obj
 0001:00126aa0       ??_EiAPTxCmdExtendedResetDBSelectionHierarchy@@UAAPAXI@Z 00137aa0 f i iAP_lib:BrowsingMgr.obj
 0001:00126aa0       ??_GiAPTxCmdExtendedGetNumberCategorizedDBRecords@@UAAPAXI@Z 00137aa0 f i iAP_lib:BrowsingMgr.obj
 0001:00126aa0       ??_GiAPTxCmdExtendedSetPlayStatusChangeNotification@@UAAPAXI@Z 00137aa0 f i iAP_lib:Player.obj
 0001:00126aa0       ??_EiAPTxCmdExtendedRetrieveCategorizedDatabaseRecords@@UAAPAXI@Z 00137aa0 f i iAP_lib:BrowsingMgr.obj
 0001:00126aa0       ??_GiAPTxCmdExtendedResetDBSelection@@UAAPAXI@Z 00137aa0 f i iAP_lib:BrowsingMgr.obj
 0001:00126aa0       ??_EiAPTxCmdExtendedGetIndexedPlayingTrackInfo@@UAAPAXI@Z 00137aa0 f i iAP_lib:Player.obj
 0001:00126aa0       ??_GiAPTxCmdExtendedPlayControl@@UAAPAXI@Z 00137aa0 f i iAP_lib:Player.obj
 0001:00126aa0       ??_EiAPTxExtendedGetTrackArtworkData@@UAAPAXI@Z 00137aa0 f i iAP_lib:Player.obj
 0001:00126aa0       ??_EiAPTxCmdExtendedGetIndexedPlayingTrackArtistName@@UAAPAXI@Z 00137aa0 f i iAP_lib:Player.obj
 0001:00126aa0       ??_GiAPTxCmdExtendedResetDBSelectionHierarchy@@UAAPAXI@Z 00137aa0 f i iAP_lib:BrowsingMgr.obj
 0001:00126aa0       ??_EiAPTxCmdGeneralGetSupportedEventNotification@@UAAPAXI@Z 00137aa0 f i iAP_lib:BrowsingMgr.obj
 0001:00126aa0       ??_GiAPTxCmdExtendedSelectDBRecord@@UAAPAXI@Z 00137aa0 f i iAP_lib:BrowsingMgr.obj
 0001:00126aa0       ??_GiAPTxCmdExtendedGetCurrentPlayingTrackIndex@@UAAPAXI@Z 00137aa0 f i iAP_lib:Player.obj
 0001:00126aa0       ??_EiAPTxCmdExtendedGetPlayStatus@@UAAPAXI@Z 00137aa0 f i iAP_lib:Player.obj
 0001:00126aa0       ??_EiAPTxCmdExtendedSelectDBRecord@@UAAPAXI@Z 00137aa0 f i iAP_lib:BrowsingMgr.obj
 0001:00126aa0       ??_EiAPTxCmdExtendedGetNumberCategorizedDBRecords@@UAAPAXI@Z 00137aa0 f i iAP_lib:BrowsingMgr.obj
 0001:00126aa0       ??_GiAPTxIdentifyLingosClear@@UAAPAXI@Z 00137aa0 f i iAP_lib:AuthenticationMgr.obj
 0001:00126aa0       ??_EiAPTxCmdExtendedSetPlayStatusChangeNotification@@UAAPAXI@Z 00137aa0 f i iAP_lib:Player.obj
 0001:00126aa0       ??_GiAPTxCmdExtendedRetrieveCategorizedDatabaseRecords@@UAAPAXI@Z 00137aa0 f i iAP_lib:BrowsingMgr.obj
 0001:00126aa0       ??_EiAPTxCmdExtendedGetTrackArtworkFormats@@UAAPAXI@Z 00137aa0 f i iAP_lib:Player.obj
 0001:00126aa0       ??_EiAPTxIdentifyLingosClear@@UAAPAXI@Z 00137aa0 f i iAP_lib:AuthenticationMgr.obj
 0001:00126aa0       ??_GiAPTxExtendedGetTrackArtworkData@@UAAPAXI@Z 00137aa0 f i iAP_lib:Player.obj
 0001:00126aa0       ??_GiAPTxRequestTransportMaxPayloadSize@@UAAPAXI@Z 00137aa0 f i iAP_lib:AuthenticationMgr.obj
 0001:00126aa0       ??_GiAPTxCmdGeneralGetSupportedEventNotification@@UAAPAXI@Z 00137aa0 f i iAP_lib:BrowsingMgr.obj
 0001:00126aa0       ??_EiAPTxCmdExtendedGetCurrentPlayingTrackIndex@@UAAPAXI@Z 00137aa0 f i iAP_lib:Player.obj
 0001:00126ac4       ?getEntireArtworkData@PlayingTrackArtwork@@SA_NAAV?$sp@VArtworkSp@@@@@Z 00137ac4 f   iAP_lib:Player.obj
 0001:00126b24       ?isFirstArtworkPacket@PlayingTrackArtwork@@SA_NAAV?$vector@EV?$allocator@E@std@@@std@@@Z 00137b24 f   iAP_lib:Player.obj
 0001:00126ba0       ?notifyTrackArtwork@Player@@AAAXV?$sp@VArtworkSp@@@@@Z 00137ba0 f   iAP_lib:Player.obj
 0001:00126c08       ?notifyTrackLyric@Player@@AAAXV?$sp@VLyricSp@@@@@Z 00137c08 f   iAP_lib:Player.obj
 0001:00126c70       ?setShuffleMode@Player@@UAAXAAVShuffleMode@iAP@@@Z 00137c70 f   iAP_lib:Player.obj
 0001:00126d14       ?setRepeatMode@Player@@UAAXAAVRepeatMode@iAP@@@Z 00137d14 f   iAP_lib:Player.obj
 0001:00126db8       ?PlayModeInit@Player@@AAAXXZ 00137db8 f   iAP_lib:Player.obj
 0001:00126ec8       ?removeExtendedRetTrackArtworkFormats@Player@@AAAXV?$sp@VNotifier@@@@@Z 00137ec8 f   iAP_lib:Player.obj
 0001:00126f78       ?removeExtendedRetTrackArtworkData@Player@@AAAXV?$sp@VNotifier@@@@@Z 00137f78 f   iAP_lib:Player.obj
 0001:00127028       ?removeExtendedReturnIndexedPlayingTrackInfo@Player@@AAAXV?$sp@VNotifier@@@@@Z 00138028 f   iAP_lib:Player.obj
 0001:001270d8       ?updatePCMPlayback@Player@@AAAXI@Z 001380d8 f   iAP_lib:Player.obj
 0001:00127120       ??0?$_Vector_const_iterator@PAVAuthenticationListener@iAP@@V?$allocator@PAVAuthenticationListener@iAP@@@std@@@std@@QAA@PAPAVAuthenticationListener@iAP@@PBU_Container_base@1@@Z 00138120 f i iAP_lib:AuthenticationMgr.obj
 0001:00127120       ??0?$_Vector_const_iterator@UContactInfo@@V?$allocator@UContactInfo@@@std@@@std@@QAA@PAUContactInfo@@PBU_Container_base@1@@Z 00138120 f i PanelBluetoothWrapper.obj
 0001:00127120       ??0?$_Vector_const_iterator@UstrCallLog@@V?$allocator@UstrCallLog@@@std@@@std@@QAA@PAUstrCallLog@@PBU_Container_base@1@@Z 00138120 f i PanelBluetoothWrapper.obj
 0001:00127120       ??0?$_Vector_const_iterator@UstrPhoneNum@@V?$allocator@UstrPhoneNum@@@std@@@std@@QAA@PAUstrPhoneNum@@PBU_Container_base@1@@Z 00138120 f i PanelBluetoothMain.obj
 0001:00127120       ??0?$_Vector_const_iterator@U_ArtworkFormat@@V?$allocator@U_ArtworkFormat@@@std@@@std@@QAA@PAU_ArtworkFormat@@PBU_Container_base@1@@Z 00138120 f i iAP_lib:Player.obj
 0001:00127120       ??0?$_Vector_const_iterator@UMsgData@@V?$allocator@UMsgData@@@std@@@std@@QAA@PAUMsgData@@PBU_Container_base@1@@Z 00138120 f i GUI_Fantasy.obj
 0001:00127120       ??0?$_Vector_const_iterator@EV?$allocator@E@std@@@std@@QAA@PAEPBU_Container_base@1@@Z 00138120 f i iAP_lib:iAPTransceiver.obj
 0001:00127120       ??0?$_Vector_const_iterator@UstrDeviceInfo@@V?$allocator@UstrDeviceInfo@@@std@@@std@@QAA@PAUstrDeviceInfo@@PBU_Container_base@1@@Z 00138120 f i PanelBluetoothWrapper.obj
 0001:00127168       ??$_Uninit_copy@PAU_ArtworkFormat@@PAU1@V?$allocator@U_ArtworkFormat@@@std@@@std@@YAPAU_ArtworkFormat@@PAU1@00AAV?$allocator@U_ArtworkFormat@@@0@U_Nonscalar_ptr_iterator_tag@0@U_Range_checked_iterator_tag@0@@Z 00138168 f i iAP_lib:Player.obj
 0001:001271a8       ?getArtworkFormatId@Player@@UBAGI@Z 001381a8 f   iAP_lib:Player.obj
 0001:001271fc       ?getArtworkImageWidthandHeight@Player@@UBAXPAG0I@Z 001381fc f   iAP_lib:Player.obj
 0001:00127274       ??$_Uninit_fill_n@PAU_ArtworkFormat@@IU1@V?$allocator@U_ArtworkFormat@@@std@@@std@@YAXPAU_ArtworkFormat@@IABU1@AAV?$allocator@U_ArtworkFormat@@@0@U_Nonscalar_ptr_iterator_tag@0@U_Range_checked_iterator_tag@0@@Z 00138274 f i iAP_lib:Player.obj
 0001:001272ac       ?fillArtworkDataHeader@PlayingTrackArtwork@@SAXAAV?$sp@VArtworkSp@@@@V?$_Vector_iterator@EV?$allocator@E@std@@@std@@@Z 001382ac f   iAP_lib:Player.obj
 0001:0012761c       ??$_Unchecked_move_backward@PAU_ArtworkFormat@@PAU1@@stdext@@YAPAU_ArtworkFormat@@PAU1@00@Z 0013861c f i iAP_lib:Player.obj
 0001:0012766c       ?PlayStatusChangeNotification@Player@@AAAXV?$sp@ViAPRxCmd@@@@@Z 0013866c f   iAP_lib:Player.obj
 0001:001279c4       ?ReturnShuffle@Player@@AAAXV?$sp@ViAPRxCmd@@@@@Z 001389c4 f   iAP_lib:Player.obj
 0001:00127ab4       ?ReturnRepeat@Player@@AAAXV?$sp@ViAPRxCmd@@@@@Z 00138ab4 f   iAP_lib:Player.obj
 0001:00127ba4       ?ExtendedAckGetTrackArtworkData@Player@@AAAXV?$sp@ViAPRxCmd@@@@@Z 00138ba4 f   iAP_lib:Player.obj
 0001:00127c84       ?registerExtendedAckGetTrackArtworkData@Player@@AAAXV?$sp@VNotifier@@@@@Z 00138c84 f   iAP_lib:Player.obj
 0001:00127d3c       ?ReturnPlayStatus@Player@@AAAXV?$sp@ViAPRxCmd@@@@@Z 00138d3c f   iAP_lib:Player.obj
 0001:00127ff8       ?ReturnCurrentPlayingTrackIndex@Player@@AAAXV?$sp@ViAPRxCmd@@@@@Z 00138ff8 f   iAP_lib:Player.obj
 0001:00128180       ?ReturnNumPlayingTracks@Player@@AAAXV?$sp@ViAPRxCmd@@@@@Z 00139180 f   iAP_lib:Player.obj
 0001:001282d8       ?DisplayiPodAckSetRemoteEventNotification@Player@@AAAXV?$sp@ViAPRxCmd@@@@@Z 001392d8 f   iAP_lib:Player.obj
 0001:00128378       ?registerDisplayiPodAckSetRemoteEventNotification@Player@@AAAXV?$sp@VNotifier@@@@@Z 00139378 f   iAP_lib:Player.obj
 0001:00128430       ?DisplayRemoteEventNotification@Player@@AAAXV?$sp@ViAPRxCmd@@@@@Z 00139430 f   iAP_lib:Player.obj
 0001:00128594       ?registerDisplayRemoteEventNotification@Player@@AAAXV?$sp@VNotifier@@@@@Z 00139594 f   iAP_lib:Player.obj
 0001:00128674       ?_Ufill@?$vector@U_ArtworkFormat@@V?$allocator@U_ArtworkFormat@@@std@@@std@@IAAPAU_ArtworkFormat@@PAU3@IABU3@@Z 00139674 f i iAP_lib:Player.obj
 0001:001286c8       ??0iAPTxCmdExtendedGetPlayStatus@@QAA@XZ 001396c8 f i iAP_lib:Player.obj
 0001:00128788       ??0iAPTxCmdExtendedGetCurrentPlayingTrackIndex@@QAA@XZ 00139788 f i iAP_lib:Player.obj
 0001:00128848       ??0iAPTxCmdExtendedGetNumPlayingTracks@@QAA@XZ 00139848 f i iAP_lib:Player.obj
 0001:00128908       ?registerPlayStatusChangeNotification@Player@@AAAXV?$sp@VNotifier@@@@@Z 00139908 f   iAP_lib:Player.obj
 0001:001289f0       ?registerReturnShuffle@Player@@AAAXV?$sp@VNotifier@@@@@Z 001399f0 f   iAP_lib:Player.obj
 0001:00128ad8       ?registerReturnRepeat@Player@@AAAXV?$sp@VNotifier@@@@@Z 00139ad8 f   iAP_lib:Player.obj
 0001:00128bc0       ?registerReturnPlayStatus@Player@@AAAXV?$sp@VNotifier@@@@@Z 00139bc0 f   iAP_lib:Player.obj
 0001:00128ca8       ?getStatusFromIpod@Player@@AAAXXZ 00139ca8 f   iAP_lib:Player.obj
 0001:00128d38       ?getTotalTime@Player@@UAAXXZ 00139d38 f   iAP_lib:Player.obj
 0001:00128d44       ?registerReturnCurrentPlayingTrackIndex@Player@@AAAXV?$sp@VNotifier@@@@@Z 00139d44 f   iAP_lib:Player.obj
 0001:00128e2c       ?getPlayingTrackIndexFromIpod@Player@@UAAXXZ 00139e2c f   iAP_lib:Player.obj
 0001:00128ec4       ?registerReturnNumPlayingTracks@Player@@AAAXV?$sp@VNotifier@@@@@Z 00139ec4 f   iAP_lib:Player.obj
 0001:00128fac       ?GetNumPlayingTracks@Player@@UAAXXZ 00139fac f   iAP_lib:Player.obj
 0001:0012903c       ??$_Umove@PAU_ArtworkFormat@@@?$vector@U_ArtworkFormat@@V?$allocator@U_ArtworkFormat@@@std@@@std@@IAAPAU_ArtworkFormat@@PAU2@00@Z 0013a03c f i iAP_lib:Player.obj
 0001:0012908c       ??1Player@@UAA@XZ          0013a08c f   iAP_lib:Player.obj
 0001:00129298       ??_EPlayer@@W3AAPAXI@Z     0013a298 f i iAP_lib:Player.obj
 0001:001292a8       ?RetIndexedPlayingTrackTitle@Player@@AAAXV?$sp@ViAPRxCmd@@@@@Z 0013a2a8 f   iAP_lib:Player.obj
 0001:001293c8       ?RetIndexedPlayingTrackArtistName@Player@@AAAXV?$sp@ViAPRxCmd@@@@@Z 0013a3c8 f   iAP_lib:Player.obj
 0001:001294e8       ?RetIndexedPlayingTrackAlbumName@Player@@AAAXV?$sp@ViAPRxCmd@@@@@Z 0013a4e8 f   iAP_lib:Player.obj
 0001:00129608       ?_Insert_n@?$vector@U_ArtworkFormat@@V?$allocator@U_ArtworkFormat@@@std@@@std@@IAAXV?$_Vector_iterator@U_ArtworkFormat@@V?$allocator@U_ArtworkFormat@@@std@@@2@IABU_ArtworkFormat@@@Z 0013a608 f i iAP_lib:Player.obj
 0001:00129890       ??_GPlayer@@UAAPAXI@Z      0013a890 f i iAP_lib:Player.obj
 0001:00129890       ??_EPlayer@@UAAPAXI@Z      0013a890 f i iAP_lib:Player.obj
 0001:001298bc       ?registerRetIndexedPlayingTrackTitle@Player@@AAAXV?$sp@VNotifier@@@@@Z 0013a8bc f   iAP_lib:Player.obj
 0001:001299a4       ?registerRetIndexedPlayingTrackArtistName@Player@@AAAXV?$sp@VNotifier@@@@@Z 0013a9a4 f   iAP_lib:Player.obj
 0001:00129a8c       ?registerRetIndexedPlayingTrackAlbumName@Player@@AAAXV?$sp@VNotifier@@@@@Z 0013aa8c f   iAP_lib:Player.obj
 0001:00129b6c       ??4?$vector@EV?$allocator@E@std@@@std@@QAAAAV01@ABV01@@Z 0013ab6c f i iAP_lib:Player.obj
 0001:00129cb4       ?insert@?$vector@U_ArtworkFormat@@V?$allocator@U_ArtworkFormat@@@std@@@std@@QAA?AV?$_Vector_iterator@U_ArtworkFormat@@V?$allocator@U_ArtworkFormat@@@std@@@2@V32@ABU_ArtworkFormat@@@Z 0013acb4 f i iAP_lib:Player.obj
 0001:00129d78       ??$_Construct@PAE@?$vector@EV?$allocator@E@std@@@std@@QAAXPAE0Uinput_iterator_tag@1@@Z 0013ad78 f i iAP_lib:Player.obj
 0001:00129e28       ?push_back@?$vector@U_ArtworkFormat@@V?$allocator@U_ArtworkFormat@@@std@@@std@@QAAXABU_ArtworkFormat@@@Z 0013ae28 f i iAP_lib:Player.obj
 0001:00129ec0       ??0iAPTxCmdExtendedPlayControl@@QAA@E@Z 0013aec0 f i iAP_lib:Player.obj
 0001:00129fa8       ??0iAPTxCmdExtendedSetCurrentPlayingTrack@@QAA@I@Z 0013afa8 f i iAP_lib:Player.obj
 0001:0012a0b8       ??0iAPTxCmdExtendedSetPlayStatusChangeNotification@@QAA@IH@Z 0013b0b8 f i iAP_lib:Player.obj
 0001:0012a1d4       ??0iAPTxCmdExtendedGetIndexedPlayingTrackTitle@@QAA@I@Z 0013b1d4 f i iAP_lib:Player.obj
 0001:0012a2e4       ??0iAPTxCmdExtendedGetIndexedPlayingTrackAlbumName@@QAA@I@Z 0013b2e4 f i iAP_lib:Player.obj
 0001:0012a3f4       ??0iAPTxCmdExtendedGetIndexedPlayingTrackArtistName@@QAA@I@Z 0013b3f4 f i iAP_lib:Player.obj
 0001:0012a504       ??0iAPTxExtendedGetTrackArtworkData@@QAA@IGI@Z 0013b504 f i iAP_lib:Player.obj
 0001:0012a68c       ??0iAPTxCmdDisplaySetiPodStateInfoTime@@QAA@I@Z 0013b68c f i iAP_lib:Player.obj
 0001:0012a7b0       ??0iAPTxCmdExtendedGetIndexedPlayingTrackInfo@@QAA@EIG@Z 0013b7b0 f i iAP_lib:Player.obj
 0001:0012a8ec       ??0iAPTxCmdDigitalAudioRetAccessorySampleRateCaps@@QAA@G@Z 0013b8ec f i iAP_lib:Player.obj
 0001:0012aa54       ??0iAPTxCmdDigitalAudioAccessoryAck@@QAA@EG@Z 0013ba54 f i iAP_lib:Player.obj
 0001:0012ab8c       ??0iAPTxCmdDisplaySetRemoteEventNotification@@QAA@I@Z 0013bb8c f i iAP_lib:Player.obj
 0001:0012ac94       ?fillArtworkData@PlayingTrackArtwork@@SAXAAV?$sp@VArtworkSp@@@@AAV?$vector@EV?$allocator@E@std@@@std@@I@Z 0013bc94 f   iAP_lib:Player.obj
 0001:0012acf4       ?fillLyricData@PlayingTrackLyric@@SAXAAV?$sp@VLyricSp@@@@AAV?$vector@EV?$allocator@E@std@@@std@@I@Z 0013bcf4 f   iAP_lib:Player.obj
 0001:0012ad70       ?startPlay@Player@@UAAXW4_PlaybackID@iAP@@I@Z 0013bd70 f   iAP_lib:Player.obj
 0001:0012ae74       ?playControl@Player@@AAAXE@Z 0013be74 f   iAP_lib:Player.obj
 0001:0012af24       ?resumePlay@Player@@UAAXXZ 0013bf24 f   iAP_lib:Player.obj
 0001:0012b054       ?pausePlay@Player@@UAAXXZ  0013c054 f   iAP_lib:Player.obj
 0001:0012b154       ?stopPlay@Player@@UAAXXZ   0013c154 f   iAP_lib:Player.obj
 0001:0012b174       ?nextPlay@Player@@UAAXXZ   0013c174 f   iAP_lib:Player.obj
 0001:0012b17c       ?prevPlay@Player@@UAAXXZ   0013c17c f   iAP_lib:Player.obj
 0001:0012b184       ?fastForwardPlay@Player@@UAAXXZ 0013c184 f   iAP_lib:Player.obj
 0001:0012b1a4       ?reversePlay@Player@@UAAXXZ 0013c1a4 f   iAP_lib:Player.obj
 0001:0012b1c4       ?endFFRewPlay@Player@@UAAXXZ 0013c1c4 f   iAP_lib:Player.obj
 0001:0012b1ec       ?getPlayingTrackName@Player@@UAAXI@Z 0013c1ec f   iAP_lib:Player.obj
 0001:0012b28c       ?getPlayingTrackArtistName@Player@@UAAXI@Z 0013c28c f   iAP_lib:Player.obj
 0001:0012b32c       ?getPlayingTrackAlbumName@Player@@UAAXI@Z 0013c32c f   iAP_lib:Player.obj
 0001:0012b3c4       ??_EArtworkSp@@UAAPAXI@Z   0013c3c4 f i iAP_lib:Player.obj
 0001:0012b3c4       ??_GArtworkSp@@UAAPAXI@Z   0013c3c4 f i iAP_lib:Player.obj
 0001:0012b414       ??_ELyricSp@@UAAPAXI@Z     0013c414 f i iAP_lib:Player.obj
 0001:0012b414       ??_GLyricSp@@UAAPAXI@Z     0013c414 f i iAP_lib:Player.obj
 0001:0012b46c       ?onTimePlay@Player@@UAAXI@Z 0013c46c f   iAP_lib:Player.obj
 0001:0012b510       ?RetTrackArtworkFormats@Player@@AAAXV?$sp@ViAPRxCmd@@@@@Z 0013c510 f   iAP_lib:Player.obj
 0001:0012b750       ?registerExtendedRetTrackArtworkFormats@Player@@AAAXV?$sp@VNotifier@@@@@Z 0013c750 f   iAP_lib:Player.obj
 0001:0012b838       ?RetTrackArtworkData@Player@@AAAXV?$sp@ViAPRxCmd@@@@@Z 0013c838 f   iAP_lib:Player.obj
 0001:0012b9d8       ?registerExtendedRetTrackArtworkData@Player@@AAAXV?$sp@VNotifier@@@@@Z 0013c9d8 f   iAP_lib:Player.obj
 0001:0012bac0       ?ReturnIndexedPlayingTrackInfo@Player@@AAAXV?$sp@ViAPRxCmd@@@@@Z 0013cac0 f   iAP_lib:Player.obj
 0001:0012bc78       ?registerExtendedReturnIndexedPlayingTrackInfo@Player@@AAAXV?$sp@VNotifier@@@@@Z 0013cc78 f   iAP_lib:Player.obj
 0001:0012bd60       ?ExtendedAckSetPlayStatusChangeNotification@Player@@AAAXV?$sp@ViAPRxCmd@@@@@Z 0013cd60 f   iAP_lib:Player.obj
 0001:0012bec4       ?GetAccessorySampleRateCaps@Player@@AAAXV?$sp@ViAPRxCmd@@@@@Z 0013cec4 f   iAP_lib:Player.obj
 0001:0012bfb0       ?TrackNewAudioAttributes@Player@@AAAXV?$sp@ViAPRxCmd@@@@@Z 0013cfb0 f   iAP_lib:Player.obj
 0001:0012c1e0       ?SetCurrentPlayingTrack@Player@@UAAXI@Z 0013d1e0 f   iAP_lib:Player.obj
 0001:0012c280       ?SetRemoteEventNotification@Player@@QAAXI@Z 0013d280 f   iAP_lib:Player.obj
 0001:0012c320       ?getArtworkFormats@Player@@AAAXXZ 0013d320 f   iAP_lib:Player.obj
 0001:0012c3f4       ?getArtwork@Player@@UAAXIG@Z 0013d3f4 f   iAP_lib:Player.obj
 0001:0012c588       ?getArtworkStatus@Player@@UAAXI@Z 0013d588 f   iAP_lib:Player.obj
 0001:0012c66c       ?getLyric@Player@@UAAXI@Z  0013d66c f   iAP_lib:Player.obj
 0001:0012c7f0       ?registerExtendedAckSetPlayStatusChangeNotification@Player@@AAAXV?$sp@VNotifier@@@@@Z 0013d7f0 f   iAP_lib:Player.obj
 0001:0012c8a8       ?registerGetAccessorySampleRateCaps@Player@@AAAXV?$sp@VNotifier@@@@@Z 0013d8a8 f   iAP_lib:Player.obj
 0001:0012c990       ?registerTrackNewAudioAttributes@Player@@AAAXV?$sp@VNotifier@@@@@Z 0013d990 f   iAP_lib:Player.obj
 0001:0012ca78       ?setPlayStatusChangeNotification@Player@@AAAXXZ 0013da78 f   iAP_lib:Player.obj
 0001:0012cb54       ?registerCallbacksToNotifier@Player@@AAAXV?$sp@VNotifier@@@@@Z 0013db54 f   iAP_lib:Player.obj
 0001:0012cd44       ??0Player@@QAA@XZ          0013dd44 f   iAP_lib:Player.obj
 0001:0012cf4c       ?init@Player@@UAAXXZ       0013df4c f   iAP_lib:Player.obj
 0001:0012cf78       ??0PcmPlayback@@AAA@XZ     0013df78 f   iAP_lib:PcmPlayback.obj
 0001:0012d10c       ?WaveInProc@PcmPlayback@@CAXPAUHWAVEIN__@@IKKK@Z 0013e10c f   iAP_lib:PcmPlayback.obj
 0001:0012d170       ?WaveOutProc@PcmPlayback@@CAXPAUHWAVEOUT__@@IKKK@Z 0013e170 f   iAP_lib:PcmPlayback.obj
 0001:0012d1a8       ?InitWaveFormatEx@PcmPlayback@@AAAXPAUtWAVEFORMATEX@@I@Z 0013e1a8 f   iAP_lib:PcmPlayback.obj
 0001:0012d228       ?RemoveAllBuffers@PcmPlayback@@AAAKXZ 0013e228 f   iAP_lib:PcmPlayback.obj
 0001:0012d294       ?CountBufferElem@PcmPlayback@@AAAKK@Z 0013e294 f   iAP_lib:PcmPlayback.obj
 0001:0012d2d0       ?ShrinkBuffer@PcmPlayback@@AAAKPAE@Z 0013e2d0 f   iAP_lib:PcmPlayback.obj
 0001:0012d344       ?PutOutBuffers@PcmPlayback@@AAAKK@Z 0013e344 f   iAP_lib:PcmPlayback.obj
 0001:0012d478       ?PutInBuffers@PcmPlayback@@AAAKKK@Z 0013e478 f   iAP_lib:PcmPlayback.obj
 0001:0012d59c       ?StartPlayback@PcmPlayback@@AAAXXZ 0013e59c f   iAP_lib:PcmPlayback.obj
 0001:0012d5d4       ?StopPlayback@PcmPlayback@@AAAXXZ 0013e5d4 f   iAP_lib:PcmPlayback.obj
 0001:0012d634       ?PcmThreadHandler@PcmPlayback@@AAAKXZ 0013e634 f   iAP_lib:PcmPlayback.obj
 0001:0012d7d0       ?play@PcmPlayback@@QAAXXZ  0013e7d0 f   iAP_lib:PcmPlayback.obj
 0001:0012d7e8       ?stop@PcmPlayback@@QAAXXZ  0013e7e8 f   iAP_lib:PcmPlayback.obj
 0001:0012d88c       ??_EPcmPlayback@@UAAPAXI@Z 0013e88c f i iAP_lib:PcmPlayback.obj
 0001:0012d88c       ??_GPcmPlayback@@UAAPAXI@Z 0013e88c f i iAP_lib:PcmPlayback.obj
 0001:0012d8c8       ?PcmThread@PcmPlayback@@CAKPAX@Z 0013e8c8 f   iAP_lib:PcmPlayback.obj
 0001:0012d8cc       ?start@PcmPlayback@@QAAXI@Z 0013e8cc f   iAP_lib:PcmPlayback.obj
 0001:0012db20       ?getInstance@PcmPlayback@@SA?AV?$sp@VPcmPlayback@@@@XZ 0013eb20 f   iAP_lib:PcmPlayback.obj
 0001:0012db4c       ?reset@PcmPlayback@@QAAXI@Z 0013eb4c f   iAP_lib:PcmPlayback.obj
 0001:0012dbc0       ??1NulliOSCommunicationListener@@UAA@XZ 0013ebc0 f i iAP_lib:OSCommunication.obj
 0001:0012dbd0       ??_EIapIOSCommunicationListener@@UAAPAXI@Z 0013ebd0 f i PaneliPodWrapper.obj
 0001:0012dbd0       ??_GiOSCommunicationListener@iAP@@UAAPAXI@Z 0013ebd0 f i PaneliPodWrapper.obj
 0001:0012dbd0       ??_GNulliOSCommunicationListener@@UAAPAXI@Z 0013ebd0 f i iAP_lib:OSCommunication.obj
 0001:0012dbd0       ??_EiOSCommunicationListener@iAP@@UAAPAXI@Z 0013ebd0 f i PaneliPodWrapper.obj
 0001:0012dbd0       ??_GIapIOSCommunicationListener@@UAAPAXI@Z 0013ebd0 f i PaneliPodWrapper.obj
 0001:0012dbd0       ??_ENulliOSCommunicationListener@@UAAPAXI@Z 0013ebd0 f i iAP_lib:OSCommunication.obj
 0001:0012dbf4       ?registerListener@OSCommunication@@UAAXPAViOSCommunicationListener@iAP@@@Z 0013ebf4 f   iAP_lib:OSCommunication.obj
 0001:0012dc00       ?GeneralAckSetiPodPreferences@BrowsingMgr@@AAAXV?$sp@ViAPRxCmd@@@@@Z 0013ec00 f   iAP_lib:BrowsingMgr.obj
 0001:0012dc00       ?GeneralRetiPodOptions@AuthenticationMgr@@AAAXV?$sp@ViAPRxCmd@@@@@Z 0013ec00 f   iAP_lib:AuthenticationMgr.obj
 0001:0012dc00       ?iPodNotification@OSCommunication@@AAAXV?$sp@ViAPRxCmd@@@@@Z 0013ec00 f   iAP_lib:OSCommunication.obj
 0001:0012dc00       ?GeneralAckGetiPodOptions@AuthenticationMgr@@AAAXV?$sp@ViAPRxCmd@@@@@Z 0013ec00 f   iAP_lib:AuthenticationMgr.obj
 0001:0012dc10       ?registeriPodNotification@OSCommunication@@AAAXV?$sp@VNotifier@@@@@Z 0013ec10 f   iAP_lib:OSCommunication.obj
 0001:0012dcf8       ??1OSCommunication@@UAA@XZ 0013ecf8 f   iAP_lib:OSCommunication.obj
 0001:0012de74       ??_EOSCommunication@@W3AAPAXI@Z 0013ee74 f i iAP_lib:OSCommunication.obj
 0001:0012de7c       ??_EOSCommunication@@UAAPAXI@Z 0013ee7c f i iAP_lib:OSCommunication.obj
 0001:0012de7c       ??_GOSCommunication@@UAAPAXI@Z 0013ee7c f i iAP_lib:OSCommunication.obj
 0001:0012dea8       ??0iAPTxCmdGeneralAccessoryAck@@QAA@E@Z 0013eea8 f i iAP_lib:OSCommunication.obj
 0001:0012df88       ??0iAPTxGeneralAccessoryDataTransfer@@QAA@PAEI@Z 0013ef88 f i iAP_lib:OSCommunication.obj
 0001:0012e05c       ?sendData@OSCommunication@@UAAXPAEI@Z 0013f05c f   iAP_lib:OSCommunication.obj
 0001:0012e104       ?AccessoryAck@OSCommunication@@AAAXE@Z 0013f104 f   iAP_lib:OSCommunication.obj
 0001:0012e1a4       ?OpenDataSessionForProtocol@OSCommunication@@AAAXV?$sp@ViAPRxCmd@@@@@Z 0013f1a4 f   iAP_lib:OSCommunication.obj
 0001:0012e2b4       ?CloseDataSession@OSCommunication@@AAAXV?$sp@ViAPRxCmd@@@@@Z 0013f2b4 f   iAP_lib:OSCommunication.obj
 0001:0012e3c4       ?iPodDataTransfer@OSCommunication@@AAAXV?$sp@ViAPRxCmd@@@@@Z 0013f3c4 f   iAP_lib:OSCommunication.obj
 0001:0012e4fc       ?registerOpenDataSessionForProtocol@OSCommunication@@AAAXV?$sp@VNotifier@@@@@Z 0013f4fc f   iAP_lib:OSCommunication.obj
 0001:0012e5e4       ?registerCloseDataSession@OSCommunication@@AAAXV?$sp@VNotifier@@@@@Z 0013f5e4 f   iAP_lib:OSCommunication.obj
 0001:0012e6cc       ?registeriPodDataTransfer@OSCommunication@@AAAXV?$sp@VNotifier@@@@@Z 0013f6cc f   iAP_lib:OSCommunication.obj
 0001:0012e7b4       ?registerCallbacksToNotifier@OSCommunication@@AAAXV?$sp@VNotifier@@@@@Z 0013f7b4 f   iAP_lib:OSCommunication.obj
 0001:0012e884       ??0OSCommunication@@QAA@XZ 0013f884 f   iAP_lib:OSCommunication.obj
 0001:0012e9ac       ??1NullBrowserListener@@UAA@XZ 0013f9ac f i iAP_lib:BrowsingMgr.obj
 0001:0012e9ac       ??1NullRemoteControlListener@@UAA@XZ 0013f9ac f i iAP_lib:RemoteControlMgr.obj
 0001:0012e9bc       ?registerListener@RemoteControl@@UAAXPAVRemoteControlListener@iAP@@@Z 0013f9bc f   iAP_lib:RemoteControlMgr.obj
 0001:0012e9c4       ?AccessoryGetVoiceOverParameter@RemoteControl@@UAAXPAE0@Z 0013f9c4 f   iAP_lib:RemoteControlMgr.obj
 0001:0012e9e0       ?removeCallbacksFromNotifier@OSCommunication@@AAAXV?$sp@VNotifier@@@@@Z 0013f9e0 f   iAP_lib:OSCommunication.obj
 0001:0012e9e0       ?removeCallbacksFromNotifier@Player@@AAAXV?$sp@VNotifier@@@@@Z 0013f9e0 f   iAP_lib:Player.obj
 0001:0012e9e0       ?removeCallbacksFromNotifier@AuthenticationMgr@@AAAXV?$sp@VNotifier@@@@@Z 0013f9e0 f   iAP_lib:AuthenticationMgr.obj
 0001:0012e9e0       ?removeCallbacksFromNotifier@RemoteControl@@AAAXV?$sp@VNotifier@@@@@Z 0013f9e0 f   iAP_lib:RemoteControlMgr.obj
 0001:0012ea30       ?AccessoryAck@RemoteControl@@AAAXE@Z 0013fa30 f   iAP_lib:RemoteControlMgr.obj
 0001:0012ead0       ?AccessoryDegisterHID@RemoteControl@@UAAXE@Z 0013fad0 f   iAP_lib:RemoteControlMgr.obj
 0001:0012eb70       ?AccessorySetVoiceOverParameter@RemoteControl@@UAAXEEE@Z 0013fb70 f   iAP_lib:RemoteControlMgr.obj
 0001:0012ecb4       ?AccessoryACKHIDReport@RemoteControl@@AAAXV?$sp@ViAPRxCmd@@@@@Z 0013fcb4 f   iAP_lib:RemoteControlMgr.obj
 0001:0012ed04       ?registerAccessoryHIDReport@RemoteControl@@AAAXV?$sp@VNotifier@@@@@Z 0013fd04 f   iAP_lib:RemoteControlMgr.obj
 0001:0012edec       ??1RemoteControl@@UAA@XZ   0013fdec f   iAP_lib:RemoteControlMgr.obj
 0001:0012ef60       ??_ERemoteControl@@W3AAPAXI@Z 0013ff60 f i iAP_lib:RemoteControlMgr.obj
 0001:0012ef70       ?iPodAckparse@RemoteControl@@AAAXV?$sp@ViAPRxCmd@@@@@Z 0013ff70 f   iAP_lib:RemoteControlMgr.obj
 0001:0012f118       ?RetVoiceOverParameter@RemoteControl@@AAAXV?$sp@ViAPRxCmd@@@@@Z 00140118 f   iAP_lib:RemoteControlMgr.obj
 0001:0012f224       ?RetCurrentVoiceOverItemProperty@RemoteControl@@AAAXV?$sp@ViAPRxCmd@@@@@Z 00140224 f   iAP_lib:RemoteControlMgr.obj
 0001:0012f2a4       ?VoiceOverParameterChanged@RemoteControl@@AAAXV?$sp@ViAPRxCmd@@@@@Z 001402a4 f   iAP_lib:RemoteControlMgr.obj
 0001:0012f464       ??_GRemoteControl@@UAAPAXI@Z 00140464 f i iAP_lib:RemoteControlMgr.obj
 0001:0012f464       ??_ERemoteControl@@UAAPAXI@Z 00140464 f i iAP_lib:RemoteControlMgr.obj
 0001:0012f490       ?registeriPodAck@RemoteControl@@AAAXV?$sp@VNotifier@@@@@Z 00140490 f   iAP_lib:RemoteControlMgr.obj
 0001:0012f588       ?registerRetVoiceOverParameter@RemoteControl@@AAAXV?$sp@VNotifier@@@@@Z 00140588 f   iAP_lib:RemoteControlMgr.obj
 0001:0012f670       ?registerRetCurrentVoiceOverItemProperty@RemoteControl@@AAAXV?$sp@VNotifier@@@@@Z 00140670 f   iAP_lib:RemoteControlMgr.obj
 0001:0012f758       ?registerVoiceOverParameterChanged@RemoteControl@@AAAXV?$sp@VNotifier@@@@@Z 00140758 f   iAP_lib:RemoteControlMgr.obj
 0001:0012f840       ?registerCallbacksToNotifier@RemoteControl@@AAAXV?$sp@VNotifier@@@@@Z 00140840 f   iAP_lib:RemoteControlMgr.obj
 0001:0012f930       ??0RemoteControl@@QAA@XZ   00140930 f   iAP_lib:RemoteControlMgr.obj
 0001:0012fa90       ?AccessorySendHIDReport@RemoteControl@@UAAXEPAVHIDReport@iAP@@@Z 00140a90 f   iAP_lib:RemoteControlMgr.obj
 0001:0012fb48       ?init@RemoteControl@@UAAXXZ 00140b48 f   iAP_lib:RemoteControlMgr.obj
 0001:0012fbec       ?deinit@RemoteControl@@UAAXXZ 00140bec f   iAP_lib:RemoteControlMgr.obj
 0001:0012fc90       ?AccessoryRegistorHIDdevice@RemoteControl@@UAAXPAVHIDDescriptor@iAP@@@Z 00140c90 f   iAP_lib:RemoteControlMgr.obj
 0001:0012feb0       ?getVersion@Version@@SA?AV?$basic_string@DU?$char_traits@D@std@@V?$allocator@D@2@@std@@XZ 00140eb0 f   iAP_lib:version.obj
 0001:0012fee4       ??_Gios_base@std@@UAAPAXI@Z 00140ee4 f i iAP_lib:utils.obj
 0001:0012fee4       ??_Eios_base@std@@UAAPAXI@Z 00140ee4 f i iAP_lib:utils.obj
 0001:0012fee4       ??_G?$basic_ios@DU?$char_traits@D@std@@@std@@UAAPAXI@Z 00140ee4 f i iAP_lib:utils.obj
 0001:0012fee4       ??_E?$basic_ios@DU?$char_traits@D@std@@@std@@UAAPAXI@Z 00140ee4 f i iAP_lib:utils.obj
 0001:0012ff14       ?getBitFromByte@utils@@SAHEE@Z 00140f14 f   iAP_lib:utils.obj
 0001:0012ff20       ??1?$basic_ios@DU?$char_traits@D@std@@@std@@UAA@XZ 00140f20 f i iAP_lib:utils.obj
 0001:0012ff34       ?overflow@?$basic_streambuf@DU?$char_traits@D@std@@@std@@MAAHH@Z 00140f34 f i iAP_lib:utils.obj
 0001:0012ff34       ?pbackfail@?$basic_streambuf@DU?$char_traits@D@std@@@std@@MAAHH@Z 00140f34 f i iAP_lib:utils.obj
 0001:0012ff34       ?underflow@?$basic_streambuf@DU?$char_traits@D@std@@@std@@MAAHXZ 00140f34 f i iAP_lib:utils.obj
 0001:0012ff3c       ?xsgetn@?$basic_streambuf@DU?$char_traits@D@std@@@std@@MAAHPADH@Z 00140f3c f i iAP_lib:utils.obj
 0001:0012ff5c       ??M?$_Vector_const_iterator@EV?$allocator@E@std@@@std@@QBA_NABV01@@Z 00140f5c f i iAP_lib:utils.obj
 0001:0012ff5c       ??M?$_Vector_const_iterator@PAVAuthenticationListener@iAP@@V?$allocator@PAVAuthenticationListener@iAP@@@std@@@std@@QBA_NABV01@@Z 00140f5c f i iAP_lib:AuthenticationMgr.obj
 0001:0012ffa4       ??_G?$basic_streambuf@DU?$char_traits@D@std@@@std@@UAAPAXI@Z 00140fa4 f i iAP_lib:utils.obj
 0001:0012ffa4       ??_E?$basic_streambuf@DU?$char_traits@D@std@@@std@@UAAPAXI@Z 00140fa4 f i iAP_lib:utils.obj
 0001:0012ffd4       ??_D?$basic_ostream@DU?$char_traits@D@std@@@std@@QAAXXZ 00140fd4 f i iAP_lib:utils.obj
 0001:0013000c       ?uflow@?$basic_streambuf@DU?$char_traits@D@std@@@std@@MAAHXZ 0014100c f i iAP_lib:utils.obj
 0001:00130064       ?seekpos@?$basic_streambuf@DU?$char_traits@D@std@@@std@@MAA?AV?$fpos@H@2@V32@H@Z 00141064 f i iAP_lib:utils.obj
 0001:00130064       ?seekoff@?$basic_streambuf@DU?$char_traits@D@std@@@std@@MAA?AV?$fpos@H@2@JHH@Z 00141064 f i iAP_lib:utils.obj
 0001:0013008c       ??_G?$basic_ostream@DU?$char_traits@D@std@@@std@@UAAPAXI@Z 0014108c f i iAP_lib:utils.obj
 0001:0013008c       ??_E?$basic_ostream@DU?$char_traits@D@std@@@std@@UAAPAXI@Z 0014108c f i iAP_lib:utils.obj
 0001:001300dc       ?_Init@?$basic_streambuf@DU?$char_traits@D@std@@@std@@IAAXXZ 001410dc f i iAP_lib:utils.obj
 0001:00130144       ?calcChecksumPlusLen@utils@@SAEV?$_Vector_iterator@EV?$allocator@E@std@@@std@@G@Z 00141144 f   iAP_lib:utils.obj
 0001:001301b8       ?calcChecksum@utils@@SAEV?$_Vector_iterator@EV?$allocator@E@std@@@std@@I@Z 001411b8 f   iAP_lib:utils.obj
 0001:00130224       ?_Xsgetn_s@?$basic_streambuf@DU?$char_traits@D@std@@@std@@MAAHPADIH@Z 00141224 f i iAP_lib:utils.obj
 0001:001302ec       ?xsputn@?$basic_streambuf@DU?$char_traits@D@std@@@std@@MAAHPBDH@Z 001412ec f i iAP_lib:utils.obj
 0001:001303b4       ??0?$basic_filebuf@DU?$char_traits@D@std@@@std@@QAA@PAX@Z 001413b4 f i iAP_lib:utils.obj
 0001:00130414       ?sync@?$basic_filebuf@DU?$char_traits@D@std@@@std@@MAAHXZ 00141414 f i iAP_lib:utils.obj
 0001:0013046c       ?overflow@?$basic_filebuf@DU?$char_traits@D@std@@@std@@MAAHH@Z 0014146c f i iAP_lib:utils.obj
 0001:0013052c       ?pbackfail@?$basic_filebuf@DU?$char_traits@D@std@@@std@@MAAHH@Z 0014152c f i iAP_lib:utils.obj
 0001:001305fc       ?underflow@?$basic_filebuf@DU?$char_traits@D@std@@@std@@MAAHXZ 001415fc f i iAP_lib:utils.obj
 0001:0013067c       ?uflow@?$basic_filebuf@DU?$char_traits@D@std@@@std@@MAAHXZ 0014167c f i iAP_lib:utils.obj
 0001:00130724       ?seekoff@?$basic_filebuf@DU?$char_traits@D@std@@@std@@MAA?AV?$fpos@H@2@JHH@Z 00141724 f i iAP_lib:utils.obj
 0001:00130814       ?seekpos@?$basic_filebuf@DU?$char_traits@D@std@@@std@@MAA?AV?$fpos@H@2@V32@H@Z 00141814 f i iAP_lib:utils.obj
 0001:00130920       ?setbuf@?$basic_filebuf@DU?$char_traits@D@std@@@std@@MAAPAV?$basic_streambuf@DU?$char_traits@D@std@@@2@PADH@Z 00141920 f i iAP_lib:utils.obj
 0001:0013099c       ?close@?$basic_filebuf@DU?$char_traits@D@std@@@std@@QAAPAV12@XZ 0014199c f i iAP_lib:utils.obj
 0001:001309f8       ?printVector@utils@@SAXAAV?$vector@EV?$allocator@E@std@@@std@@@Z 001419f8 f   iAP_lib:utils.obj
 0001:00130a4c       ??1?$basic_filebuf@DU?$char_traits@D@std@@@std@@UAA@XZ 00141a4c f i iAP_lib:utils.obj
 0001:00130a84       ??_G?$basic_filebuf@DU?$char_traits@D@std@@@std@@UAAPAXI@Z 00141a84 f i iAP_lib:utils.obj
 0001:00130a84       ??_E?$basic_filebuf@DU?$char_traits@D@std@@@std@@UAAPAXI@Z 00141a84 f i iAP_lib:utils.obj
 0001:00130ad0       ?_Init@ios_base@std@@IAAXXZ 00141ad0 f i iAP_lib:utils.obj
 0001:00130b0c       ?init@?$basic_ios@DU?$char_traits@D@std@@@std@@IAAXPAV?$basic_streambuf@DU?$char_traits@D@std@@@2@_N@Z 00141b0c f i iAP_lib:utils.obj
 0001:00130b70       ??0?$basic_ostream@DU?$char_traits@D@std@@@std@@QAA@PAV?$basic_streambuf@DU?$char_traits@D@std@@@1@_N@Z 00141b70 f i iAP_lib:utils.obj
 0001:00130c28       ?arrayToVector@utils@@SAXPAEIAAV?$vector@EV?$allocator@E@std@@@std@@@Z 00141c28 f   iAP_lib:utils.obj
 0001:00130c6c       ?getLingoId@iAPCmd@@QBA?AViAPLingoId@@XZ 00141c6c f   iAP_lib:iAPCmd.obj
 0001:00130c7c       ?setLingoId@iAPCmd@@QAAXViAPLingoId@@@Z 00141c7c f   iAP_lib:iAPCmd.obj
 0001:00130ca0       ?setTransactionId@iAPCmd@@QAAXG@Z 00141ca0 f   iAP_lib:iAPCmd.obj
 0001:00130ca8       ?getCmdId@iAPCmd@@QBA?AViAPCommandId@@XZ 00141ca8 f   iAP_lib:iAPCmd.obj
 0001:00130cc8       ?setCmdId@iAPCmd@@QAAXViAPCommandId@@@Z 00141cc8 f   iAP_lib:iAPCmd.obj
 0001:00130ce4       ??1iAPCmd@@UAA@XZ          00141ce4 f   iAP_lib:iAPCmd.obj
 0001:00130d74       ??_EiAPCmd@@UAAPAXI@Z      00141d74 f i iAP_lib:iAPCmd.obj
 0001:00130d74       ??_GiAPCmd@@UAAPAXI@Z      00141d74 f i iAP_lib:iAPCmd.obj
 0001:00130da0       ??0iAPCmd@@QAA@XZ          00141da0 f   iAP_lib:iAPCmd.obj
 0001:00130e3c       ?getPayload@iAPCmd@@QBA?AV?$vector@EV?$allocator@E@std@@@std@@XZ 00141e3c f   iAP_lib:iAPCmd.obj
 0001:00130e60       ??0iAPRxCmd@@QAA@XZ        00141e60 f   iAP_lib:iAPRxCmd.obj
 0001:00130ed8       ??1iAPRxCmd@@UAA@XZ        00141ed8 f   iAP_lib:iAPRxCmd.obj
 0001:00130f38       ??_EiAPRxCmd@@W7AAPAXI@Z   00141f38 f i iAP_lib:iAPRxCmd.obj
 0001:00130f40       ??_EiAPRxCmd@@UAAPAXI@Z    00141f40 f i iAP_lib:iAPRxCmd.obj
 0001:00130f40       ??_GiAPRxCmd@@UAAPAXI@Z    00141f40 f i iAP_lib:iAPRxCmd.obj
 0001:00130f6c       ?createiAPRxCmd@iAPRxCmd@@SA?AV?$sp@ViAPRxCmd@@@@AAV?$vector@EV?$allocator@E@std@@@std@@@Z 00141f6c f   iAP_lib:iAPRxCmd.obj
 0001:00131efc       ??1iAPCommandId@@UAA@XZ    00142efc f   iAP_lib:iAPCommandId1.obj
 0001:00131f0c       ?Null@iAPCommandId@@SA?AV1@XZ 00142f0c f   iAP_lib:iAPCommandId1.obj
 0001:00131f24       ?getTransactionId@iAPCmd@@QBAGXZ 00142f24 f   iAP_lib:iAPCmd.obj
 0001:00131f24       ?get@iAPCommandId@@QBAGXZ  00142f24 f   iAP_lib:iAPCommandId1.obj
 0001:00131f2c       ??8iAPCommandId@@QBAHABV0@@Z 00142f2c f   iAP_lib:iAPCommandId1.obj
 0001:00131f44       ??MiAPCommandId@@QBA_NABV0@@Z 00142f44 f   iAP_lib:iAPCommandId1.obj
 0001:00131f64       ?Create@iAPCommandId@@SA?AV1@E@Z 00142f64 f   iAP_lib:iAPCommandId1.obj
 0001:00131f64       ??0iAPCommandId@@QAA@G@Z   00142f64 f   iAP_lib:iAPCommandId1.obj
 0001:00131f7c       ?RepeatAllTracks@RepeatMode@iAP@@SA?AV12@XZ 00142f7c f   iAP_lib:iAPRepeatMode.obj
 0001:00131f7c       ?SimpleRemote@iAPLingoId@@SA?AV1@XZ 00142f7c f   iAP_lib:iAPLingoId.obj
 0001:00131f7c       ?ShuffleAlbums@ShuffleMode@iAP@@SA?AV12@XZ 00142f7c f   iAP_lib:iAPShuffleMode.obj
 0001:00131f88       ?DisplayRemote@iAPLingoId@@SA?AV1@XZ 00142f88 f   iAP_lib:iAPLingoId.obj
 0001:00131f94       ?ExtendedInterface@iAPLingoId@@SA?AV1@XZ 00142f94 f   iAP_lib:iAPLingoId.obj
 0001:00131fa0       ?DigitalAudio@iAPLingoId@@SA?AV1@XZ 00142fa0 f   iAP_lib:iAPLingoId.obj
 0001:00131fac       ??MiAPLingoId@@QBA_NABV0@@Z 00142fac f   iAP_lib:iAPLingoId.obj
 0001:00131fd4       ??0iAPTxCmd@@QAA@XZ        00142fd4 f   iAP_lib:iAPTxCmd.obj
 0001:00132094       ??1iAPTxCmd@@UAA@XZ        00143094 f   iAP_lib:iAPTxCmd.obj
 0001:001320c8       ?getCmdLen@iAPTxCmd@@QAAEXZ 001430c8 f   iAP_lib:iAPTxCmd.obj
 0001:0013213c       ?getMaxPayloadSize@iAPTxCmd@@SAGXZ 0014313c f   iAP_lib:iAPTxCmd.obj
 0001:0013214c       ?setMaxPayloadSize@iAPTxCmd@@SAXG@Z 0014314c f   iAP_lib:iAPTxCmd.obj
 0001:0013215c       ?getProtocalVersionIntroducedIn@iAPTxCmd@@QAAXPAE0@Z 0014315c f   iAP_lib:iAPTxCmd.obj
 0001:00132170       ??_EiAPTxCmd@@WCI@AAPAXI@Z 00143170 f i iAP_lib:iAPTxCmd.obj
 0001:00132178       ??_EiAPTxCmd@@UAAPAXI@Z    00143178 f i iAP_lib:iAPTxCmd.obj
 0001:00132178       ??_GiAPTxCmd@@UAAPAXI@Z    00143178 f i iAP_lib:iAPTxCmd.obj
 0001:001321c4       ?Ack@iAPExtendedLingoCommandId@@SA?AViAPCommandId@@XZ 001431c4 f   iAP_lib:iAPExtendedLingoCommandId.obj
 0001:001321c4       ?iPodAck@iAPSimpleRemoteLingoCommandId@@SA?AViAPCommandId@@XZ 001431c4 f   iAP_lib:iAPSimpleRemoteLingoCommandId.obj
 0001:001321dc       ?GetIndexedPlayingTrackInfo@iAPExtendedLingoCommandId@@SA?AViAPCommandId@@XZ 001431dc f   iAP_lib:iAPExtendedLingoCommandId.obj
 0001:001321f4       ?ReturnIndexedPlayingTrackInfo@iAPExtendedLingoCommandId@@SA?AViAPCommandId@@XZ 001431f4 f   iAP_lib:iAPExtendedLingoCommandId.obj
 0001:0013220c       ?RetCurrentVoiceOverItemProperty@iAPSimpleRemoteLingoCommandId@@SA?AViAPCommandId@@XZ 0014320c f   iAP_lib:iAPSimpleRemoteLingoCommandId.obj
 0001:0013220c       ?RetAccessoryAuthenticationSignature@iAPGeneralLingoCommandId@@SA?AViAPCommandId@@XZ 0014320c f   iAP_lib:iAPGeneralLingoCommandId.obj
 0001:0013220c       ?GetNumberCategorizedDBRecords@iAPExtendedLingoCommandId@@SA?AViAPCommandId@@XZ 0014320c f   iAP_lib:iAPExtendedLingoCommandId.obj
 0001:00132224       ?AckAccessoryAuthenticationSignature@iAPGeneralLingoCommandId@@SA?AViAPCommandId@@XZ 00143224 f   iAP_lib:iAPGeneralLingoCommandId.obj
 0001:00132224       ?ReturnNumberCategorizedDBRecords@iAPExtendedLingoCommandId@@SA?AViAPCommandId@@XZ 00143224 f   iAP_lib:iAPExtendedLingoCommandId.obj
 0001:0013223c       ?RetrieveCategorizedDatabaseRecords@iAPExtendedLingoCommandId@@SA?AViAPCommandId@@XZ 0014323c f   iAP_lib:iAPExtendedLingoCommandId.obj
 0001:0013223c       ?VoiceOverParameterChanged@iAPSimpleRemoteLingoCommandId@@SA?AViAPCommandId@@XZ 0014323c f   iAP_lib:iAPSimpleRemoteLingoCommandId.obj
 0001:00132254       ?ReturnCategorizedDatabaseRecord@iAPExtendedLingoCommandId@@SA?AViAPCommandId@@XZ 00143254 f   iAP_lib:iAPExtendedLingoCommandId.obj
 0001:0013226c       ?GetPlayStatus@iAPExtendedLingoCommandId@@SA?AViAPCommandId@@XZ 0014326c f   iAP_lib:iAPExtendedLingoCommandId.obj
 0001:00132284       ?ReturnPlayStatus@iAPExtendedLingoCommandId@@SA?AViAPCommandId@@XZ 00143284 f   iAP_lib:iAPExtendedLingoCommandId.obj
 0001:0013229c       ?GetCurrentPlayingTrackIndex@iAPExtendedLingoCommandId@@SA?AViAPCommandId@@XZ 0014329c f   iAP_lib:iAPExtendedLingoCommandId.obj
 0001:001322b4       ?ReturnCurrentPlayingTrackIndex@iAPExtendedLingoCommandId@@SA?AViAPCommandId@@XZ 001432b4 f   iAP_lib:iAPExtendedLingoCommandId.obj
 0001:001322cc       ?GetIndexedPlayingTrackTitle@iAPExtendedLingoCommandId@@SA?AViAPCommandId@@XZ 001432cc f   iAP_lib:iAPExtendedLingoCommandId.obj
 0001:001322e4       ?RetIndexedPlayingTrackTitle@iAPExtendedLingoCommandId@@SA?AViAPCommandId@@XZ 001432e4 f   iAP_lib:iAPExtendedLingoCommandId.obj
 0001:001322fc       ?GetIndexedPlayingTrackArtistName@iAPExtendedLingoCommandId@@SA?AViAPCommandId@@XZ 001432fc f   iAP_lib:iAPExtendedLingoCommandId.obj
 0001:00132314       ?RetIndexedPlayingTrackArtistName@iAPExtendedLingoCommandId@@SA?AViAPCommandId@@XZ 00143314 f   iAP_lib:iAPExtendedLingoCommandId.obj
 0001:0013232c       ?RetIndexedPlayingTrackAlbumName@iAPExtendedLingoCommandId@@SA?AViAPCommandId@@XZ 0014332c f   iAP_lib:iAPExtendedLingoCommandId.obj
 0001:0013232c       ?RetiPodOptions@iAPGeneralLingoCommandId@@SA?AViAPCommandId@@XZ 0014332c f   iAP_lib:iAPGeneralLingoCommandId.obj
 0001:00132344       ?SetPlayStatusChangeNotification@iAPExtendedLingoCommandId@@SA?AViAPCommandId@@XZ 00143344 f   iAP_lib:iAPExtendedLingoCommandId.obj
 0001:0013235c       ?PlayStatusChangeNotification@iAPExtendedLingoCommandId@@SA?AViAPCommandId@@XZ 0014335c f   iAP_lib:iAPExtendedLingoCommandId.obj
 0001:0013235c       ?GetAccessoryInfo@iAPGeneralLingoCommandId@@SA?AViAPCommandId@@XZ 0014335c f   iAP_lib:iAPGeneralLingoCommandId.obj
 0001:00132374       ?PlayControl@iAPExtendedLingoCommandId@@SA?AViAPCommandId@@XZ 00143374 f   iAP_lib:iAPExtendedLingoCommandId.obj
 0001:0013238c       ?GetShuffle@iAPExtendedLingoCommandId@@SA?AViAPCommandId@@XZ 0014338c f   iAP_lib:iAPExtendedLingoCommandId.obj
 0001:001323a4       ?ReturnShuffle@iAPExtendedLingoCommandId@@SA?AViAPCommandId@@XZ 001433a4 f   iAP_lib:iAPExtendedLingoCommandId.obj
 0001:001323bc       ?SetShuffle@iAPExtendedLingoCommandId@@SA?AViAPCommandId@@XZ 001433bc f   iAP_lib:iAPExtendedLingoCommandId.obj
 0001:001323d4       ?GetRepeat@iAPExtendedLingoCommandId@@SA?AViAPCommandId@@XZ 001433d4 f   iAP_lib:iAPExtendedLingoCommandId.obj
 0001:001323ec       ?ReturnRepeat@iAPExtendedLingoCommandId@@SA?AViAPCommandId@@XZ 001433ec f   iAP_lib:iAPExtendedLingoCommandId.obj
 0001:00132404       ?SetRepeat@iAPExtendedLingoCommandId@@SA?AViAPCommandId@@XZ 00143404 f   iAP_lib:iAPExtendedLingoCommandId.obj
 0001:0013241c       ?GetNumPlayingTracks@iAPExtendedLingoCommandId@@SA?AViAPCommandId@@XZ 0014341c f   iAP_lib:iAPExtendedLingoCommandId.obj
 0001:00132434       ?ReturnNumPlayingTracks@iAPExtendedLingoCommandId@@SA?AViAPCommandId@@XZ 00143434 f   iAP_lib:iAPExtendedLingoCommandId.obj
 0001:0013244c       ?SetUIMode@iAPGeneralLingoCommandId@@SA?AViAPCommandId@@XZ 0014344c f   iAP_lib:iAPGeneralLingoCommandId.obj
 0001:0013244c       ?SetCurrentPlayingTrack@iAPExtendedLingoCommandId@@SA?AViAPCommandId@@XZ 0014344c f   iAP_lib:iAPExtendedLingoCommandId.obj
 0001:00132464       ?EndIDPS@iAPGeneralLingoCommandId@@SA?AViAPCommandId@@XZ 00143464 f   iAP_lib:iAPGeneralLingoCommandId.obj
 0001:00132464       ?ResetDBSelectionHierarchy@iAPExtendedLingoCommandId@@SA?AViAPCommandId@@XZ 00143464 f   iAP_lib:iAPExtendedLingoCommandId.obj
 0001:0013247c       ?EnterExtendedUIMode@iAPGeneralLingoCommandId@@SA?AViAPCommandId@@XZ 0014347c f   iAP_lib:iAPGeneralLingoCommandId.obj
 0001:00132494       ?ExitExtendedUIMode@iAPGeneralLingoCommandId@@SA?AViAPCommandId@@XZ 00143494 f   iAP_lib:iAPGeneralLingoCommandId.obj
 0001:001324ac       ?GetTrackArtworkData@iAPExtendedLingoCommandId@@SA?AViAPCommandId@@XZ 001434ac f   iAP_lib:iAPExtendedLingoCommandId.obj
 0001:001324ac       ?ReturnLingoProtocalVersion@iAPGeneralLingoCommandId@@SA?AViAPCommandId@@XZ 001434ac f   iAP_lib:iAPGeneralLingoCommandId.obj
 0001:001324ac       ?iPodHIDReport@iAPSimpleRemoteLingoCommandId@@SA?AViAPCommandId@@XZ 001434ac f   iAP_lib:iAPSimpleRemoteLingoCommandId.obj
 0001:001324c4       ?RetTrackArtworkData@iAPExtendedLingoCommandId@@SA?AViAPCommandId@@XZ 001434c4 f   iAP_lib:iAPExtendedLingoCommandId.obj
 0001:001324c4       ?RequestTransportMaxPayloadSize@iAPGeneralLingoCommandId@@SA?AViAPCommandId@@XZ 001434c4 f   iAP_lib:iAPGeneralLingoCommandId.obj
 0001:001324c4       ?AccessoryHIDReport@iAPSimpleRemoteLingoCommandId@@SA?AViAPCommandId@@XZ 001434c4 f   iAP_lib:iAPSimpleRemoteLingoCommandId.obj
 0001:001324dc       ?IdentifyLingos@iAPGeneralLingoCommandId@@SA?AViAPCommandId@@XZ 001434dc f   iAP_lib:iAPGeneralLingoCommandId.obj
 0001:001324f4       ?GetAccessoryAuthenticationInfo@iAPGeneralLingoCommandId@@SA?AViAPCommandId@@XZ 001434f4 f   iAP_lib:iAPGeneralLingoCommandId.obj
 0001:0013250c       ?RetVoiceOverParameter@iAPSimpleRemoteLingoCommandId@@SA?AViAPCommandId@@XZ 0014350c f   iAP_lib:iAPSimpleRemoteLingoCommandId.obj
 0001:0013250c       ?RetAccessoryAuthenticationInfo@iAPGeneralLingoCommandId@@SA?AViAPCommandId@@XZ 0014350c f   iAP_lib:iAPGeneralLingoCommandId.obj
 0001:00132524       ?GetAccessoryAuthenticationSignature@iAPGeneralLingoCommandId@@SA?AViAPCommandId@@XZ 00143524 f   iAP_lib:iAPGeneralLingoCommandId.obj
 0001:00132524       ?SelectDBRecord@iAPExtendedLingoCommandId@@SA?AViAPCommandId@@XZ 00143524 f   iAP_lib:iAPExtendedLingoCommandId.obj
 0001:0013253c       ?GetIndexedPlayingTrackAlbumName@iAPExtendedLingoCommandId@@SA?AViAPCommandId@@XZ 0014353c f   iAP_lib:iAPExtendedLingoCommandId.obj
 0001:0013253c       ?GetiPodOptions@iAPGeneralLingoCommandId@@SA?AViAPCommandId@@XZ 0014353c f   iAP_lib:iAPGeneralLingoCommandId.obj
 0001:00132554       ?RetAccessoryInfo@iAPGeneralLingoCommandId@@SA?AViAPCommandId@@XZ 00143554 f   iAP_lib:iAPGeneralLingoCommandId.obj
 0001:0013256c       ?RetiPodPreferences@iAPGeneralLingoCommandId@@SA?AViAPCommandId@@XZ 0014356c f   iAP_lib:iAPGeneralLingoCommandId.obj
 0001:00132584       ?SetiPodPreferences@iAPGeneralLingoCommandId@@SA?AViAPCommandId@@XZ 00143584 f   iAP_lib:iAPGeneralLingoCommandId.obj
 0001:0013259c       ?StartIDPS@iAPGeneralLingoCommandId@@SA?AViAPCommandId@@XZ 0014359c f   iAP_lib:iAPGeneralLingoCommandId.obj
 0001:001325b4       ?SetFIDTokenValues@iAPGeneralLingoCommandId@@SA?AViAPCommandId@@XZ 001435b4 f   iAP_lib:iAPGeneralLingoCommandId.obj
 0001:001325cc       ?AckFIDTokenValues@iAPGeneralLingoCommandId@@SA?AViAPCommandId@@XZ 001435cc f   iAP_lib:iAPGeneralLingoCommandId.obj
 0001:001325e4       ?OpenDataSessionForProtocol@iAPGeneralLingoCommandId@@SA?AViAPCommandId@@XZ 001435e4 f   iAP_lib:iAPGeneralLingoCommandId.obj
 0001:001325fc       ?CloseDataSession@iAPGeneralLingoCommandId@@SA?AViAPCommandId@@XZ 001435fc f   iAP_lib:iAPGeneralLingoCommandId.obj
 0001:00132614       ?AccessoryAck@iAPGeneralLingoCommandId@@SA?AViAPCommandId@@XZ 00143614 f   iAP_lib:iAPGeneralLingoCommandId.obj
 0001:0013262c       ?AccessoryDataTransfer@iAPGeneralLingoCommandId@@SA?AViAPCommandId@@XZ 0014362c f   iAP_lib:iAPGeneralLingoCommandId.obj
 0001:00132644       ?iPodDataTransfer@iAPGeneralLingoCommandId@@SA?AViAPCommandId@@XZ 00143644 f   iAP_lib:iAPGeneralLingoCommandId.obj
 0001:0013265c       ?iPodNotification@iAPGeneralLingoCommandId@@SA?AViAPCommandId@@XZ 0014365c f   iAP_lib:iAPGeneralLingoCommandId.obj
 0001:00132674       ?SetEventNotification@iAPGeneralLingoCommandId@@SA?AViAPCommandId@@XZ 00143674 f   iAP_lib:iAPGeneralLingoCommandId.obj
 0001:0013268c       ?GetiPodOptionsForLingo@iAPGeneralLingoCommandId@@SA?AViAPCommandId@@XZ 0014368c f   iAP_lib:iAPGeneralLingoCommandId.obj
 0001:001326a4       ?RetiPodOptionsForLingo@iAPGeneralLingoCommandId@@SA?AViAPCommandId@@XZ 001436a4 f   iAP_lib:iAPGeneralLingoCommandId.obj
 0001:001326bc       ?GetSupportedEventNotification@iAPGeneralLingoCommandId@@SA?AViAPCommandId@@XZ 001436bc f   iAP_lib:iAPGeneralLingoCommandId.obj
 0001:001326d4       ?RetSupportedEventNotification@iAPGeneralLingoCommandId@@SA?AViAPCommandId@@XZ 001436d4 f   iAP_lib:iAPGeneralLingoCommandId.obj
 0001:001326ec       ?RequestApplicationLaunch@iAPGeneralLingoCommandId@@SA?AViAPCommandId@@XZ 001436ec f   iAP_lib:iAPGeneralLingoCommandId.obj
 0001:00132704       ?GetNowPlayingApplicationBundleName@iAPGeneralLingoCommandId@@SA?AViAPCommandId@@XZ 00143704 f   iAP_lib:iAPGeneralLingoCommandId.obj
 0001:0013271c       ?RequestLingoProtocalVersion@iAPGeneralLingoCommandId@@SA?AViAPCommandId@@XZ 0014371c f   iAP_lib:iAPGeneralLingoCommandId.obj
 0001:0013271c       ?RetTrackArtworkFormats@iAPExtendedLingoCommandId@@SA?AViAPCommandId@@XZ 0014371c f   iAP_lib:iAPExtendedLingoCommandId.obj
 0001:0013271c       ?RegisterDescriptor@iAPSimpleRemoteLingoCommandId@@SA?AViAPCommandId@@XZ 0014371c f   iAP_lib:iAPSimpleRemoteLingoCommandId.obj
 0001:00132734       ?UnregisterDescriptor@iAPSimpleRemoteLingoCommandId@@SA?AViAPCommandId@@XZ 00143734 f   iAP_lib:iAPSimpleRemoteLingoCommandId.obj
 0001:00132734       ?ReturnTransportMaxPayloadSize@iAPGeneralLingoCommandId@@SA?AViAPCommandId@@XZ 00143734 f   iAP_lib:iAPGeneralLingoCommandId.obj
 0001:0013274c       ?ResetDBSelection@iAPExtendedLingoCommandId@@SA?AViAPCommandId@@XZ 0014374c f   iAP_lib:iAPExtendedLingoCommandId.obj
 0001:0013274c       ?SetVoiceOverParameter@iAPSimpleRemoteLingoCommandId@@SA?AViAPCommandId@@XZ 0014374c f   iAP_lib:iAPSimpleRemoteLingoCommandId.obj
 0001:00132764       ?AccessoryAck@iAPSimpleRemoteLingoCommandId@@SA?AViAPCommandId@@XZ 00143764 f   iAP_lib:iAPSimpleRemoteLingoCommandId.obj
 0001:0013277c       ?AccessoryAck@iAPDigitalAudioLingoCommandId@@SA?AViAPCommandId@@XZ 0014377c f   iAP_lib:iAPDigitalAudioLingoCommandId.obj
 0001:0013277c       ?iPodAck@iAPDisplayRemoteLingoCommandId@@SA?AViAPCommandId@@XZ 0014377c f   iAP_lib:iAPDisplayRemoteLingoCommandId.obj
 0001:00132794       ?SetRemoteEventNotification@iAPDisplayRemoteLingoCommandId@@SA?AViAPCommandId@@XZ 00143794 f   iAP_lib:iAPDisplayRemoteLingoCommandId.obj
 0001:001327ac       ?RemoteEventNotification@iAPDisplayRemoteLingoCommandId@@SA?AViAPCommandId@@XZ 001437ac f   iAP_lib:iAPDisplayRemoteLingoCommandId.obj
 0001:001327c4       ?RetRemoteEventStatus@iAPDisplayRemoteLingoCommandId@@SA?AViAPCommandId@@XZ 001437c4 f   iAP_lib:iAPDisplayRemoteLingoCommandId.obj
 0001:001327dc       ?GetTrackArtworkFormats@iAPExtendedLingoCommandId@@SA?AViAPCommandId@@XZ 001437dc f   iAP_lib:iAPExtendedLingoCommandId.obj
 0001:001327dc       ?SetiPodStateInfo@iAPDisplayRemoteLingoCommandId@@SA?AViAPCommandId@@XZ 001437dc f   iAP_lib:iAPDisplayRemoteLingoCommandId.obj
 0001:001327fc       ??1SerialPortAdaptor@@UAA@XZ 001437fc f   iAP_lib:SerialPortAdaptor.obj
 0001:0013284c       ??_ESerialPortAdaptor@@UAAPAXI@Z 0014384c f i iAP_lib:SerialPortAdaptor.obj
 0001:0013284c       ??_GSerialPortAdaptor@@UAAPAXI@Z 0014384c f i iAP_lib:SerialPortAdaptor.obj
 0001:00132870       ??0SerialPortAdaptor@@QAA@V?$sp@ViDevice@@@@@Z 00143870 f   iAP_lib:SerialPortAdaptor.obj
 0001:001328b8       ?ClosePort@SerialPortAdaptor@@UAAXXZ 001438b8 f   iAP_lib:SerialPortAdaptor.obj
 0001:001328d0       ?writeBytes@SerialPortAdaptor@@UAAHABV?$vector@EV?$allocator@E@std@@@std@@I@Z 001438d0 f   iAP_lib:SerialPortAdaptor.obj
 0001:00132920       ?readByte@SerialPortAdaptor@@UAAHPAE@Z 00143920 f   iAP_lib:SerialPortAdaptor.obj
 0001:001329c4       ??0Queue@@QAA@XZ           001439c4 f   iAP_lib:queue.obj
 0001:001329ec       ??1Queue@@QAA@XZ           001439ec f   iAP_lib:queue.obj
 0001:00132a0c       ?QueueInit@Queue@@QAAXI@Z  00143a0c f   iAP_lib:queue.obj
 0001:00132a3c       ?GetBuf@Queue@@QAAPAXXZ    00143a3c f   iAP_lib:queue.obj
 0001:00132aa4       ?PutBuf@Queue@@QAAXPAX@Z   00143aa4 f   iAP_lib:queue.obj
 0001:00132b14       ??0InterfaceI2C@@QAA@XZ    00143b14 f   iAP_lib:InterfaceI2C.obj
 0001:00132b2c       ??_GRefBase@@MAAPAXI@Z     00143b2c f i iAP_lib:iCP.obj
 0001:00132b2c       ??_EInterfaceI2C@@UAAPAXI@Z 00143b2c f i iAP_lib:InterfaceI2C.obj
 0001:00132b2c       ??_ERefBase@@MAAPAXI@Z     00143b2c f i iAP_lib:iCP.obj
 0001:00132b2c       ??_GPlugMonitor@@UAAPAXI@Z 00143b2c f i iAP_lib:PlugMonitor.obj
 0001:00132b2c       ??_GInterfaceI2C@@UAAPAXI@Z 00143b2c f i iAP_lib:InterfaceI2C.obj
 0001:00132b2c       ??_EPlugMonitor@@UAAPAXI@Z 00143b2c f i iAP_lib:PlugMonitor.obj
 0001:00132b2c       ??_GTransceiverMgr@@UAAPAXI@Z 00143b2c f i iAP_lib:TransceiverMgr.obj
 0001:00132b2c       ??_ETransceiverMgr@@UAAPAXI@Z 00143b2c f i iAP_lib:TransceiverMgr.obj
 0001:00132b50       ?setExtendedLingoProtocalVersionSupportedbyDevice@iAPSystem@@SAXEE@Z 00143b50 f   iAP_lib:iAPSystem.obj
 0001:00132b6c       ?setExtendedLingoVideoBrowsingSupported@iAPSystem@@SAXH@Z 00143b6c f   iAP_lib:iAPSystem.obj
 0001:00132b7c       ?setExtendedLingoPlayPauseInPlayControlSupported@iAPSystem@@SAXH@Z 00143b7c f   iAP_lib:iAPSystem.obj
 0001:00132b94       ?isCmdSupported@iAPSystem@@SAHV?$sp@ViAPTxCmd@@@@@Z 00143b94 f   iAP_lib:iAPSystem.obj
 0001:00133064       ??0iAPTxGeneralRetAccessoryAuthenticationInfo@@QAA@AAV?$vector@EV?$allocator@E@std@@@std@@EG@Z 00144064 f   iAP_lib:iAPTxGeneralRetAccessoryAuthenticationInfo.obj
 0001:0013338c       ??_EiAPTxCmdExtendedSetRepeat@@WCI@AAPAXI@Z 0014438c f i iAP_lib:iAPTxCmdExtendedSetRepeat.obj
 0001:0013338c       ??_EiAPTxGeneralRetAccessoryAuthenticationInfo@@WCI@AAPAXI@Z 0014438c f i iAP_lib:iAPTxGeneralRetAccessoryAuthenticationInfo.obj
 0001:0013338c       ??_EiAPTxGetiPodOptions@@WCI@AAPAXI@Z 0014438c f i iAP_lib:AuthenticationMgr.obj
 0001:0013338c       ??_EiAPTxCmdSimpleIPodHIDReport@@WCI@AAPAXI@Z 0014438c f i iAP_lib:iAPTxCmdSimpleRemote.obj
 0001:0013338c       ??_EiAPTxSetiPodPreferences@@WCI@AAPAXI@Z 0014438c f i iAP_lib:BrowsingMgr.obj
 0001:0013338c       ??_EiAPTxCmdGeneralAccessoryAck@@WCI@AAPAXI@Z 0014438c f i iAP_lib:OSCommunication.obj
 0001:0013338c       ??_EiAPTxCmdExtendedSetCurrentPlayingTrack@@WCI@AAPAXI@Z 0014438c f i iAP_lib:Player.obj
 0001:0013338c       ??_EiAPTxCmdGeneralEnterExtendedInterfaceMode@@WCI@AAPAXI@Z 0014438c f i iAP_lib:BrowsingMgr.obj
 0001:0013338c       ??_EiAPTxCmdExtendedSetShuffle@@WCI@AAPAXI@Z 0014438c f i iAP_lib:iAPTxCmdExtendedSetShuffle.obj
 0001:0013338c       ??_EiAPTxGetNowPlayingApplicationBundleName@@WCI@AAPAXI@Z 0014438c f i iAP_lib:BrowsingMgr.obj
 0001:0013338c       ??_EiAPTxCmdExtendedGetNumPlayingTracks@@WCI@AAPAXI@Z 0014438c f i iAP_lib:Player.obj
 0001:0013338c       ??_EiAPTxGeneralEndIDPS@@WCI@AAPAXI@Z 0014438c f i iAP_lib:AuthenticationMgr.obj
 0001:0013338c       ??_EiAPTxCmdExtendedGetIndexedPlayingTrackTitle@@WCI@AAPAXI@Z 0014438c f i iAP_lib:Player.obj
 0001:0013338c       ??_EiAPTxGeneralRetAccessoryInfo@@WCI@AAPAXI@Z 0014438c f i iAP_lib:iAPTxGeneralRetAccessoryInfo.obj
 0001:0013338c       ??_EiAPTxCmdExtendedGetRepeat@@WCI@AAPAXI@Z 0014438c f i iAP_lib:iAPTxCmdExtendedGetRepeat.obj
 0001:0013338c       ??_EiAPTxGeneralAccessoryDataTransfer@@WCI@AAPAXI@Z 0014438c f i iAP_lib:OSCommunication.obj
 0001:0013338c       ??_EiAPTxCmdDigitalAudioRetAccessorySampleRateCaps@@WCI@AAPAXI@Z 0014438c f i iAP_lib:Player.obj
 0001:0013338c       ??_EiAPTxCmdExtendedGetIndexedPlayingTrackAlbumName@@WCI@AAPAXI@Z 0014438c f i iAP_lib:Player.obj
 0001:0013338c       ??_EiAPTxCmdDigitalAudioAccessoryAck@@WCI@AAPAXI@Z 0014438c f i iAP_lib:Player.obj
 0001:0013338c       ??_EiAPTxCmdDisplaySetRemoteEventNotification@@WCI@AAPAXI@Z 0014438c f i iAP_lib:Player.obj
 0001:0013338c       ??_EiAPTxCmdExtendedGetShuffle@@WCI@AAPAXI@Z 0014438c f i iAP_lib:iAPTxCmdExtendedGetShuffle.obj
 0001:0013338c       ??_EiAPTxCmdSimpleAccessoryAck@@WCI@AAPAXI@Z 0014438c f i iAP_lib:iAPTxCmdSimpleRemote.obj
 0001:0013338c       ??_EiAPTxCmdSimpleSetVoiceOverParameter@@WCI@AAPAXI@Z 0014438c f i iAP_lib:iAPTxCmdSimpleRemote.obj
 0001:0013338c       ??_EiAPTxCmdSimpleRegisterDescriptor@@WCI@AAPAXI@Z 0014438c f i iAP_lib:iAPTxCmdSimpleRemote.obj
 0001:0013338c       ??_EiAPTxCmdSimpleUnregisterDescriptor@@WCI@AAPAXI@Z 0014438c f i iAP_lib:iAPTxCmdSimpleRemote.obj
 0001:0013338c       ??_EiAPTxGeneralRetAccessoryAuthenticationSignature@@WCI@AAPAXI@Z 0014438c f i iAP_lib:iAPTxGeneralRetAccessoryAuthenticationSignature.obj
 0001:0013338c       ??_EiAPTxSetFIDTokenValues@@WCI@AAPAXI@Z 0014438c f i iAP_lib:iAPTxSetFIDTokenValues.obj
 0001:0013338c       ??_EiAPTxRequestApplicationLaunch@@WCI@AAPAXI@Z 0014438c f i iAP_lib:BrowsingMgr.obj
 0001:0013338c       ??_EiAPTxCmdGeneralGetiPodOptionsForLingo@@WCI@AAPAXI@Z 0014438c f i iAP_lib:AuthenticationMgr.obj
 0001:0013338c       ??_EiAPTxGeneralSetUIMode@@WCI@AAPAXI@Z 0014438c f i iAP_lib:BrowsingMgr.obj
 0001:0013338c       ??_EiAPTxCmdGeneralRequestLingoProtocalVersion@@WCI@AAPAXI@Z 0014438c f i iAP_lib:AuthenticationMgr.obj
 0001:0013338c       ??_EiAPTxCmdStartIDPS@@WCI@AAPAXI@Z 0014438c f i iAP_lib:AuthenticationMgr.obj
 0001:0013338c       ??_EiAPTxGeneralSetEventNotification@@WCI@AAPAXI@Z 0014438c f i iAP_lib:BrowsingMgr.obj
 0001:0013338c       ??_EiAPTxCmdDisplaySetiPodStateInfoTime@@WCI@AAPAXI@Z 0014438c f i iAP_lib:Player.obj
 0001:0013338c       ??_EiAPTxIdentifyLingos@@WCI@AAPAXI@Z 0014438c f i iAP_lib:iAPTxIdentifyLingos.obj
 0001:00133394       ??_EiAPTxCmdGeneralGetiPodOptionsForLingo@@UAAPAXI@Z 00144394 f i iAP_lib:AuthenticationMgr.obj
 0001:00133394       ??_GiAPTxCmdSimpleRegisterDescriptor@@UAAPAXI@Z 00144394 f i iAP_lib:iAPTxCmdSimpleRemote.obj
 0001:00133394       ??_EiAPTxCmdExtendedGetIndexedPlayingTrackTitle@@UAAPAXI@Z 00144394 f i iAP_lib:Player.obj
 0001:00133394       ??_EiAPTxCmdDisplaySetRemoteEventNotification@@UAAPAXI@Z 00144394 f i iAP_lib:Player.obj
 0001:00133394       ??_GiAPTxCmdGeneralGetiPodOptionsForLingo@@UAAPAXI@Z 00144394 f i iAP_lib:AuthenticationMgr.obj
 0001:00133394       ??_GiAPTxCmdExtendedGetShuffle@@UAAPAXI@Z 00144394 f i iAP_lib:iAPTxCmdExtendedGetShuffle.obj
 0001:00133394       ??_GiAPTxGetiPodOptions@@UAAPAXI@Z 00144394 f i iAP_lib:AuthenticationMgr.obj
 0001:00133394       ??_GiAPTxGeneralRetAccessoryAuthenticationInfo@@UAAPAXI@Z 00144394 f i iAP_lib:iAPTxGeneralRetAccessoryAuthenticationInfo.obj
 0001:00133394       ??_GiAPTxCmdGeneralRequestLingoProtocalVersion@@UAAPAXI@Z 00144394 f i iAP_lib:AuthenticationMgr.obj
 0001:00133394       ??_GiAPTxSetFIDTokenValues@@UAAPAXI@Z 00144394 f i iAP_lib:iAPTxSetFIDTokenValues.obj
 0001:00133394       ??_EiAPTxCmdDigitalAudioRetAccessorySampleRateCaps@@UAAPAXI@Z 00144394 f i iAP_lib:Player.obj
 0001:00133394       ??_GiAPTxCmdExtendedGetIndexedPlayingTrackTitle@@UAAPAXI@Z 00144394 f i iAP_lib:Player.obj
 0001:00133394       ??_EiAPTxGetNowPlayingApplicationBundleName@@UAAPAXI@Z 00144394 f i iAP_lib:BrowsingMgr.obj
 0001:00133394       ??_EiAPTxGeneralRetAccessoryInfo@@UAAPAXI@Z 00144394 f i iAP_lib:iAPTxGeneralRetAccessoryInfo.obj
 0001:00133394       ??_GiAPTxCmdGeneralEnterExtendedInterfaceMode@@UAAPAXI@Z 00144394 f i iAP_lib:BrowsingMgr.obj
 0001:00133394       ??_EiAPTxCmdExtendedSetRepeat@@UAAPAXI@Z 00144394 f i iAP_lib:iAPTxCmdExtendedSetRepeat.obj
 0001:00133394       ??_GiAPTxSetiPodPreferences@@UAAPAXI@Z 00144394 f i iAP_lib:BrowsingMgr.obj
 0001:00133394       ??_EiAPTxGeneralSetEventNotification@@UAAPAXI@Z 00144394 f i iAP_lib:BrowsingMgr.obj
 0001:00133394       ??_EiAPTxCmdSimpleSetVoiceOverParameter@@UAAPAXI@Z 00144394 f i iAP_lib:iAPTxCmdSimpleRemote.obj
 0001:00133394       ??_GiAPTxCmdDisplaySetRemoteEventNotification@@UAAPAXI@Z 00144394 f i iAP_lib:Player.obj
 0001:00133394       ??_EiAPTxCmdExtendedGetIndexedPlayingTrackAlbumName@@UAAPAXI@Z 00144394 f i iAP_lib:Player.obj
 0001:00133394       ??_GiAPTxGeneralEndIDPS@@UAAPAXI@Z 00144394 f i iAP_lib:AuthenticationMgr.obj
 0001:00133394       ??_EiAPTxSetiPodPreferences@@UAAPAXI@Z 00144394 f i iAP_lib:BrowsingMgr.obj
 0001:00133394       ??_EiAPTxCmdSimpleIPodHIDReport@@UAAPAXI@Z 00144394 f i iAP_lib:iAPTxCmdSimpleRemote.obj
 0001:00133394       ??_GiAPTxCmdSimpleAccessoryAck@@UAAPAXI@Z 00144394 f i iAP_lib:iAPTxCmdSimpleRemote.obj
 0001:00133394       ??_GiAPTxIdentifyLingos@@UAAPAXI@Z 00144394 f i iAP_lib:iAPTxIdentifyLingos.obj
 0001:00133394       ??_GiAPTxGetNowPlayingApplicationBundleName@@UAAPAXI@Z 00144394 f i iAP_lib:BrowsingMgr.obj
 0001:00133394       ??_GiAPTxCmdExtendedSetShuffle@@UAAPAXI@Z 00144394 f i iAP_lib:iAPTxCmdExtendedSetShuffle.obj
 0001:00133394       ??_GiAPTxCmdSimpleUnregisterDescriptor@@UAAPAXI@Z 00144394 f i iAP_lib:iAPTxCmdSimpleRemote.obj
 0001:00133394       ??_EiAPTxIdentifyLingos@@UAAPAXI@Z 00144394 f i iAP_lib:iAPTxIdentifyLingos.obj
 0001:00133394       ??_EiAPTxCmdExtendedGetShuffle@@UAAPAXI@Z 00144394 f i iAP_lib:iAPTxCmdExtendedGetShuffle.obj
 0001:00133394       ??_EiAPTxCmdExtendedSetShuffle@@UAAPAXI@Z 00144394 f i iAP_lib:iAPTxCmdExtendedSetShuffle.obj
 0001:00133394       ??_GiAPTxGeneralRetAccessoryInfo@@UAAPAXI@Z 00144394 f i iAP_lib:iAPTxGeneralRetAccessoryInfo.obj
 0001:00133394       ??_GiAPTxCmdDisplaySetiPodStateInfoTime@@UAAPAXI@Z 00144394 f i iAP_lib:Player.obj
 0001:00133394       ??_GiAPTxCmdDigitalAudioAccessoryAck@@UAAPAXI@Z 00144394 f i iAP_lib:Player.obj
 0001:00133394       ??_EiAPTxCmdDigitalAudioAccessoryAck@@UAAPAXI@Z 00144394 f i iAP_lib:Player.obj
 0001:00133394       ??_GiAPTxCmdDigitalAudioRetAccessorySampleRateCaps@@UAAPAXI@Z 00144394 f i iAP_lib:Player.obj
 0001:00133394       ??_EiAPTxGeneralRetAccessoryAuthenticationInfo@@UAAPAXI@Z 00144394 f i iAP_lib:iAPTxGeneralRetAccessoryAuthenticationInfo.obj
 0001:00133394       ??_EiAPTxRequestApplicationLaunch@@UAAPAXI@Z 00144394 f i iAP_lib:BrowsingMgr.obj
 0001:00133394       ??_GiAPTxCmdExtendedGetIndexedPlayingTrackAlbumName@@UAAPAXI@Z 00144394 f i iAP_lib:Player.obj
 0001:00133394       ??_GiAPTxGeneralRetAccessoryAuthenticationSignature@@UAAPAXI@Z 00144394 f i iAP_lib:iAPTxGeneralRetAccessoryAuthenticationSignature.obj
 0001:00133394       ??_GiAPTxCmdSimpleSetVoiceOverParameter@@UAAPAXI@Z 00144394 f i iAP_lib:iAPTxCmdSimpleRemote.obj
 0001:00133394       ??_EiAPTxCmdSimpleUnregisterDescriptor@@UAAPAXI@Z 00144394 f i iAP_lib:iAPTxCmdSimpleRemote.obj
 0001:00133394       ??_EiAPTxCmdStartIDPS@@UAAPAXI@Z 00144394 f i iAP_lib:AuthenticationMgr.obj
 0001:00133394       ??_GiAPTxRequestApplicationLaunch@@UAAPAXI@Z 00144394 f i iAP_lib:BrowsingMgr.obj
 0001:00133394       ??_EiAPTxGeneralEndIDPS@@UAAPAXI@Z 00144394 f i iAP_lib:AuthenticationMgr.obj
 0001:00133394       ??_GiAPTxCmdExtendedSetRepeat@@UAAPAXI@Z 00144394 f i iAP_lib:iAPTxCmdExtendedSetRepeat.obj
 0001:00133394       ??_EiAPTxCmdSimpleRegisterDescriptor@@UAAPAXI@Z 00144394 f i iAP_lib:iAPTxCmdSimpleRemote.obj
 0001:00133394       ??_GiAPTxCmdGeneralAccessoryAck@@UAAPAXI@Z 00144394 f i iAP_lib:OSCommunication.obj
 0001:00133394       ??_EiAPTxCmdExtendedGetNumPlayingTracks@@UAAPAXI@Z 00144394 f i iAP_lib:Player.obj
 0001:00133394       ??_EiAPTxCmdExtendedSetCurrentPlayingTrack@@UAAPAXI@Z 00144394 f i iAP_lib:Player.obj
 0001:00133394       ??_GiAPTxCmdExtendedGetNumPlayingTracks@@UAAPAXI@Z 00144394 f i iAP_lib:Player.obj
 0001:00133394       ??_GiAPTxCmdExtendedGetRepeat@@UAAPAXI@Z 00144394 f i iAP_lib:iAPTxCmdExtendedGetRepeat.obj
 0001:00133394       ??_EiAPTxGeneralAccessoryDataTransfer@@UAAPAXI@Z 00144394 f i iAP_lib:OSCommunication.obj
 0001:00133394       ??_EiAPTxCmdExtendedGetRepeat@@UAAPAXI@Z 00144394 f i iAP_lib:iAPTxCmdExtendedGetRepeat.obj
 0001:00133394       ??_EiAPTxCmdGeneralAccessoryAck@@UAAPAXI@Z 00144394 f i iAP_lib:OSCommunication.obj
 0001:00133394       ??_GiAPTxCmdSimpleIPodHIDReport@@UAAPAXI@Z 00144394 f i iAP_lib:iAPTxCmdSimpleRemote.obj
 0001:00133394       ??_GiAPTxCmdExtendedSetCurrentPlayingTrack@@UAAPAXI@Z 00144394 f i iAP_lib:Player.obj
 0001:00133394       ??_EiAPTxGeneralRetAccessoryAuthenticationSignature@@UAAPAXI@Z 00144394 f i iAP_lib:iAPTxGeneralRetAccessoryAuthenticationSignature.obj
 0001:00133394       ??_GiAPTxCmdStartIDPS@@UAAPAXI@Z 00144394 f i iAP_lib:AuthenticationMgr.obj
 0001:00133394       ??_EiAPTxSetFIDTokenValues@@UAAPAXI@Z 00144394 f i iAP_lib:iAPTxSetFIDTokenValues.obj
 0001:00133394       ??_GiAPTxGeneralSetUIMode@@UAAPAXI@Z 00144394 f i iAP_lib:BrowsingMgr.obj
 0001:00133394       ??_GiAPTxGeneralSetEventNotification@@UAAPAXI@Z 00144394 f i iAP_lib:BrowsingMgr.obj
 0001:00133394       ??_EiAPTxCmdSimpleAccessoryAck@@UAAPAXI@Z 00144394 f i iAP_lib:iAPTxCmdSimpleRemote.obj
 0001:00133394       ??_GiAPTxGeneralAccessoryDataTransfer@@UAAPAXI@Z 00144394 f i iAP_lib:OSCommunication.obj
 0001:00133394       ??_EiAPTxCmdDisplaySetiPodStateInfoTime@@UAAPAXI@Z 00144394 f i iAP_lib:Player.obj
 0001:00133394       ??_EiAPTxCmdGeneralEnterExtendedInterfaceMode@@UAAPAXI@Z 00144394 f i iAP_lib:BrowsingMgr.obj
 0001:00133394       ??_EiAPTxCmdGeneralRequestLingoProtocalVersion@@UAAPAXI@Z 00144394 f i iAP_lib:AuthenticationMgr.obj
 0001:00133394       ??_EiAPTxGetiPodOptions@@UAAPAXI@Z 00144394 f i iAP_lib:AuthenticationMgr.obj
 0001:00133394       ??_EiAPTxGeneralSetUIMode@@UAAPAXI@Z 00144394 f i iAP_lib:BrowsingMgr.obj
 0001:001333d0       ?waitForSignatureGenerationFinished_@iAPTxGeneralRetAccessoryAuthenticationSignature@@AAAHXZ 001443d0 f   iAP_lib:iAPTxGeneralRetAccessoryAuthenticationSignature.obj
 0001:00133424       ?generateSignature_@iAPTxGeneralRetAccessoryAuthenticationSignature@@AAAXAAV?$vector@EV?$allocator@E@std@@@std@@0@Z 00144424 f   iAP_lib:iAPTxGeneralRetAccessoryAuthenticationSignature.obj
 0001:001334c0       ??0iAPTxGeneralRetAccessoryAuthenticationSignature@@QAA@AAV?$vector@EV?$allocator@E@std@@@std@@G@Z 001444c0 f   iAP_lib:iAPTxGeneralRetAccessoryAuthenticationSignature.obj
 0001:0013359c       ?prepareIdentifyToken@iAPTxSetFIDTokenValues@@AAAXI@Z 0014459c f   iAP_lib:iAPTxSetFIDTokenValues.obj
 0001:0013365c       ?prepareIdentifyTokenforUART@iAPTxSetFIDTokenValues@@AAAXI@Z 0014465c f   iAP_lib:iAPTxSetFIDTokenValues.obj
 0001:0013371c       ?prepareAccCapsToken@iAPTxSetFIDTokenValues@@AAAXXZ 0014471c f   iAP_lib:iAPTxSetFIDTokenValues.obj
 0001:001337b4       ?prepareAccCapsTokenforUART@iAPTxSetFIDTokenValues@@AAAXXZ 001447b4 f   iAP_lib:iAPTxSetFIDTokenValues.obj
 0001:0013384c       ?prepareAccInfoToken0C@iAPTxSetFIDTokenValues@@AAAXXZ 0014484c f   iAP_lib:iAPTxSetFIDTokenValues.obj
 0001:001338cc       ?prepareIpodPreferenceToken01@iAPTxSetFIDTokenValues@@AAAXXZ 001448cc f   iAP_lib:iAPTxSetFIDTokenValues.obj
 0001:0013393c       ?prepareIpodPreferenceToken02@iAPTxSetFIDTokenValues@@AAAXXZ 0014493c f   iAP_lib:iAPTxSetFIDTokenValues.obj
 0001:001339ac       ?prepareIpodPreferenceToken03@iAPTxSetFIDTokenValues@@AAAXXZ 001449ac f   iAP_lib:iAPTxSetFIDTokenValues.obj
 0001:00133a14       ?prepareAccInfoToken04@iAPTxSetFIDTokenValues@@AAAXAAV?$vector@EV?$allocator@E@std@@@std@@@Z 00144a14 f   iAP_lib:iAPTxSetFIDTokenValues.obj
 0001:00133ac0       ?prepareAccInfoToken05@iAPTxSetFIDTokenValues@@AAAXAAV?$vector@EV?$allocator@E@std@@@std@@@Z 00144ac0 f   iAP_lib:iAPTxSetFIDTokenValues.obj
 0001:00133b74       ?prepareAccInfoToken01@iAPTxSetFIDTokenValues@@AAAXAAV?$basic_string@DU?$char_traits@D@std@@V?$allocator@D@2@@std@@@Z 00144b74 f   iAP_lib:iAPTxSetFIDTokenValues.obj
 0001:00133d0c       ?prepareAccInfoToken06@iAPTxSetFIDTokenValues@@AAAXAAV?$basic_string@DU?$char_traits@D@std@@V?$allocator@D@2@@std@@@Z 00144d0c f   iAP_lib:iAPTxSetFIDTokenValues.obj
 0001:00133ea4       ?prepareAccInfoToken07@iAPTxSetFIDTokenValues@@AAAXAAV?$basic_string@DU?$char_traits@D@std@@V?$allocator@D@2@@std@@@Z 00144ea4 f   iAP_lib:iAPTxSetFIDTokenValues.obj
 0001:00134034       ?prepareAccInfoToken@iAPTxSetFIDTokenValues@@AAAXAAV?$basic_string@DU?$char_traits@D@std@@V?$allocator@D@2@@std@@AAV?$vector@EV?$allocator@E@std@@@3@100@Z 00145034 f   iAP_lib:iAPTxSetFIDTokenValues.obj
 0001:0013408c       ??0iAPTxSetFIDTokenValues@@QAA@AAV?$basic_string@DU?$char_traits@D@std@@V?$allocator@D@2@@std@@AAV?$vector@EV?$allocator@E@std@@@2@1001E@Z 0014508c f   iAP_lib:iAPTxSetFIDTokenValues.obj
 0001:0013424c       ??0iAPTxIdentifyLingos@@QAA@XZ 0014524c f   iAP_lib:iAPTxIdentifyLingos.obj
 0001:001343e0       ?initRetAccessoryInfoCmd@iAPTxGeneralRetAccessoryInfo@@AAAXG@Z 001453e0 f   iAP_lib:iAPTxGeneralRetAccessoryInfo.obj
 0001:00134468       ??0iAPTxGeneralRetAccessoryInfo@@QAA@EG@Z 00145468 f   iAP_lib:iAPTxGeneralRetAccessoryInfo.obj
 0001:00134534       ??0iAPTxGeneralRetAccessoryInfo@@QAA@EGV?$vector@EV?$allocator@E@std@@@std@@@Z 00145534 f   iAP_lib:iAPTxGeneralRetAccessoryInfo.obj
 0001:00134644       ??0iAPTxGeneralRetAccessoryInfo@@QAA@EGV?$basic_string@DU?$char_traits@D@std@@V?$allocator@D@2@@std@@@Z 00145644 f   iAP_lib:iAPTxGeneralRetAccessoryInfo.obj
 0001:00134828       ??0iAPTxCmdExtendedSetShuffle@@QAA@AAVShuffleMode@iAP@@H@Z 00145828 f   iAP_lib:iAPTxCmdExtendedSetShuffle.obj
 0001:00134928       ??0iAPTxCmdExtendedSetRepeat@@QAA@AAVRepeatMode@iAP@@H@Z 00145928 f   iAP_lib:iAPTxCmdExtendedSetRepeat.obj
 0001:00134a28       ??0iAPTxCmdExtendedGetShuffle@@QAA@XZ 00145a28 f   iAP_lib:iAPTxCmdExtendedGetShuffle.obj
 0001:00134af4       ??0iAPTxCmdExtendedGetRepeat@@QAA@XZ 00145af4 f   iAP_lib:iAPTxCmdExtendedGetRepeat.obj
 0001:00134bb8       ?GetAccessorySampleRateCaps@iAPDigitalAudioLingoCommandId@@SA?AViAPCommandId@@XZ 00145bb8 f   iAP_lib:iAPDigitalAudioLingoCommandId.obj
 0001:00134bb8       ?Ack@iAPGeneralLingoCommandId@@SA?AViAPCommandId@@XZ 00145bb8 f   iAP_lib:iAPGeneralLingoCommandId.obj
 0001:00134bd0       ?RetAccessorySampleRateCaps@iAPDigitalAudioLingoCommandId@@SA?AViAPCommandId@@XZ 00145bd0 f   iAP_lib:iAPDigitalAudioLingoCommandId.obj
 0001:00134be8       ?TrackNewAudioAttributes@iAPDigitalAudioLingoCommandId@@SA?AViAPCommandId@@XZ 00145be8 f   iAP_lib:iAPDigitalAudioLingoCommandId.obj
 0001:00134c00       ??0iOSCommunication@iAP@@QAA@XZ 00145c00 f   iAP_lib:iOSCommunication.obj
 0001:00134c14       ??1iOSCommunication@iAP@@UAA@XZ 00145c14 f   iAP_lib:iOSCommunication.obj
 0001:00134c24       ??_EiOSCommunication@iAP@@UAAPAXI@Z 00145c24 f i iAP_lib:iOSCommunication.obj
 0001:00134c24       ??_GiOSCommunication@iAP@@UAAPAXI@Z 00145c24 f i iAP_lib:iOSCommunication.obj
 0001:00134c50       ??0iAPTxCmdSimpleRegisterDescriptor@@QAA@V?$vector@EV?$allocator@E@std@@@std@@@Z 00145c50 f   iAP_lib:iAPTxCmdSimpleRemote.obj
 0001:00134dd8       ??0iAPTxCmdSimpleIPodHIDReport@@QAA@EEV?$vector@EV?$allocator@E@std@@@std@@@Z 00145dd8 f   iAP_lib:iAPTxCmdSimpleRemote.obj
 0001:00134f78       ??0iAPTxCmdSimpleUnregisterDescriptor@@QAA@E@Z 00145f78 f   iAP_lib:iAPTxCmdSimpleRemote.obj
 0001:00135050       ??0iAPTxCmdSimpleSetVoiceOverParameter@@QAA@EE@Z 00146050 f   iAP_lib:iAPTxCmdSimpleRemote.obj
 0001:00135134       ??0iAPTxCmdSimpleAccessoryAck@@QAA@E@Z 00146134 f   iAP_lib:iAPTxCmdSimpleRemote.obj
 0001:00135218       ??0iRemoteControl@iAP@@QAA@XZ 00146218 f   iAP_lib:iRemoteControl.obj
 0001:0013522c       ??1iRemoteControl@iAP@@UAA@XZ 0014622c f   iAP_lib:iRemoteControl.obj
 0001:0013523c       ??_GiRemoteControl@iAP@@UAAPAXI@Z 0014623c f i iAP_lib:iRemoteControl.obj
 0001:0013523c       ??_EiRemoteControl@iAP@@UAAPAXI@Z 0014623c f i iAP_lib:iRemoteControl.obj
 0001:00135268       ??0iAPRxGeneralAckFIDTokenValues@@QAA@XZ 00146268 f   iAP_lib:iAPRxGeneralAckFIDTokenValues.obj
 0001:00135324       ??0iAPRxGeneralOpenDataSessionForProtocol@@QAA@AAV?$vector@EV?$allocator@E@std@@@std@@@Z 00146324 f   iAP_lib:iAPRxGeneraliOSCommunication.obj
 0001:001353f0       ??0iAPRxGeneralCloseDataSession@@QAA@AAV?$vector@EV?$allocator@E@std@@@std@@@Z 001463f0 f   iAP_lib:iAPRxGeneraliOSCommunication.obj
 0001:001354bc       ??0iAPRxGeneraliPodDataTransfer@@QAA@AAV?$vector@EV?$allocator@E@std@@@std@@@Z 001464bc f   iAP_lib:iAPRxGeneraliOSCommunication.obj
 0001:00135588       ??0iAPRxGeneraliPodNotification@@QAA@AAV?$vector@EV?$allocator@E@std@@@std@@@Z 00146588 f   iAP_lib:iAPRxGeneraliOSCommunication.obj
 0001:00135654       ??0iAPRxCmdGeneralRetiPodOptionsForLingo@@QAA@V?$vector@EV?$allocator@E@std@@@std@@@Z 00146654 f   iAP_lib:iAPRxCmdGeneralRetiPodOptionsForLingo.obj
 0001:0013575c       ??0iAPRxGeneralRetSupportedEventNotification@@QAA@AAV?$vector@EV?$allocator@E@std@@@std@@@Z 0014675c f   iAP_lib:iAPRxGeneralRetSupportedEventNotification.obj
 0001:00135828       ??0iAPRxGeneralACK@@QAA@AAV?$vector@EV?$allocator@E@std@@@std@@@Z 00146828 f   iAP_lib:iAPRxGeneralAck.obj
 0001:001358f4       ??0iAPRxGeneralRetiPodPreferences@@QAA@AAV?$vector@EV?$allocator@E@std@@@std@@@Z 001468f4 f   iAP_lib:iAPRxGeneralAck.obj
 0001:001359c0       ??0iAPRxGeneralRetiPodOptions@@QAA@AAV?$vector@EV?$allocator@E@std@@@std@@@Z 001469c0 f   iAP_lib:iAPRxGeneralAck.obj
 0001:00135a8c       ??0iAPRxGeneralAckAccessoryAuthenticationSignature@@QAA@AAV?$vector@EV?$allocator@E@std@@@std@@@Z 00146a8c f   iAP_lib:iAPRxGeneralAckAccessoryAuthenticationSignature.obj
 0001:00135b58       ??0iAPRxGeneralGetAccessoryInfo@@QAA@AAV?$vector@EV?$allocator@E@std@@@std@@@Z 00146b58 f   iAP_lib:iAPRxGeneralGetAccessoryInfo.obj
 0001:00135c24       ??0iAPRxGeneralGetAccessoryAuthenticationSignature@@QAA@AAV?$vector@EV?$allocator@E@std@@@std@@@Z 00146c24 f   iAP_lib:iAPRxGeneralGetAccessoryAuthenticationSignature.obj
 0001:00135cf0       ??0iAPRxGeneralReturnLingoProtocalVersion@@QAA@AAV?$vector@EV?$allocator@E@std@@@std@@@Z 00146cf0 f   iAP_lib:iAPRxGeneralReturnLingoProtocalVersion.obj
 0001:00135dbc       ??0iAPRxGeneralReturnTransportMaxPayloadSize@@QAA@AAV?$vector@EV?$allocator@E@std@@@std@@@Z 00146dbc f   iAP_lib:iAPRxGeneralReturnTransportMaxPayloadSize.obj
 0001:00135e88       ??0iAPRxGeneralGetAccessoryAuthenticationInfo@@QAA@XZ 00146e88 f   iAP_lib:iAPRxGeneralGetAccessoryAuthenticationInfo.obj
 0001:00135f44       ??0iAPRxSimpleIPodACK@@QAA@AAV?$vector@EV?$allocator@E@std@@@std@@@Z 00146f44 f   iAP_lib:iAPRxCmdSimpleRemote.obj
 0001:00136010       ??0iAPRxSimpleAccessoryHIDReport@@QAA@AAV?$vector@EV?$allocator@E@std@@@std@@@Z 00147010 f   iAP_lib:iAPRxCmdSimpleRemote.obj
 0001:001360dc       ??0iAPRxSimpleRetVoiceOverParameter@@QAA@AAV?$vector@EV?$allocator@E@std@@@std@@@Z 001470dc f   iAP_lib:iAPRxCmdSimpleRemote.obj
 0001:001361a8       ??0iAPRxSimpleRetCurrentVoiceOverItemProperty@@QAA@AAV?$vector@EV?$allocator@E@std@@@std@@@Z 001471a8 f   iAP_lib:iAPRxCmdSimpleRemote.obj
 0001:00136274       ??0iAPRxSimpleVoiceOverParameterChanged@@QAA@AAV?$vector@EV?$allocator@E@std@@@std@@@Z 00147274 f   iAP_lib:iAPRxCmdSimpleRemote.obj
 0001:00136340       ??0iAPRxCmdDisplayRemoteEventNotification@@QAA@AAV?$vector@EV?$allocator@E@std@@@std@@@Z 00147340 f   iAP_lib:iAPRxCmdDisplayLingoRemoteEventNotification.obj
 0001:00136340       ??0iAPRxCmdDisplayiPodAck@@QAA@AAV?$vector@EV?$allocator@E@std@@@std@@@Z 00147340 f   iAP_lib:iAPRxCmdDisplayLingoiPodAck.obj
 0001:0013640c       ??0iAPRxCmdDisplayRetRemoteEventStatus@@QAA@AAV?$vector@EV?$allocator@E@std@@@std@@@Z 0014740c f   iAP_lib:iAPRxCmdDisplayLingoRemoteEventNotification.obj
 0001:001364d8       ??0iAPRxCmdExtendedReturnIndexedPlayingTrackArtistName@@QAA@AAV?$vector@EV?$allocator@E@std@@@std@@@Z 001474d8 f   iAP_lib:iAPRxCmdExtendedReturnIndexedPlayingTrackArtistName.obj
 0001:001365a4       ??0iAPRxCmdExtendedReturnIndexedPlayingTrackAlbumName@@QAA@AAV?$vector@EV?$allocator@E@std@@@std@@@Z 001475a4 f   iAP_lib:iAPRxCmdExtendedReturnIndexedPlayingTrackAlbumName.obj
 0001:00136670       ??0iAPRxCmdExtendedPlayStatusChangeNotification@@QAA@AAV?$vector@EV?$allocator@E@std@@@std@@@Z 00147670 f   iAP_lib:iAPRxCmdExtendedPlayStatusChangeNotification.obj
 0001:0013673c       ??0iAPRxCmdExtendedRetTrackArtworkTimes@@QAA@AAV?$vector@EV?$allocator@E@std@@@std@@@Z 0014773c f   iAP_lib:iAPRxCmdExtendedRetTrackArtworkTimes.obj
 0001:001367b8       ??0iAPRxCmdExtendedReturnShuffle@@QAA@AAV?$vector@EV?$allocator@E@std@@@std@@@Z 001477b8 f   iAP_lib:iAPRxCmdExtendedReturnShuffle.obj
 0001:00136884       ??0iAPRxCmdExtendedReturnRepeat@@QAA@AAV?$vector@EV?$allocator@E@std@@@std@@@Z 00147884 f   iAP_lib:iAPRxCmdExtendedReturnRepeat.obj
 0001:00136950       ??0iAPRxCmdReturnCurrentPlayingTrackIndex@@QAA@AAV?$vector@EV?$allocator@E@std@@@std@@@Z 00147950 f   iAP_lib:iAPRxCmdReturnCurrentPlayingTrackIndex.obj
 0001:00136a1c       ??0iAPRxCmdReturnNumPlayingTracks@@QAA@AAV?$vector@EV?$allocator@E@std@@@std@@@Z 00147a1c f   iAP_lib:iAPRxCmdReturnCurrentPlayingTrackIndex.obj
 0001:00136ae8       ??0iAPRxCmdExtendedReturnIndexedPlayingTrackTitle@@QAA@AAV?$vector@EV?$allocator@E@std@@@std@@@Z 00147ae8 f   iAP_lib:iAPRxCmdExtendedReturnIndexedPlayingTrackTitle.obj
 0001:00136bb4       ??0iAPRxCmdReturnCategorizedDatabaseRecord@@QAA@AAV?$vector@EV?$allocator@E@std@@@std@@@Z 00147bb4 f   iAP_lib:iAPRxCmdReturnCategorizedDatabaseRecord.obj
 0001:00136c80       ??0iAPRxCmdReturnPlayStatus@@QAA@AAV?$vector@EV?$allocator@E@std@@@std@@@Z 00147c80 f   iAP_lib:iAPRxCmdReturnPlayStatus.obj
 0001:00136d4c       ??0iAPRxCmdReturnNumberCategorizedDBRecords@@QAA@AAV?$vector@EV?$allocator@E@std@@@std@@@Z 00147d4c f   iAP_lib:iAPRxCmdReturnNumberCategorizedDBRecords.obj
 0001:00136e18       ??0iAPRxCmdExtendedLingoAck@@QAA@AAV?$vector@EV?$allocator@E@std@@@std@@@Z 00147e18 f   iAP_lib:iAPRxCmdExtendedLingoAck.obj
 0001:00136ee4       ??0iAPRxCmdExtendedReturnIndexedPlayingTrackInfo@@QAA@AAV?$vector@EV?$allocator@E@std@@@std@@@Z 00147ee4 f   iAP_lib:iAPRxCmdExtendedReturnIndexedPlayingTrackInfo.obj
 0001:00136fa8       ??_EiAPRxSimpleAccessoryHIDReport@@W7AAPAXI@Z 00147fa8 f i iAP_lib:iAPRxCmdSimpleRemote.obj
 0001:00136fa8       ??_EiAPRxGeneralGetAccessoryAuthenticationInfo@@W7AAPAXI@Z 00147fa8 f i iAP_lib:iAPRxGeneralGetAccessoryAuthenticationInfo.obj
 0001:00136fa8       ??_EiAPRxCmdReturnCategorizedDatabaseRecord@@W7AAPAXI@Z 00147fa8 f i iAP_lib:iAPRxCmdReturnCategorizedDatabaseRecord.obj
 0001:00136fa8       ??_EiAPRxSimpleRetCurrentVoiceOverItemProperty@@W7AAPAXI@Z 00147fa8 f i iAP_lib:iAPRxCmdSimpleRemote.obj
 0001:00136fa8       ??_EiAPRxCmdExtendedReturnRepeat@@W7AAPAXI@Z 00147fa8 f i iAP_lib:iAPRxCmdExtendedReturnRepeat.obj
 0001:00136fa8       ??_EiAPRxCmdExtendedLingoAck@@W7AAPAXI@Z 00147fa8 f i iAP_lib:iAPRxCmdExtendedLingoAck.obj
 0001:00136fa8       ??_EiAPRxCmdExtendedRetTrackArtworkTimes@@W7AAPAXI@Z 00147fa8 f i iAP_lib:iAPRxCmdExtendedRetTrackArtworkTimes.obj
 0001:00136fa8       ??_EiAPRxGeneraliPodNotification@@W7AAPAXI@Z 00147fa8 f i iAP_lib:iAPRxGeneraliOSCommunication.obj
 0001:00136fa8       ??_EiAPRxSimpleRetVoiceOverParameter@@W7AAPAXI@Z 00147fa8 f i iAP_lib:iAPRxCmdSimpleRemote.obj
 0001:00136fa8       ??_EiAPRxGeneralGetAccessoryAuthenticationSignature@@W7AAPAXI@Z 00147fa8 f i iAP_lib:iAPRxGeneralGetAccessoryAuthenticationSignature.obj
 0001:00136fa8       ??_EiAPRxCmdReturnNumPlayingTracks@@W7AAPAXI@Z 00147fa8 f i iAP_lib:iAPRxCmdReturnCurrentPlayingTrackIndex.obj
 0001:00136fa8       ??_EiAPRxCmdExtendedReturnIndexedPlayingTrackAlbumName@@W7AAPAXI@Z 00147fa8 f i iAP_lib:iAPRxCmdExtendedReturnIndexedPlayingTrackAlbumName.obj
 0001:00136fa8       ??_EiAPRxGeneralCloseDataSession@@W7AAPAXI@Z 00147fa8 f i iAP_lib:iAPRxGeneraliOSCommunication.obj
 0001:00136fa8       ??_EiAPRxCmdExtendedPlayStatusChangeNotification@@W7AAPAXI@Z 00147fa8 f i iAP_lib:iAPRxCmdExtendedPlayStatusChangeNotification.obj
 0001:00136fa8       ??_EiAPRxCmdDisplayRetRemoteEventStatus@@W7AAPAXI@Z 00147fa8 f i iAP_lib:iAPRxCmdDisplayLingoRemoteEventNotification.obj
 0001:00136fa8       ??_EiAPRxNull@@W7AAPAXI@Z  00147fa8 f i iAP_lib:iAPRxCmd.obj
 0001:00136fa8       ??_EiAPRxCmdReturnCurrentPlayingTrackIndex@@W7AAPAXI@Z 00147fa8 f i iAP_lib:iAPRxCmdReturnCurrentPlayingTrackIndex.obj
 0001:00136fa8       ??_EiAPRxGeneraliPodDataTransfer@@W7AAPAXI@Z 00147fa8 f i iAP_lib:iAPRxGeneraliOSCommunication.obj
 0001:00136fa8       ??_EiAPRxSimpleIPodACK@@W7AAPAXI@Z 00147fa8 f i iAP_lib:iAPRxCmdSimpleRemote.obj
 0001:00136fa8       ??_EiAPRxGeneralOpenDataSessionForProtocol@@W7AAPAXI@Z 00147fa8 f i iAP_lib:iAPRxGeneraliOSCommunication.obj
 0001:00136fa8       ??_EiAPRxCmdExtendedReturnIndexedPlayingTrackTitle@@W7AAPAXI@Z 00147fa8 f i iAP_lib:iAPRxCmdExtendedReturnIndexedPlayingTrackTitle.obj
 0001:00136fa8       ??_EiAPRxGeneralRetSupportedEventNotification@@W7AAPAXI@Z 00147fa8 f i iAP_lib:iAPRxGeneralRetSupportedEventNotification.obj
 0001:00136fa8       ??_EiAPRxSimpleVoiceOverParameterChanged@@W7AAPAXI@Z 00147fa8 f i iAP_lib:iAPRxCmdSimpleRemote.obj
 0001:00136fa8       ??_EiAPRxCmdReturnNumberCategorizedDBRecords@@W7AAPAXI@Z 00147fa8 f i iAP_lib:iAPRxCmdReturnNumberCategorizedDBRecords.obj
 0001:00136fa8       ??_EiAPRxCmdExtendedRetTrackArtworkData@@W7AAPAXI@Z 00147fa8 f i iAP_lib:iAPRxCmdExtendedRetTrackArtworkData.obj
 0001:00136fa8       ??_EiAPRxCmdDigitalAudioGetAccessorySampleRateCaps@@W7AAPAXI@Z 00147fa8 f i iAP_lib:iAPRxCmdDigitalAudioGetAccessorySampleRateCaps.obj
 0001:00136fa8       ??_EiAPRxCmdExtendedReturnIndexedPlayingTrackArtistName@@W7AAPAXI@Z 00147fa8 f i iAP_lib:iAPRxCmdExtendedReturnIndexedPlayingTrackArtistName.obj
 0001:00136fa8       ??_EiAPRxCmdGeneralRetiPodOptionsForLingo@@W7AAPAXI@Z 00147fa8 f i iAP_lib:iAPRxCmdGeneralRetiPodOptionsForLingo.obj
 0001:00136fa8       ??_EiAPRxGeneralGetAccessoryInfo@@W7AAPAXI@Z 00147fa8 f i iAP_lib:iAPRxGeneralGetAccessoryInfo.obj
 0001:00136fa8       ??_EiAPRxCmdDigitalAudioTrackNewAudioAttributes@@W7AAPAXI@Z 00147fa8 f i iAP_lib:iAPRxCmdDigitalAudioTrackNewAudioAttributes.obj
 0001:00136fa8       ??_EiAPRxGeneralReturnTransportMaxPayloadSize@@W7AAPAXI@Z 00147fa8 f i iAP_lib:iAPRxGeneralReturnTransportMaxPayloadSize.obj
 0001:00136fa8       ??_EiAPRxGeneralACK@@W7AAPAXI@Z 00147fa8 f i iAP_lib:iAPRxGeneralAck.obj
 0001:00136fa8       ??_EiAPRxCmdExtendedReturnIndexedPlayingTrackInfo@@W7AAPAXI@Z 00147fa8 f i iAP_lib:iAPRxCmdExtendedReturnIndexedPlayingTrackInfo.obj
 0001:00136fa8       ??_EiAPRxGeneralAckAccessoryAuthenticationSignature@@W7AAPAXI@Z 00147fa8 f i iAP_lib:iAPRxGeneralAckAccessoryAuthenticationSignature.obj
 0001:00136fa8       ??_EiAPRxCmdDisplayiPodAck@@W7AAPAXI@Z 00147fa8 f i iAP_lib:iAPRxCmdDisplayLingoiPodAck.obj
 0001:00136fa8       ??_EiAPRxCmdDisplayRemoteEventNotification@@W7AAPAXI@Z 00147fa8 f i iAP_lib:iAPRxCmdDisplayLingoRemoteEventNotification.obj
 0001:00136fa8       ??_EiAPRxCmdExtendedRetTrackArtworkFormats@@W7AAPAXI@Z 00147fa8 f i iAP_lib:iAPRxCmdExtendedRetTrackArtworkFormats.obj
 0001:00136fa8       ??_EiAPRxGeneralReturnLingoProtocalVersion@@W7AAPAXI@Z 00147fa8 f i iAP_lib:iAPRxGeneralReturnLingoProtocalVersion.obj
 0001:00136fa8       ??_EiAPRxGeneralRetiPodPreferences@@W7AAPAXI@Z 00147fa8 f i iAP_lib:iAPRxGeneralAck.obj
 0001:00136fa8       ??_EiAPRxGeneralRetiPodOptions@@W7AAPAXI@Z 00147fa8 f i iAP_lib:iAPRxGeneralAck.obj
 0001:00136fa8       ??_EiAPRxCmdReturnPlayStatus@@W7AAPAXI@Z 00147fa8 f i iAP_lib:iAPRxCmdReturnPlayStatus.obj
 0001:00136fa8       ??_EiAPRxGeneralAckFIDTokenValues@@W7AAPAXI@Z 00147fa8 f i iAP_lib:iAPRxGeneralAckFIDTokenValues.obj
 0001:00136fa8       ??_EiAPRxCmdExtendedReturnShuffle@@W7AAPAXI@Z 00147fa8 f i iAP_lib:iAPRxCmdExtendedReturnShuffle.obj
 0001:00136fb0       ??_GiAPRxSimpleAccessoryHIDReport@@UAAPAXI@Z 00147fb0 f i iAP_lib:iAPRxCmdSimpleRemote.obj
 0001:00136fb0       ??_GiAPRxCmdExtendedReturnRepeat@@UAAPAXI@Z 00147fb0 f i iAP_lib:iAPRxCmdExtendedReturnRepeat.obj
 0001:00136fb0       ??_EiAPRxCmdReturnNumberCategorizedDBRecords@@UAAPAXI@Z 00147fb0 f i iAP_lib:iAPRxCmdReturnNumberCategorizedDBRecords.obj
 0001:00136fb0       ??_GiAPRxCmdExtendedReturnIndexedPlayingTrackAlbumName@@UAAPAXI@Z 00147fb0 f i iAP_lib:iAPRxCmdExtendedReturnIndexedPlayingTrackAlbumName.obj
 0001:00136fb0       ??_GiAPRxGeneralGetAccessoryAuthenticationInfo@@UAAPAXI@Z 00147fb0 f i iAP_lib:iAPRxGeneralGetAccessoryAuthenticationInfo.obj
 0001:00136fb0       ??_GiAPRxSimpleVoiceOverParameterChanged@@UAAPAXI@Z 00147fb0 f i iAP_lib:iAPRxCmdSimpleRemote.obj
